
standarat_macro.elf:     file format elf32-littlearm

Sections:
Idx Name          Size      VMA       LMA       File off  Algn
  0 .isr_vector   000001f8  08000000  08000000  00010000  2**0
                  CONTENTS, ALLOC, LOAD, READONLY, DATA
  1 .text         0000e778  080001f8  080001f8  000101f8  2**3
                  CONTENTS, ALLOC, LOAD, READONLY, CODE
  2 .rodata       00001d2c  0800e970  0800e970  0001e970  2**3
                  CONTENTS, ALLOC, LOAD, READONLY, DATA
  3 .init_array   00000004  0801069c  0801069c  0002069c  2**2
                  CONTENTS, ALLOC, LOAD, DATA
  4 .fini_array   00000004  080106a0  080106a0  000206a0  2**2
                  CONTENTS, ALLOC, LOAD, DATA
  5 .data         0000000c  20020000  080106a4  00030000  2**2
                  CONTENTS, ALLOC, LOAD, DATA
  6 .dtcmram      00000000  20000000  20000000  0003000c  2**0
                  CONTENTS
  7 .sram2        00000000  2007c000  2007c000  0003000c  2**0
                  CONTENTS
  8 .bss          00000620  2002000c  2002000c  0003000c  2**2
                  ALLOC
  9 ._user_heap_stack 00000400  2002062c  2002062c  0003000c  2**0
                  ALLOC
 10 .ARM.attributes 0000002e  00000000  00000000  0003000c  2**0
                  CONTENTS, READONLY
 11 .debug_info   00003ab7  00000000  00000000  0003003a  2**0
                  CONTENTS, READONLY, DEBUGGING
 12 .debug_abbrev 0000092c  00000000  00000000  00033af1  2**0
                  CONTENTS, READONLY, DEBUGGING
 13 .debug_aranges 000000c8  00000000  00000000  00034420  2**3
                  CONTENTS, READONLY, DEBUGGING
 14 .debug_line   00000d86  00000000  00000000  000344e8  2**0
                  CONTENTS, READONLY, DEBUGGING
 15 .debug_str    00001521  00000000  00000000  0003526e  2**0
                  CONTENTS, READONLY, DEBUGGING
 16 .comment      000000fe  00000000  00000000  0003678f  2**0
                  CONTENTS, READONLY
 17 .debug_frame  00000854  00000000  00000000  00036890  2**2
                  CONTENTS, READONLY, DEBUGGING
 18 .debug_ranges 00000020  00000000  00000000  000370e8  2**3
                  CONTENTS, READONLY, DEBUGGING

Disassembly of section .text:

080001f8 <__do_global_dtors_aux>:
 80001f8:	b510      	push	{r4, lr}
 80001fa:	4c05      	ldr	r4, [pc, #20]	; (8000210 <__do_global_dtors_aux+0x18>)
 80001fc:	7823      	ldrb	r3, [r4, #0]
 80001fe:	b933      	cbnz	r3, 800020e <__do_global_dtors_aux+0x16>
 8000200:	4b04      	ldr	r3, [pc, #16]	; (8000214 <__do_global_dtors_aux+0x1c>)
 8000202:	b113      	cbz	r3, 800020a <__do_global_dtors_aux+0x12>
 8000204:	4804      	ldr	r0, [pc, #16]	; (8000218 <__do_global_dtors_aux+0x20>)
 8000206:	f3af 8000 	nop.w
 800020a:	2301      	movs	r3, #1
 800020c:	7023      	strb	r3, [r4, #0]
 800020e:	bd10      	pop	{r4, pc}
 8000210:	2002000c 	.word	0x2002000c
 8000214:	00000000 	.word	0x00000000
 8000218:	0800e954 	.word	0x0800e954

0800021c <frame_dummy>:
 800021c:	b508      	push	{r3, lr}
 800021e:	4b03      	ldr	r3, [pc, #12]	; (800022c <frame_dummy+0x10>)
 8000220:	b11b      	cbz	r3, 800022a <frame_dummy+0xe>
 8000222:	4903      	ldr	r1, [pc, #12]	; (8000230 <frame_dummy+0x14>)
 8000224:	4803      	ldr	r0, [pc, #12]	; (8000234 <frame_dummy+0x18>)
 8000226:	f3af 8000 	nop.w
 800022a:	bd08      	pop	{r3, pc}
 800022c:	00000000 	.word	0x00000000
 8000230:	20020010 	.word	0x20020010
 8000234:	0800e954 	.word	0x0800e954

08000238 <SystemInit>:
  *         SystemFrequency variable.
  * @param  None
  * @retval None
  */
void SystemInit(void)
{
 8000238:	b480      	push	{r7}
 800023a:	af00      	add	r7, sp, #0
  /* FPU settings ------------------------------------------------------------*/
  #if (__FPU_PRESENT == 1) && (__FPU_USED == 1)
    SCB->CPACR |= ((3UL << 10*2)|(3UL << 11*2));  /* set CP10 and CP11 Full Access */
 800023c:	4a15      	ldr	r2, [pc, #84]	; (8000294 <SystemInit+0x5c>)
 800023e:	4b15      	ldr	r3, [pc, #84]	; (8000294 <SystemInit+0x5c>)
 8000240:	f8d3 3088 	ldr.w	r3, [r3, #136]	; 0x88
 8000244:	f443 0370 	orr.w	r3, r3, #15728640	; 0xf00000
 8000248:	f8c2 3088 	str.w	r3, [r2, #136]	; 0x88
  #endif
  /* Reset the RCC clock configuration to the default reset state ------------*/
  /* Set HSION bit */
  RCC->CR |= (uint32_t)0x00000001;
 800024c:	4a12      	ldr	r2, [pc, #72]	; (8000298 <SystemInit+0x60>)
 800024e:	4b12      	ldr	r3, [pc, #72]	; (8000298 <SystemInit+0x60>)
 8000250:	681b      	ldr	r3, [r3, #0]
 8000252:	f043 0301 	orr.w	r3, r3, #1
 8000256:	6013      	str	r3, [r2, #0]

  /* Reset CFGR register */
  RCC->CFGR = 0x00000000;
 8000258:	4b0f      	ldr	r3, [pc, #60]	; (8000298 <SystemInit+0x60>)
 800025a:	2200      	movs	r2, #0
 800025c:	609a      	str	r2, [r3, #8]

  /* Reset HSEON, CSSON and PLLON bits */
  RCC->CR &= (uint32_t)0xFEF6FFFF;
 800025e:	490e      	ldr	r1, [pc, #56]	; (8000298 <SystemInit+0x60>)
 8000260:	4b0d      	ldr	r3, [pc, #52]	; (8000298 <SystemInit+0x60>)
 8000262:	681a      	ldr	r2, [r3, #0]
 8000264:	4b0d      	ldr	r3, [pc, #52]	; (800029c <SystemInit+0x64>)
 8000266:	4013      	ands	r3, r2
 8000268:	600b      	str	r3, [r1, #0]

  /* Reset PLLCFGR register */
  RCC->PLLCFGR = 0x24003010;
 800026a:	4b0b      	ldr	r3, [pc, #44]	; (8000298 <SystemInit+0x60>)
 800026c:	4a0c      	ldr	r2, [pc, #48]	; (80002a0 <SystemInit+0x68>)
 800026e:	605a      	str	r2, [r3, #4]

  /* Reset HSEBYP bit */
  RCC->CR &= (uint32_t)0xFFFBFFFF;
 8000270:	4a09      	ldr	r2, [pc, #36]	; (8000298 <SystemInit+0x60>)
 8000272:	4b09      	ldr	r3, [pc, #36]	; (8000298 <SystemInit+0x60>)
 8000274:	681b      	ldr	r3, [r3, #0]
 8000276:	f423 2380 	bic.w	r3, r3, #262144	; 0x40000
 800027a:	6013      	str	r3, [r2, #0]

  /* Disable all interrupts */
  RCC->CIR = 0x00000000;
 800027c:	4b06      	ldr	r3, [pc, #24]	; (8000298 <SystemInit+0x60>)
 800027e:	2200      	movs	r2, #0
 8000280:	60da      	str	r2, [r3, #12]

  /* Configure the Vector Table location add offset address ------------------*/
#ifdef VECT_TAB_SRAM
  SCB->VTOR = RAMDTCM_BASE | VECT_TAB_OFFSET; /* Vector Table Relocation in Internal SRAM */
#else
  SCB->VTOR = FLASH_BASE | VECT_TAB_OFFSET; /* Vector Table Relocation in Internal FLASH */
 8000282:	4b04      	ldr	r3, [pc, #16]	; (8000294 <SystemInit+0x5c>)
 8000284:	f04f 6200 	mov.w	r2, #134217728	; 0x8000000
 8000288:	609a      	str	r2, [r3, #8]
#endif
}
 800028a:	bf00      	nop
 800028c:	46bd      	mov	sp, r7
 800028e:	f85d 7b04 	ldr.w	r7, [sp], #4
 8000292:	4770      	bx	lr
 8000294:	e000ed00 	.word	0xe000ed00
 8000298:	40023800 	.word	0x40023800
 800029c:	fef6ffff 	.word	0xfef6ffff
 80002a0:	24003010 	.word	0x24003010

080002a4 <SystemCoreClockUpdate>:
  *     
  * @param  None
  * @retval None
  */
void SystemCoreClockUpdate(void)
{
 80002a4:	b480      	push	{r7}
 80002a6:	b087      	sub	sp, #28
 80002a8:	af00      	add	r7, sp, #0
  uint32_t tmp = 0, pllvco = 0, pllp = 2, pllsource = 0, pllm = 2;
 80002aa:	2300      	movs	r3, #0
 80002ac:	613b      	str	r3, [r7, #16]
 80002ae:	2300      	movs	r3, #0
 80002b0:	617b      	str	r3, [r7, #20]
 80002b2:	2302      	movs	r3, #2
 80002b4:	60fb      	str	r3, [r7, #12]
 80002b6:	2300      	movs	r3, #0
 80002b8:	60bb      	str	r3, [r7, #8]
 80002ba:	2302      	movs	r3, #2
 80002bc:	607b      	str	r3, [r7, #4]
  
  /* Get SYSCLK source -------------------------------------------------------*/
  tmp = RCC->CFGR & RCC_CFGR_SWS;
 80002be:	4b31      	ldr	r3, [pc, #196]	; (8000384 <SystemCoreClockUpdate+0xe0>)
 80002c0:	689b      	ldr	r3, [r3, #8]
 80002c2:	f003 030c 	and.w	r3, r3, #12
 80002c6:	613b      	str	r3, [r7, #16]

  switch (tmp)
 80002c8:	693b      	ldr	r3, [r7, #16]
 80002ca:	2b04      	cmp	r3, #4
 80002cc:	d007      	beq.n	80002de <SystemCoreClockUpdate+0x3a>
 80002ce:	2b08      	cmp	r3, #8
 80002d0:	d009      	beq.n	80002e6 <SystemCoreClockUpdate+0x42>
 80002d2:	2b00      	cmp	r3, #0
 80002d4:	d13d      	bne.n	8000352 <SystemCoreClockUpdate+0xae>
  {
    case 0x00:  /* HSI used as system clock source */
      SystemCoreClock = HSI_VALUE;
 80002d6:	4b2c      	ldr	r3, [pc, #176]	; (8000388 <SystemCoreClockUpdate+0xe4>)
 80002d8:	4a2c      	ldr	r2, [pc, #176]	; (800038c <SystemCoreClockUpdate+0xe8>)
 80002da:	601a      	str	r2, [r3, #0]
      break;
 80002dc:	e03d      	b.n	800035a <SystemCoreClockUpdate+0xb6>
    case 0x04:  /* HSE used as system clock source */
      SystemCoreClock = HSE_VALUE;
 80002de:	4b2a      	ldr	r3, [pc, #168]	; (8000388 <SystemCoreClockUpdate+0xe4>)
 80002e0:	4a2b      	ldr	r2, [pc, #172]	; (8000390 <SystemCoreClockUpdate+0xec>)
 80002e2:	601a      	str	r2, [r3, #0]
      break;
 80002e4:	e039      	b.n	800035a <SystemCoreClockUpdate+0xb6>
    case 0x08:  /* PLL used as system clock source */

      /* PLL_VCO = (HSE_VALUE or HSI_VALUE / PLL_M) * PLL_N
         SYSCLK = PLL_VCO / PLL_P
         */    
      pllsource = (RCC->PLLCFGR & RCC_PLLCFGR_PLLSRC) >> 22;
 80002e6:	4b27      	ldr	r3, [pc, #156]	; (8000384 <SystemCoreClockUpdate+0xe0>)
 80002e8:	685b      	ldr	r3, [r3, #4]
 80002ea:	0d9b      	lsrs	r3, r3, #22
 80002ec:	f003 0301 	and.w	r3, r3, #1
 80002f0:	60bb      	str	r3, [r7, #8]
      pllm = RCC->PLLCFGR & RCC_PLLCFGR_PLLM;
 80002f2:	4b24      	ldr	r3, [pc, #144]	; (8000384 <SystemCoreClockUpdate+0xe0>)
 80002f4:	685b      	ldr	r3, [r3, #4]
 80002f6:	f003 033f 	and.w	r3, r3, #63	; 0x3f
 80002fa:	607b      	str	r3, [r7, #4]
      
      if (pllsource != 0)
 80002fc:	68bb      	ldr	r3, [r7, #8]
 80002fe:	2b00      	cmp	r3, #0
 8000300:	d00c      	beq.n	800031c <SystemCoreClockUpdate+0x78>
      {
        /* HSE used as PLL clock source */
        pllvco = (HSE_VALUE / pllm) * ((RCC->PLLCFGR & RCC_PLLCFGR_PLLN) >> 6);
 8000302:	4a23      	ldr	r2, [pc, #140]	; (8000390 <SystemCoreClockUpdate+0xec>)
 8000304:	687b      	ldr	r3, [r7, #4]
 8000306:	fbb2 f3f3 	udiv	r3, r2, r3
 800030a:	4a1e      	ldr	r2, [pc, #120]	; (8000384 <SystemCoreClockUpdate+0xe0>)
 800030c:	6852      	ldr	r2, [r2, #4]
 800030e:	0992      	lsrs	r2, r2, #6
 8000310:	f3c2 0208 	ubfx	r2, r2, #0, #9
 8000314:	fb02 f303 	mul.w	r3, r2, r3
 8000318:	617b      	str	r3, [r7, #20]
 800031a:	e00b      	b.n	8000334 <SystemCoreClockUpdate+0x90>
      }
      else
      {
        /* HSI used as PLL clock source */
        pllvco = (HSI_VALUE / pllm) * ((RCC->PLLCFGR & RCC_PLLCFGR_PLLN) >> 6);      
 800031c:	4a1b      	ldr	r2, [pc, #108]	; (800038c <SystemCoreClockUpdate+0xe8>)
 800031e:	687b      	ldr	r3, [r7, #4]
 8000320:	fbb2 f3f3 	udiv	r3, r2, r3
 8000324:	4a17      	ldr	r2, [pc, #92]	; (8000384 <SystemCoreClockUpdate+0xe0>)
 8000326:	6852      	ldr	r2, [r2, #4]
 8000328:	0992      	lsrs	r2, r2, #6
 800032a:	f3c2 0208 	ubfx	r2, r2, #0, #9
 800032e:	fb02 f303 	mul.w	r3, r2, r3
 8000332:	617b      	str	r3, [r7, #20]
      }

      pllp = (((RCC->PLLCFGR & RCC_PLLCFGR_PLLP) >>16) + 1 ) *2;
 8000334:	4b13      	ldr	r3, [pc, #76]	; (8000384 <SystemCoreClockUpdate+0xe0>)
 8000336:	685b      	ldr	r3, [r3, #4]
 8000338:	0c1b      	lsrs	r3, r3, #16
 800033a:	f003 0303 	and.w	r3, r3, #3
 800033e:	3301      	adds	r3, #1
 8000340:	005b      	lsls	r3, r3, #1
 8000342:	60fb      	str	r3, [r7, #12]
      SystemCoreClock = pllvco/pllp;
 8000344:	697a      	ldr	r2, [r7, #20]
 8000346:	68fb      	ldr	r3, [r7, #12]
 8000348:	fbb2 f3f3 	udiv	r3, r2, r3
 800034c:	4a0e      	ldr	r2, [pc, #56]	; (8000388 <SystemCoreClockUpdate+0xe4>)
 800034e:	6013      	str	r3, [r2, #0]
      break;
 8000350:	e003      	b.n	800035a <SystemCoreClockUpdate+0xb6>
    default:
      SystemCoreClock = HSI_VALUE;
 8000352:	4b0d      	ldr	r3, [pc, #52]	; (8000388 <SystemCoreClockUpdate+0xe4>)
 8000354:	4a0d      	ldr	r2, [pc, #52]	; (800038c <SystemCoreClockUpdate+0xe8>)
 8000356:	601a      	str	r2, [r3, #0]
      break;
 8000358:	bf00      	nop
  }
  /* Compute HCLK frequency --------------------------------------------------*/
  /* Get HCLK prescaler */
  tmp = AHBPrescTable[((RCC->CFGR & RCC_CFGR_HPRE) >> 4)];
 800035a:	4b0a      	ldr	r3, [pc, #40]	; (8000384 <SystemCoreClockUpdate+0xe0>)
 800035c:	689b      	ldr	r3, [r3, #8]
 800035e:	091b      	lsrs	r3, r3, #4
 8000360:	f003 030f 	and.w	r3, r3, #15
 8000364:	4a0b      	ldr	r2, [pc, #44]	; (8000394 <SystemCoreClockUpdate+0xf0>)
 8000366:	5cd3      	ldrb	r3, [r2, r3]
 8000368:	613b      	str	r3, [r7, #16]
  /* HCLK frequency */
  SystemCoreClock >>= tmp;
 800036a:	4b07      	ldr	r3, [pc, #28]	; (8000388 <SystemCoreClockUpdate+0xe4>)
 800036c:	681a      	ldr	r2, [r3, #0]
 800036e:	693b      	ldr	r3, [r7, #16]
 8000370:	fa22 f303 	lsr.w	r3, r2, r3
 8000374:	4a04      	ldr	r2, [pc, #16]	; (8000388 <SystemCoreClockUpdate+0xe4>)
 8000376:	6013      	str	r3, [r2, #0]
}
 8000378:	bf00      	nop
 800037a:	371c      	adds	r7, #28
 800037c:	46bd      	mov	sp, r7
 800037e:	f85d 7b04 	ldr.w	r7, [sp], #4
 8000382:	4770      	bx	lr
 8000384:	40023800 	.word	0x40023800
 8000388:	20020004 	.word	0x20020004
 800038c:	00f42400 	.word	0x00f42400
 8000390:	017d7840 	.word	0x017d7840
 8000394:	0800e970 	.word	0x0800e970

08000398 <SCB_EnableICache>:
/**
  \brief   Enable I-Cache
  \details Turns on I-Cache
  */
__STATIC_INLINE void SCB_EnableICache (void)
{
 8000398:	b480      	push	{r7}
 800039a:	af00      	add	r7, sp, #0
  \details Acts as a special kind of Data Memory Barrier.
           It completes when all explicit memory accesses before this instruction complete.
 */
__STATIC_FORCEINLINE void __DSB(void)
{
  __ASM volatile ("dsb 0xF":::"memory");
 800039c:	f3bf 8f4f 	dsb	sy
  __ASM volatile ("isb 0xF":::"memory");
 80003a0:	f3bf 8f6f 	isb	sy
  #if defined (__ICACHE_PRESENT) && (__ICACHE_PRESENT == 1U)
    __DSB();
    __ISB();
    SCB->ICIALLU = 0UL;                     /* invalidate I-Cache */
 80003a4:	4b0b      	ldr	r3, [pc, #44]	; (80003d4 <SCB_EnableICache+0x3c>)
 80003a6:	2200      	movs	r2, #0
 80003a8:	f8c3 2250 	str.w	r2, [r3, #592]	; 0x250
  __ASM volatile ("dsb 0xF":::"memory");
 80003ac:	f3bf 8f4f 	dsb	sy
  __ASM volatile ("isb 0xF":::"memory");
 80003b0:	f3bf 8f6f 	isb	sy
    __DSB();
    __ISB();
    SCB->CCR |=  (uint32_t)SCB_CCR_IC_Msk;  /* enable I-Cache */
 80003b4:	4a07      	ldr	r2, [pc, #28]	; (80003d4 <SCB_EnableICache+0x3c>)
 80003b6:	4b07      	ldr	r3, [pc, #28]	; (80003d4 <SCB_EnableICache+0x3c>)
 80003b8:	695b      	ldr	r3, [r3, #20]
 80003ba:	f443 3300 	orr.w	r3, r3, #131072	; 0x20000
 80003be:	6153      	str	r3, [r2, #20]
  __ASM volatile ("dsb 0xF":::"memory");
 80003c0:	f3bf 8f4f 	dsb	sy
  __ASM volatile ("isb 0xF":::"memory");
 80003c4:	f3bf 8f6f 	isb	sy
    __DSB();
    __ISB();
  #endif
}
 80003c8:	bf00      	nop
 80003ca:	46bd      	mov	sp, r7
 80003cc:	f85d 7b04 	ldr.w	r7, [sp], #4
 80003d0:	4770      	bx	lr
 80003d2:	bf00      	nop
 80003d4:	e000ed00 	.word	0xe000ed00

080003d8 <SCB_EnableDCache>:
/**
  \brief   Enable D-Cache
  \details Turns on D-Cache
  */
__STATIC_INLINE void SCB_EnableDCache (void)
{
 80003d8:	b480      	push	{r7}
 80003da:	b085      	sub	sp, #20
 80003dc:	af00      	add	r7, sp, #0
  #if defined (__DCACHE_PRESENT) && (__DCACHE_PRESENT == 1U)
    uint32_t ccsidr;
    uint32_t sets;
    uint32_t ways;

    SCB->CSSELR = 0U; /*(0U << 1U) | 0U;*/  /* Level 1 data cache */
 80003de:	4b1d      	ldr	r3, [pc, #116]	; (8000454 <SCB_EnableDCache+0x7c>)
 80003e0:	2200      	movs	r2, #0
 80003e2:	f8c3 2084 	str.w	r2, [r3, #132]	; 0x84
  __ASM volatile ("dsb 0xF":::"memory");
 80003e6:	f3bf 8f4f 	dsb	sy
    __DSB();

    ccsidr = SCB->CCSIDR;
 80003ea:	4b1a      	ldr	r3, [pc, #104]	; (8000454 <SCB_EnableDCache+0x7c>)
 80003ec:	f8d3 3080 	ldr.w	r3, [r3, #128]	; 0x80
 80003f0:	607b      	str	r3, [r7, #4]

                                            /* invalidate D-Cache */
    sets = (uint32_t)(CCSIDR_SETS(ccsidr));
 80003f2:	687b      	ldr	r3, [r7, #4]
 80003f4:	0b5b      	lsrs	r3, r3, #13
 80003f6:	f3c3 030e 	ubfx	r3, r3, #0, #15
 80003fa:	60fb      	str	r3, [r7, #12]
    do {
      ways = (uint32_t)(CCSIDR_WAYS(ccsidr));
 80003fc:	687b      	ldr	r3, [r7, #4]
 80003fe:	08db      	lsrs	r3, r3, #3
 8000400:	f3c3 0309 	ubfx	r3, r3, #0, #10
 8000404:	60bb      	str	r3, [r7, #8]
      do {
        SCB->DCISW = (((sets << SCB_DCISW_SET_Pos) & SCB_DCISW_SET_Msk) |
 8000406:	4913      	ldr	r1, [pc, #76]	; (8000454 <SCB_EnableDCache+0x7c>)
 8000408:	68fb      	ldr	r3, [r7, #12]
 800040a:	015a      	lsls	r2, r3, #5
 800040c:	f643 73e0 	movw	r3, #16352	; 0x3fe0
 8000410:	4013      	ands	r3, r2
                      ((ways << SCB_DCISW_WAY_Pos) & SCB_DCISW_WAY_Msk)  );
 8000412:	68ba      	ldr	r2, [r7, #8]
 8000414:	0792      	lsls	r2, r2, #30
        SCB->DCISW = (((sets << SCB_DCISW_SET_Pos) & SCB_DCISW_SET_Msk) |
 8000416:	4313      	orrs	r3, r2
 8000418:	f8c1 3260 	str.w	r3, [r1, #608]	; 0x260
        #if defined ( __CC_ARM )
          __schedule_barrier();
        #endif
      } while (ways-- != 0U);
 800041c:	68bb      	ldr	r3, [r7, #8]
 800041e:	1e5a      	subs	r2, r3, #1
 8000420:	60ba      	str	r2, [r7, #8]
 8000422:	2b00      	cmp	r3, #0
 8000424:	d1ef      	bne.n	8000406 <SCB_EnableDCache+0x2e>
    } while(sets-- != 0U);
 8000426:	68fb      	ldr	r3, [r7, #12]
 8000428:	1e5a      	subs	r2, r3, #1
 800042a:	60fa      	str	r2, [r7, #12]
 800042c:	2b00      	cmp	r3, #0
 800042e:	d1e5      	bne.n	80003fc <SCB_EnableDCache+0x24>
 8000430:	f3bf 8f4f 	dsb	sy
    __DSB();

    SCB->CCR |=  (uint32_t)SCB_CCR_DC_Msk;  /* enable D-Cache */
 8000434:	4a07      	ldr	r2, [pc, #28]	; (8000454 <SCB_EnableDCache+0x7c>)
 8000436:	4b07      	ldr	r3, [pc, #28]	; (8000454 <SCB_EnableDCache+0x7c>)
 8000438:	695b      	ldr	r3, [r3, #20]
 800043a:	f443 3380 	orr.w	r3, r3, #65536	; 0x10000
 800043e:	6153      	str	r3, [r2, #20]
 8000440:	f3bf 8f4f 	dsb	sy
  __ASM volatile ("isb 0xF":::"memory");
 8000444:	f3bf 8f6f 	isb	sy

    __DSB();
    __ISB();
  #endif
}
 8000448:	bf00      	nop
 800044a:	3714      	adds	r7, #20
 800044c:	46bd      	mov	sp, r7
 800044e:	f85d 7b04 	ldr.w	r7, [sp], #4
 8000452:	4770      	bx	lr
 8000454:	e000ed00 	.word	0xe000ed00

08000458 <AES_XTSinit>:
  * @param  OutputMessage: pointer to output parameter that will handle the encrypted message
  * @retval error status: can be AES_SUCCESS if success or one of
  *         AES_ERR_BAD_INPUT_SIZE, AES_ERR_BAD_OPERATION, AES_ERR_BAD_CONTEXT
  *         AES_ERR_BAD_PARAMETER if error occured.
  */
void AES_XTSinit (void) {
 8000458:	b580      	push	{r7, lr}
 800045a:	af00      	add	r7, sp, #0

	RCC -> AHB1ENR |= RCC_AHB1ENR_CRCEN;	// Обязательно
 800045c:	4a05      	ldr	r2, [pc, #20]	; (8000474 <AES_XTSinit+0x1c>)
 800045e:	4b05      	ldr	r3, [pc, #20]	; (8000474 <AES_XTSinit+0x1c>)
 8000460:	6b1b      	ldr	r3, [r3, #48]	; 0x30
 8000462:	f443 5380 	orr.w	r3, r3, #4096	; 0x1000
 8000466:	6313      	str	r3, [r2, #48]	; 0x30

	SCB_EnableICache();
 8000468:	f7ff ff96 	bl	8000398 <SCB_EnableICache>
	SCB_EnableDCache();
 800046c:	f7ff ffb4 	bl	80003d8 <SCB_EnableDCache>

}
 8000470:	bf00      	nop
 8000472:	bd80      	pop	{r7, pc}
 8000474:	40023800 	.word	0x40023800

08000478 <STM32_AES_XTS_Encrypt>:
                              uint32_t   InputMessageLength,
                              const uint8_t *AES_Key,
                              uint32_t   KeyLength,
                              const uint8_t *Tweak,
                              uint8_t   *OutputMessage)
{
 8000478:	b580      	push	{r7, lr}
 800047a:	b088      	sub	sp, #32
 800047c:	af02      	add	r7, sp, #8
 800047e:	60f8      	str	r0, [r7, #12]
 8000480:	60b9      	str	r1, [r7, #8]
 8000482:	607a      	str	r2, [r7, #4]
 8000484:	603b      	str	r3, [r7, #0]
  /* AES context, error status and output length */

  uint32_t error_status = AES_SUCCESS;
 8000486:	2300      	movs	r3, #0
 8000488:	617b      	str	r3, [r7, #20]
  int32_t outputLength = 0;
 800048a:	2300      	movs	r3, #0
 800048c:	613b      	str	r3, [r7, #16]

  /* Set flag field to default value */
  AESctx.mFlags = E_SK_DEFAULT;
 800048e:	4b17      	ldr	r3, [pc, #92]	; (80004ec <STM32_AES_XTS_Encrypt+0x74>)
 8000490:	2200      	movs	r2, #0
 8000492:	711a      	strb	r2, [r3, #4]
  /* Set the key size in AES status */
  AESctx.mKeySize = KeyLength;
 8000494:	683b      	ldr	r3, [r7, #0]
 8000496:	4a15      	ldr	r2, [pc, #84]	; (80004ec <STM32_AES_XTS_Encrypt+0x74>)
 8000498:	6253      	str	r3, [r2, #36]	; 0x24
  /* Set the Tweak size in AES status */
  AESctx.mTweakSize = CRL_AES_BLOCK;
 800049a:	4b14      	ldr	r3, [pc, #80]	; (80004ec <STM32_AES_XTS_Encrypt+0x74>)
 800049c:	2210      	movs	r2, #16
 800049e:	611a      	str	r2, [r3, #16]
  /* Initialize the operation, by passing key and Tweak */
  error_status = AES_XTS_Encrypt_Init(&AESctx, AES_Key, Tweak);
 80004a0:	6a3a      	ldr	r2, [r7, #32]
 80004a2:	6879      	ldr	r1, [r7, #4]
 80004a4:	4811      	ldr	r0, [pc, #68]	; (80004ec <STM32_AES_XTS_Encrypt+0x74>)
 80004a6:	f006 f93f 	bl	8006728 <AES_XTS_Encrypt_Init>
 80004aa:	4603      	mov	r3, r0
 80004ac:	617b      	str	r3, [r7, #20]

  /* check for initialization errors */
  if (error_status == AES_SUCCESS)
 80004ae:	697b      	ldr	r3, [r7, #20]
 80004b0:	2b00      	cmp	r3, #0
 80004b2:	d116      	bne.n	80004e2 <STM32_AES_XTS_Encrypt+0x6a>
  {
    /* Encrypt Data in XTS mode */
    error_status = AES_XTS_Encrypt_Append(&AESctx, InputMessage,
 80004b4:	68ba      	ldr	r2, [r7, #8]
 80004b6:	f107 0310 	add.w	r3, r7, #16
 80004ba:	9300      	str	r3, [sp, #0]
 80004bc:	6a7b      	ldr	r3, [r7, #36]	; 0x24
 80004be:	68f9      	ldr	r1, [r7, #12]
 80004c0:	480a      	ldr	r0, [pc, #40]	; (80004ec <STM32_AES_XTS_Encrypt+0x74>)
 80004c2:	f006 f934 	bl	800672e <AES_XTS_Encrypt_Append>
 80004c6:	4603      	mov	r3, r0
 80004c8:	617b      	str	r3, [r7, #20]
                                          InputMessageLength, OutputMessage, &outputLength);

    /* check for encryption errors in XTS mode */
    if (error_status == AES_SUCCESS)
 80004ca:	697b      	ldr	r3, [r7, #20]
 80004cc:	2b00      	cmp	r3, #0
 80004ce:	d108      	bne.n	80004e2 <STM32_AES_XTS_Encrypt+0x6a>
    {
      /* Finalize data */
      error_status = AES_XTS_Encrypt_Finish(&AESctx, OutputMessage,
 80004d0:	f107 0310 	add.w	r3, r7, #16
 80004d4:	461a      	mov	r2, r3
 80004d6:	6a79      	ldr	r1, [r7, #36]	; 0x24
 80004d8:	4804      	ldr	r0, [pc, #16]	; (80004ec <STM32_AES_XTS_Encrypt+0x74>)
 80004da:	f006 f939 	bl	8006750 <AES_XTS_Encrypt_Finish>
 80004de:	4603      	mov	r3, r0
 80004e0:	617b      	str	r3, [r7, #20]
                                            &outputLength);
    }
  }

  return error_status;
 80004e2:	697b      	ldr	r3, [r7, #20]
}
 80004e4:	4618      	mov	r0, r3
 80004e6:	3718      	adds	r7, #24
 80004e8:	46bd      	mov	sp, r7
 80004ea:	bd80      	pop	{r7, pc}
 80004ec:	2002022c 	.word	0x2002022c

080004f0 <STM32_AES_XTS_Decrypt>:
                              uint32_t   InputMessageLength,
                              const uint8_t *AES_Key,
                              uint32_t   KeyLength,
                              const uint8_t *Tweak,
                              uint8_t   *OutputMessage)
{
 80004f0:	b580      	push	{r7, lr}
 80004f2:	b088      	sub	sp, #32
 80004f4:	af02      	add	r7, sp, #8
 80004f6:	60f8      	str	r0, [r7, #12]
 80004f8:	60b9      	str	r1, [r7, #8]
 80004fa:	607a      	str	r2, [r7, #4]
 80004fc:	603b      	str	r3, [r7, #0]

  uint32_t error_status = AES_SUCCESS;
 80004fe:	2300      	movs	r3, #0
 8000500:	617b      	str	r3, [r7, #20]

  int32_t outputLength = 0;
 8000502:	2300      	movs	r3, #0
 8000504:	613b      	str	r3, [r7, #16]

  /* Set flag field to default value */
  AESctx.mFlags = E_SK_DEFAULT;
 8000506:	4b17      	ldr	r3, [pc, #92]	; (8000564 <STM32_AES_XTS_Decrypt+0x74>)
 8000508:	2200      	movs	r2, #0
 800050a:	711a      	strb	r2, [r3, #4]
  /* Set key size in AES status */
  AESctx.mKeySize = KeyLength;
 800050c:	683b      	ldr	r3, [r7, #0]
 800050e:	4a15      	ldr	r2, [pc, #84]	; (8000564 <STM32_AES_XTS_Decrypt+0x74>)
 8000510:	6253      	str	r3, [r2, #36]	; 0x24
  /* Set the Tweak size in AES status */
  AESctx.mTweakSize = CRL_AES_BLOCK;
 8000512:	4b14      	ldr	r3, [pc, #80]	; (8000564 <STM32_AES_XTS_Decrypt+0x74>)
 8000514:	2210      	movs	r2, #16
 8000516:	611a      	str	r2, [r3, #16]
  /* Initialize the operation, by passing the key and Tweak */
  error_status = AES_XTS_Decrypt_Init(&AESctx, AES_Key, Tweak);
 8000518:	6a3a      	ldr	r2, [r7, #32]
 800051a:	6879      	ldr	r1, [r7, #4]
 800051c:	4811      	ldr	r0, [pc, #68]	; (8000564 <STM32_AES_XTS_Decrypt+0x74>)
 800051e:	f006 f923 	bl	8006768 <AES_XTS_Decrypt_Init>
 8000522:	4603      	mov	r3, r0
 8000524:	617b      	str	r3, [r7, #20]

  /* check for initialization errors */
  if (error_status == AES_SUCCESS)
 8000526:	697b      	ldr	r3, [r7, #20]
 8000528:	2b00      	cmp	r3, #0
 800052a:	d116      	bne.n	800055a <STM32_AES_XTS_Decrypt+0x6a>
  {
    /* Decrypt Data in XTS mode */
    error_status = AES_XTS_Decrypt_Append(&AESctx, InputMessage,
 800052c:	68ba      	ldr	r2, [r7, #8]
 800052e:	f107 0310 	add.w	r3, r7, #16
 8000532:	9300      	str	r3, [sp, #0]
 8000534:	6a7b      	ldr	r3, [r7, #36]	; 0x24
 8000536:	68f9      	ldr	r1, [r7, #12]
 8000538:	480a      	ldr	r0, [pc, #40]	; (8000564 <STM32_AES_XTS_Decrypt+0x74>)
 800053a:	f006 f918 	bl	800676e <AES_XTS_Decrypt_Append>
 800053e:	4603      	mov	r3, r0
 8000540:	617b      	str	r3, [r7, #20]
                                          InputMessageLength, OutputMessage, &outputLength);

    /* check for decryption errors in XTS mode */
    if (error_status == AES_SUCCESS)
 8000542:	697b      	ldr	r3, [r7, #20]
 8000544:	2b00      	cmp	r3, #0
 8000546:	d108      	bne.n	800055a <STM32_AES_XTS_Decrypt+0x6a>
    {
      /* Finalize data */
      error_status = AES_XTS_Decrypt_Finish(&AESctx, OutputMessage,
 8000548:	f107 0310 	add.w	r3, r7, #16
 800054c:	461a      	mov	r2, r3
 800054e:	6a79      	ldr	r1, [r7, #36]	; 0x24
 8000550:	4804      	ldr	r0, [pc, #16]	; (8000564 <STM32_AES_XTS_Decrypt+0x74>)
 8000552:	f006 f91d 	bl	8006790 <AES_XTS_Decrypt_Finish>
 8000556:	4603      	mov	r3, r0
 8000558:	617b      	str	r3, [r7, #20]
                                            &outputLength);
    }
  }

  return error_status;
 800055a:	697b      	ldr	r3, [r7, #20]
}
 800055c:	4618      	mov	r0, r3
 800055e:	3718      	adds	r7, #24
 8000560:	46bd      	mov	sp, r7
 8000562:	bd80      	pop	{r7, pc}
 8000564:	2002022c 	.word	0x2002022c

08000568 <Buffercmp>:

TestStatus Buffercmp(const uint8_t* pBuffer, uint8_t* pBuffer1, uint16_t BufferLength)
{
 8000568:	b480      	push	{r7}
 800056a:	b085      	sub	sp, #20
 800056c:	af00      	add	r7, sp, #0
 800056e:	60f8      	str	r0, [r7, #12]
 8000570:	60b9      	str	r1, [r7, #8]
 8000572:	4613      	mov	r3, r2
 8000574:	80fb      	strh	r3, [r7, #6]
  while (BufferLength--)
 8000576:	e00d      	b.n	8000594 <Buffercmp+0x2c>
  {
    if (*pBuffer != *pBuffer1)
 8000578:	68fb      	ldr	r3, [r7, #12]
 800057a:	781a      	ldrb	r2, [r3, #0]
 800057c:	68bb      	ldr	r3, [r7, #8]
 800057e:	781b      	ldrb	r3, [r3, #0]
 8000580:	429a      	cmp	r2, r3
 8000582:	d001      	beq.n	8000588 <Buffercmp+0x20>
    {
      return FAILED;
 8000584:	2300      	movs	r3, #0
 8000586:	e00b      	b.n	80005a0 <Buffercmp+0x38>
    }

    pBuffer++;
 8000588:	68fb      	ldr	r3, [r7, #12]
 800058a:	3301      	adds	r3, #1
 800058c:	60fb      	str	r3, [r7, #12]
    pBuffer1++;
 800058e:	68bb      	ldr	r3, [r7, #8]
 8000590:	3301      	adds	r3, #1
 8000592:	60bb      	str	r3, [r7, #8]
  while (BufferLength--)
 8000594:	88fb      	ldrh	r3, [r7, #6]
 8000596:	1e5a      	subs	r2, r3, #1
 8000598:	80fa      	strh	r2, [r7, #6]
 800059a:	2b00      	cmp	r3, #0
 800059c:	d1ec      	bne.n	8000578 <Buffercmp+0x10>
  }

  return PASSED;
 800059e:	2301      	movs	r3, #1
}
 80005a0:	4618      	mov	r0, r3
 80005a2:	3714      	adds	r7, #20
 80005a4:	46bd      	mov	sp, r7
 80005a6:	f85d 7b04 	ldr.w	r7, [sp], #4
 80005aa:	4770      	bx	lr

080005ac <Error_Handler>:




void Error_Handler(void)
{
 80005ac:	b580      	push	{r7, lr}
 80005ae:	af00      	add	r7, sp, #0
  /* User may add here some code to deal with this error */
  while(1)
  {
	  blink(3000000, OFF, BLUE);
 80005b0:	2200      	movs	r2, #0
 80005b2:	2100      	movs	r1, #0
 80005b4:	4801      	ldr	r0, [pc, #4]	; (80005bc <Error_Handler+0x10>)
 80005b6:	f000 faef 	bl	8000b98 <blink>
 80005ba:	e7f9      	b.n	80005b0 <Error_Handler+0x4>
 80005bc:	002dc6c0 	.word	0x002dc6c0

080005c0 <NMI_Handler>:
  * @brief   This function handles NMI exception.
  * @param  None
  * @retval None
  */
void NMI_Handler(void)
{
 80005c0:	b480      	push	{r7}
 80005c2:	af00      	add	r7, sp, #0
}
 80005c4:	bf00      	nop
 80005c6:	46bd      	mov	sp, r7
 80005c8:	f85d 7b04 	ldr.w	r7, [sp], #4
 80005cc:	4770      	bx	lr

080005ce <HardFault_Handler>:
  * @brief  This function handles Hard Fault exception.
  * @param  None
  * @retval None
  */
void HardFault_Handler(void)
{
 80005ce:	b480      	push	{r7}
 80005d0:	af00      	add	r7, sp, #0
  /* Go to infinite loop when Hard Fault exception occurs */
  while (1)
 80005d2:	e7fe      	b.n	80005d2 <HardFault_Handler+0x4>

080005d4 <MemManage_Handler>:
  * @brief  This function handles Memory Manage exception.
  * @param  None
  * @retval None
  */
void MemManage_Handler(void)
{
 80005d4:	b480      	push	{r7}
 80005d6:	af00      	add	r7, sp, #0
  /* Go to infinite loop when Memory Manage exception occurs */
  while (1)
 80005d8:	e7fe      	b.n	80005d8 <MemManage_Handler+0x4>

080005da <BusFault_Handler>:
  * @brief  This function handles Bus Fault exception.
  * @param  None
  * @retval None
  */
void BusFault_Handler(void)
{
 80005da:	b480      	push	{r7}
 80005dc:	af00      	add	r7, sp, #0
  /* Go to infinite loop when Bus Fault exception occurs */
  while (1)
 80005de:	e7fe      	b.n	80005de <BusFault_Handler+0x4>

080005e0 <UsageFault_Handler>:
  * @brief  This function handles Usage Fault exception.
  * @param  None
  * @retval None
  */
void UsageFault_Handler(void)
{
 80005e0:	b480      	push	{r7}
 80005e2:	af00      	add	r7, sp, #0
  /* Go to infinite loop when Usage Fault exception occurs */
  while (1)
 80005e4:	e7fe      	b.n	80005e4 <UsageFault_Handler+0x4>

080005e6 <SVC_Handler>:
  * @brief  This function handles SVCall exception.
  * @param  None
  * @retval None
  */
void SVC_Handler(void)
{
 80005e6:	b480      	push	{r7}
 80005e8:	af00      	add	r7, sp, #0
}
 80005ea:	bf00      	nop
 80005ec:	46bd      	mov	sp, r7
 80005ee:	f85d 7b04 	ldr.w	r7, [sp], #4
 80005f2:	4770      	bx	lr

080005f4 <DebugMon_Handler>:
  * @brief  This function handles Debug Monitor exception.
  * @param  None
  * @retval None
  */
void DebugMon_Handler(void)
{
 80005f4:	b480      	push	{r7}
 80005f6:	af00      	add	r7, sp, #0
}
 80005f8:	bf00      	nop
 80005fa:	46bd      	mov	sp, r7
 80005fc:	f85d 7b04 	ldr.w	r7, [sp], #4
 8000600:	4770      	bx	lr

08000602 <PendSV_Handler>:
  * @brief  This function handles PendSVC exception.
  * @param  None
  * @retval None
  */
void PendSV_Handler(void)
{
 8000602:	b480      	push	{r7}
 8000604:	af00      	add	r7, sp, #0
}
 8000606:	bf00      	nop
 8000608:	46bd      	mov	sp, r7
 800060a:	f85d 7b04 	ldr.w	r7, [sp], #4
 800060e:	4770      	bx	lr

08000610 <SysTick_Handler>:
  * @brief  This function handles SysTick Handler.
  * @param  None
  * @retval None
  */
void SysTick_Handler(void)
{
 8000610:	b480      	push	{r7}
 8000612:	af00      	add	r7, sp, #0
}
 8000614:	bf00      	nop
 8000616:	46bd      	mov	sp, r7
 8000618:	f85d 7b04 	ldr.w	r7, [sp], #4
 800061c:	4770      	bx	lr
 800061e:	bf00      	nop

08000620 <main>:
#include "main.h"

u8 new_array [100];


int main () {
 8000620:	b580      	push	{r7, lr}
 8000622:	b082      	sub	sp, #8
 8000624:	af02      	add	r7, sp, #8

	HSE_Enable();
 8000626:	f000 fb5b 	bl	8000ce0 <HSE_Enable>
	UASRT_init(ON, 115200);
 800062a:	f44f 31e1 	mov.w	r1, #115200	; 0x1c200
 800062e:	2001      	movs	r0, #1
 8000630:	f000 f87a 	bl	8000728 <UASRT_init>
	indication_led_init(ON, BLUE);
 8000634:	2100      	movs	r1, #0
 8000636:	2001      	movs	r0, #1
 8000638:	f000 fa54 	bl	8000ae4 <indication_led_init>

	AES_XTSinit();
 800063c:	f7ff ff0c 	bl	8000458 <AES_XTSinit>
    //send_array(new_array, 40);


	for(ever) {

		if (flag_get_array_byte != 0) {
 8000640:	4b14      	ldr	r3, [pc, #80]	; (8000694 <main+0x74>)
 8000642:	781b      	ldrb	r3, [r3, #0]
 8000644:	2b00      	cmp	r3, #0
 8000646:	d0fb      	beq.n	8000640 <main+0x20>

			STM32_AES_XTS_Encrypt(bufferRessive, sizeof(bufferRessive), Key, CRL_AES128_KEY, SequenceNumber, temp);
 8000648:	4b13      	ldr	r3, [pc, #76]	; (8000698 <main+0x78>)
 800064a:	9301      	str	r3, [sp, #4]
 800064c:	4b13      	ldr	r3, [pc, #76]	; (800069c <main+0x7c>)
 800064e:	9300      	str	r3, [sp, #0]
 8000650:	2310      	movs	r3, #16
 8000652:	4a13      	ldr	r2, [pc, #76]	; (80006a0 <main+0x80>)
 8000654:	217c      	movs	r1, #124	; 0x7c
 8000656:	4813      	ldr	r0, [pc, #76]	; (80006a4 <main+0x84>)
 8000658:	f7ff ff0e 	bl	8000478 <STM32_AES_XTS_Encrypt>

			send_array(temp);
 800065c:	480e      	ldr	r0, [pc, #56]	; (8000698 <main+0x78>)
 800065e:	f000 f923 	bl	80008a8 <send_array>

			print_str("////////////////\n");
 8000662:	4811      	ldr	r0, [pc, #68]	; (80006a8 <main+0x88>)
 8000664:	f000 f958 	bl	8000918 <print_str>

			STM32_AES_XTS_Decrypt(temp, sizeof(temp), Key, CRL_AES128_KEY, SequenceNumber, new_array);
 8000668:	4b10      	ldr	r3, [pc, #64]	; (80006ac <main+0x8c>)
 800066a:	9301      	str	r3, [sp, #4]
 800066c:	4b0b      	ldr	r3, [pc, #44]	; (800069c <main+0x7c>)
 800066e:	9300      	str	r3, [sp, #0]
 8000670:	2310      	movs	r3, #16
 8000672:	4a0b      	ldr	r2, [pc, #44]	; (80006a0 <main+0x80>)
 8000674:	f44f 7100 	mov.w	r1, #512	; 0x200
 8000678:	4807      	ldr	r0, [pc, #28]	; (8000698 <main+0x78>)
 800067a:	f7ff ff39 	bl	80004f0 <STM32_AES_XTS_Decrypt>

			send_array(new_array);
 800067e:	480b      	ldr	r0, [pc, #44]	; (80006ac <main+0x8c>)
 8000680:	f000 f912 	bl	80008a8 <send_array>

			print_str("////////////////\n");
 8000684:	4808      	ldr	r0, [pc, #32]	; (80006a8 <main+0x88>)
 8000686:	f000 f947 	bl	8000918 <print_str>

			flag_get_array_byte = !1;
 800068a:	4b02      	ldr	r3, [pc, #8]	; (8000694 <main+0x74>)
 800068c:	2200      	movs	r2, #0
 800068e:	701a      	strb	r2, [r3, #0]
		if (flag_get_array_byte != 0) {
 8000690:	e7d6      	b.n	8000640 <main+0x20>
 8000692:	bf00      	nop
 8000694:	200205c4 	.word	0x200205c4
 8000698:	20020028 	.word	0x20020028
 800069c:	0800e9c8 	.word	0x0800e9c8
 80006a0:	0800e9e8 	.word	0x0800e9e8
 80006a4:	20020444 	.word	0x20020444
 80006a8:	0800ea08 	.word	0x0800ea08
 80006ac:	200205c8 	.word	0x200205c8

080006b0 <__NVIC_EnableIRQ>:
{
 80006b0:	b480      	push	{r7}
 80006b2:	b083      	sub	sp, #12
 80006b4:	af00      	add	r7, sp, #0
 80006b6:	4603      	mov	r3, r0
 80006b8:	71fb      	strb	r3, [r7, #7]
  if ((int32_t)(IRQn) >= 0)
 80006ba:	f997 3007 	ldrsb.w	r3, [r7, #7]
 80006be:	2b00      	cmp	r3, #0
 80006c0:	db0b      	blt.n	80006da <__NVIC_EnableIRQ+0x2a>
    NVIC->ISER[(((uint32_t)IRQn) >> 5UL)] = (uint32_t)(1UL << (((uint32_t)IRQn) & 0x1FUL));
 80006c2:	4909      	ldr	r1, [pc, #36]	; (80006e8 <__NVIC_EnableIRQ+0x38>)
 80006c4:	f997 3007 	ldrsb.w	r3, [r7, #7]
 80006c8:	095b      	lsrs	r3, r3, #5
 80006ca:	79fa      	ldrb	r2, [r7, #7]
 80006cc:	f002 021f 	and.w	r2, r2, #31
 80006d0:	2001      	movs	r0, #1
 80006d2:	fa00 f202 	lsl.w	r2, r0, r2
 80006d6:	f841 2023 	str.w	r2, [r1, r3, lsl #2]
}
 80006da:	bf00      	nop
 80006dc:	370c      	adds	r7, #12
 80006de:	46bd      	mov	sp, r7
 80006e0:	f85d 7b04 	ldr.w	r7, [sp], #4
 80006e4:	4770      	bx	lr
 80006e6:	bf00      	nop
 80006e8:	e000e100 	.word	0xe000e100

080006ec <__NVIC_ClearPendingIRQ>:
{
 80006ec:	b480      	push	{r7}
 80006ee:	b083      	sub	sp, #12
 80006f0:	af00      	add	r7, sp, #0
 80006f2:	4603      	mov	r3, r0
 80006f4:	71fb      	strb	r3, [r7, #7]
  if ((int32_t)(IRQn) >= 0)
 80006f6:	f997 3007 	ldrsb.w	r3, [r7, #7]
 80006fa:	2b00      	cmp	r3, #0
 80006fc:	db0c      	blt.n	8000718 <__NVIC_ClearPendingIRQ+0x2c>
    NVIC->ICPR[(((uint32_t)IRQn) >> 5UL)] = (uint32_t)(1UL << (((uint32_t)IRQn) & 0x1FUL));
 80006fe:	4909      	ldr	r1, [pc, #36]	; (8000724 <__NVIC_ClearPendingIRQ+0x38>)
 8000700:	f997 3007 	ldrsb.w	r3, [r7, #7]
 8000704:	095b      	lsrs	r3, r3, #5
 8000706:	79fa      	ldrb	r2, [r7, #7]
 8000708:	f002 021f 	and.w	r2, r2, #31
 800070c:	2001      	movs	r0, #1
 800070e:	fa00 f202 	lsl.w	r2, r0, r2
 8000712:	3360      	adds	r3, #96	; 0x60
 8000714:	f841 2023 	str.w	r2, [r1, r3, lsl #2]
}
 8000718:	bf00      	nop
 800071a:	370c      	adds	r7, #12
 800071c:	46bd      	mov	sp, r7
 800071e:	f85d 7b04 	ldr.w	r7, [sp], #4
 8000722:	4770      	bx	lr
 8000724:	e000e100 	.word	0xe000e100

08000728 <UASRT_init>:
#include "ulib.h"


void UASRT_init (u8 STAT, u32 boudrate) {
 8000728:	b580      	push	{r7, lr}
 800072a:	b084      	sub	sp, #16
 800072c:	af00      	add	r7, sp, #0
 800072e:	4603      	mov	r3, r0
 8000730:	6039      	str	r1, [r7, #0]
 8000732:	71fb      	strb	r3, [r7, #7]
 * none flow control
 * B15 RX
 * B14 TX
 */

	clock > 16000000 ? (RCC->DCKCFGR2   |= RCC_DCKCFGR2_USART1SEL_0) : (RCC->DCKCFGR2   &= ~RCC_DCKCFGR2_USART1SEL_0);
 8000734:	4b35      	ldr	r3, [pc, #212]	; (800080c <UASRT_init+0xe4>)
 8000736:	681b      	ldr	r3, [r3, #0]
 8000738:	4a35      	ldr	r2, [pc, #212]	; (8000810 <UASRT_init+0xe8>)
 800073a:	4293      	cmp	r3, r2
 800073c:	d908      	bls.n	8000750 <UASRT_init+0x28>
 800073e:	4a35      	ldr	r2, [pc, #212]	; (8000814 <UASRT_init+0xec>)
 8000740:	4b34      	ldr	r3, [pc, #208]	; (8000814 <UASRT_init+0xec>)
 8000742:	f8d3 3090 	ldr.w	r3, [r3, #144]	; 0x90
 8000746:	f043 0301 	orr.w	r3, r3, #1
 800074a:	f8c2 3090 	str.w	r3, [r2, #144]	; 0x90
 800074e:	e007      	b.n	8000760 <UASRT_init+0x38>
 8000750:	4a30      	ldr	r2, [pc, #192]	; (8000814 <UASRT_init+0xec>)
 8000752:	4b30      	ldr	r3, [pc, #192]	; (8000814 <UASRT_init+0xec>)
 8000754:	f8d3 3090 	ldr.w	r3, [r3, #144]	; 0x90
 8000758:	f023 0301 	bic.w	r3, r3, #1
 800075c:	f8c2 3090 	str.w	r3, [r2, #144]	; 0x90

	u32 U_BRR = clock + (boudrate >> 1);
 8000760:	683b      	ldr	r3, [r7, #0]
 8000762:	085a      	lsrs	r2, r3, #1
 8000764:	4b29      	ldr	r3, [pc, #164]	; (800080c <UASRT_init+0xe4>)
 8000766:	681b      	ldr	r3, [r3, #0]
 8000768:	4413      	add	r3, r2
 800076a:	60fb      	str	r3, [r7, #12]
	U_BRR /= boudrate;
 800076c:	68fa      	ldr	r2, [r7, #12]
 800076e:	683b      	ldr	r3, [r7, #0]
 8000770:	fbb2 f3f3 	udiv	r3, r2, r3
 8000774:	60fb      	str	r3, [r7, #12]

    RCC->AHB1ENR |= RCC_AHB1ENR_GPIOBEN | RCC_AHB1ENR_GPIODEN;
 8000776:	4a27      	ldr	r2, [pc, #156]	; (8000814 <UASRT_init+0xec>)
 8000778:	4b26      	ldr	r3, [pc, #152]	; (8000814 <UASRT_init+0xec>)
 800077a:	6b1b      	ldr	r3, [r3, #48]	; 0x30
 800077c:	f043 030a 	orr.w	r3, r3, #10
 8000780:	6313      	str	r3, [r2, #48]	; 0x30
    RCC->APB2ENR |= RCC_APB2ENR_USART1EN;
 8000782:	4a24      	ldr	r2, [pc, #144]	; (8000814 <UASRT_init+0xec>)
 8000784:	4b23      	ldr	r3, [pc, #140]	; (8000814 <UASRT_init+0xec>)
 8000786:	6c5b      	ldr	r3, [r3, #68]	; 0x44
 8000788:	f043 0310 	orr.w	r3, r3, #16
 800078c:	6453      	str	r3, [r2, #68]	; 0x44

    //b15 rx b 14 tx
    GPIOB->MODER |= GPIO_MODER_MODER14_1 | GPIO_MODER_MODER15_1;
 800078e:	4a22      	ldr	r2, [pc, #136]	; (8000818 <UASRT_init+0xf0>)
 8000790:	4b21      	ldr	r3, [pc, #132]	; (8000818 <UASRT_init+0xf0>)
 8000792:	681b      	ldr	r3, [r3, #0]
 8000794:	f043 4320 	orr.w	r3, r3, #2684354560	; 0xa0000000
 8000798:	6013      	str	r3, [r2, #0]
    GPIOB->AFR[1]|=(0x04<<(4*6));
 800079a:	4a1f      	ldr	r2, [pc, #124]	; (8000818 <UASRT_init+0xf0>)
 800079c:	4b1e      	ldr	r3, [pc, #120]	; (8000818 <UASRT_init+0xf0>)
 800079e:	6a5b      	ldr	r3, [r3, #36]	; 0x24
 80007a0:	f043 6380 	orr.w	r3, r3, #67108864	; 0x4000000
 80007a4:	6253      	str	r3, [r2, #36]	; 0x24
    GPIOB->AFR[1]|=(0x04<<(4*7));
 80007a6:	4a1c      	ldr	r2, [pc, #112]	; (8000818 <UASRT_init+0xf0>)
 80007a8:	4b1b      	ldr	r3, [pc, #108]	; (8000818 <UASRT_init+0xf0>)
 80007aa:	6a5b      	ldr	r3, [r3, #36]	; 0x24
 80007ac:	f043 4380 	orr.w	r3, r3, #1073741824	; 0x40000000
 80007b0:	6253      	str	r3, [r2, #36]	; 0x24

    USART1->BRR = U_BRR;
 80007b2:	4a1a      	ldr	r2, [pc, #104]	; (800081c <UASRT_init+0xf4>)
 80007b4:	68fb      	ldr	r3, [r7, #12]
 80007b6:	60d3      	str	r3, [r2, #12]
    USART1->CR1 |= USART_CR1_TE;
 80007b8:	4a18      	ldr	r2, [pc, #96]	; (800081c <UASRT_init+0xf4>)
 80007ba:	4b18      	ldr	r3, [pc, #96]	; (800081c <UASRT_init+0xf4>)
 80007bc:	681b      	ldr	r3, [r3, #0]
 80007be:	f043 0308 	orr.w	r3, r3, #8
 80007c2:	6013      	str	r3, [r2, #0]
    USART1->CR1 |= USART_CR1_RE;
 80007c4:	4a15      	ldr	r2, [pc, #84]	; (800081c <UASRT_init+0xf4>)
 80007c6:	4b15      	ldr	r3, [pc, #84]	; (800081c <UASRT_init+0xf4>)
 80007c8:	681b      	ldr	r3, [r3, #0]
 80007ca:	f043 0304 	orr.w	r3, r3, #4
 80007ce:	6013      	str	r3, [r2, #0]
    USART1->CR1 |= USART_CR1_RXNEIE;
 80007d0:	4a12      	ldr	r2, [pc, #72]	; (800081c <UASRT_init+0xf4>)
 80007d2:	4b12      	ldr	r3, [pc, #72]	; (800081c <UASRT_init+0xf4>)
 80007d4:	681b      	ldr	r3, [r3, #0]
 80007d6:	f043 0320 	orr.w	r3, r3, #32
 80007da:	6013      	str	r3, [r2, #0]

    STAT == ENABLE ? (USART1->CR1 |= USART_CR1_UE) : (USART1->CR1 &= ~USART_CR1_UE);                        //USART ENABLE
 80007dc:	79fb      	ldrb	r3, [r7, #7]
 80007de:	2b01      	cmp	r3, #1
 80007e0:	d106      	bne.n	80007f0 <UASRT_init+0xc8>
 80007e2:	4a0e      	ldr	r2, [pc, #56]	; (800081c <UASRT_init+0xf4>)
 80007e4:	4b0d      	ldr	r3, [pc, #52]	; (800081c <UASRT_init+0xf4>)
 80007e6:	681b      	ldr	r3, [r3, #0]
 80007e8:	f043 0301 	orr.w	r3, r3, #1
 80007ec:	6013      	str	r3, [r2, #0]
 80007ee:	e005      	b.n	80007fc <UASRT_init+0xd4>
 80007f0:	4a0a      	ldr	r2, [pc, #40]	; (800081c <UASRT_init+0xf4>)
 80007f2:	4b0a      	ldr	r3, [pc, #40]	; (800081c <UASRT_init+0xf4>)
 80007f4:	681b      	ldr	r3, [r3, #0]
 80007f6:	f023 0301 	bic.w	r3, r3, #1
 80007fa:	6013      	str	r3, [r2, #0]

    NVIC_EnableIRQ(USART1_IRQn);
 80007fc:	2025      	movs	r0, #37	; 0x25
 80007fe:	f7ff ff57 	bl	80006b0 <__NVIC_EnableIRQ>

}
 8000802:	bf00      	nop
 8000804:	3710      	adds	r7, #16
 8000806:	46bd      	mov	sp, r7
 8000808:	bd80      	pop	{r7, pc}
 800080a:	bf00      	nop
 800080c:	20020008 	.word	0x20020008
 8000810:	00f42400 	.word	0x00f42400
 8000814:	40023800 	.word	0x40023800
 8000818:	40020400 	.word	0x40020400
 800081c:	40011000 	.word	0x40011000

08000820 <USART1_IRQHandler>:

void USART1_IRQHandler(void) {
 8000820:	b580      	push	{r7, lr}
 8000822:	af00      	add	r7, sp, #0


	if ((USART1 -> RDR) == SIGMATURE_START_RECIVE_ARRAY_STRING) {
 8000824:	4b11      	ldr	r3, [pc, #68]	; (800086c <USART1_IRQHandler+0x4c>)
 8000826:	6a5b      	ldr	r3, [r3, #36]	; 0x24
 8000828:	2b7b      	cmp	r3, #123	; 0x7b
 800082a:	d103      	bne.n	8000834 <USART1_IRQHandler+0x14>


		get_array_str(str);
 800082c:	4810      	ldr	r0, [pc, #64]	; (8000870 <USART1_IRQHandler+0x50>)
 800082e:	f000 f8f5 	bl	8000a1c <get_array_str>
 8000832:	e016      	b.n	8000862 <USART1_IRQHandler+0x42>

		}

	else if ((USART1 -> RDR) == SIGNATURE_START_RECIVE_ARRAY_BYTE) {
 8000834:	4b0d      	ldr	r3, [pc, #52]	; (800086c <USART1_IRQHandler+0x4c>)
 8000836:	6a5b      	ldr	r3, [r3, #36]	; 0x24
 8000838:	2b5b      	cmp	r3, #91	; 0x5b
 800083a:	d103      	bne.n	8000844 <USART1_IRQHandler+0x24>


		get_array_byte(bufferRessive);
 800083c:	480d      	ldr	r0, [pc, #52]	; (8000874 <USART1_IRQHandler+0x54>)
 800083e:	f000 f8af 	bl	80009a0 <get_array_byte>
 8000842:	e00e      	b.n	8000862 <USART1_IRQHandler+0x42>

	}

	else {

		get_byte(bufferRessive);
 8000844:	480b      	ldr	r0, [pc, #44]	; (8000874 <USART1_IRQHandler+0x54>)
 8000846:	f000 f884 	bl	8000952 <get_byte>

		USART1 -> RQR |= USART_RQR_RXFRQ;
 800084a:	4a08      	ldr	r2, [pc, #32]	; (800086c <USART1_IRQHandler+0x4c>)
 800084c:	4b07      	ldr	r3, [pc, #28]	; (800086c <USART1_IRQHandler+0x4c>)
 800084e:	699b      	ldr	r3, [r3, #24]
 8000850:	f043 0308 	orr.w	r3, r3, #8
 8000854:	6193      	str	r3, [r2, #24]
		USART1 -> ICR |= USART_ICR_ORECF;
 8000856:	4a05      	ldr	r2, [pc, #20]	; (800086c <USART1_IRQHandler+0x4c>)
 8000858:	4b04      	ldr	r3, [pc, #16]	; (800086c <USART1_IRQHandler+0x4c>)
 800085a:	6a1b      	ldr	r3, [r3, #32]
 800085c:	f043 0308 	orr.w	r3, r3, #8
 8000860:	6213      	str	r3, [r2, #32]

	}

	NVIC_ClearPendingIRQ(USART1_IRQn);
 8000862:	2025      	movs	r0, #37	; 0x25
 8000864:	f7ff ff42 	bl	80006ec <__NVIC_ClearPendingIRQ>

}
 8000868:	bf00      	nop
 800086a:	bd80      	pop	{r7, pc}
 800086c:	40011000 	.word	0x40011000
 8000870:	200204c0 	.word	0x200204c0
 8000874:	20020444 	.word	0x20020444

08000878 <send_byte>:

///////////////////////////////////////////////////////////////////////
void send_byte (u8 data) {
 8000878:	b480      	push	{r7}
 800087a:	b083      	sub	sp, #12
 800087c:	af00      	add	r7, sp, #0
 800087e:	4603      	mov	r3, r0
 8000880:	71fb      	strb	r3, [r7, #7]

    while(!(USART1->ISR & USART_ISR_TC)){}
 8000882:	bf00      	nop
 8000884:	4b07      	ldr	r3, [pc, #28]	; (80008a4 <send_byte+0x2c>)
 8000886:	69db      	ldr	r3, [r3, #28]
 8000888:	f003 0340 	and.w	r3, r3, #64	; 0x40
 800088c:	2b00      	cmp	r3, #0
 800088e:	d0f9      	beq.n	8000884 <send_byte+0xc>
    	USART1->TDR = data;
 8000890:	4a04      	ldr	r2, [pc, #16]	; (80008a4 <send_byte+0x2c>)
 8000892:	79fb      	ldrb	r3, [r7, #7]
 8000894:	6293      	str	r3, [r2, #40]	; 0x28

}
 8000896:	bf00      	nop
 8000898:	370c      	adds	r7, #12
 800089a:	46bd      	mov	sp, r7
 800089c:	f85d 7b04 	ldr.w	r7, [sp], #4
 80008a0:	4770      	bx	lr
 80008a2:	bf00      	nop
 80008a4:	40011000 	.word	0x40011000

080008a8 <send_array>:

void send_array (volatile u8* array) {
 80008a8:	b580      	push	{r7, lr}
 80008aa:	b084      	sub	sp, #16
 80008ac:	af00      	add	r7, sp, #0
 80008ae:	6078      	str	r0, [r7, #4]

	u16 counte = 0;
 80008b0:	2300      	movs	r3, #0
 80008b2:	81fb      	strh	r3, [r7, #14]

	while (array[counte]) {
 80008b4:	e00a      	b.n	80008cc <send_array+0x24>

		send_byte(array[counte++]);
 80008b6:	89fb      	ldrh	r3, [r7, #14]
 80008b8:	1c5a      	adds	r2, r3, #1
 80008ba:	81fa      	strh	r2, [r7, #14]
 80008bc:	461a      	mov	r2, r3
 80008be:	687b      	ldr	r3, [r7, #4]
 80008c0:	4413      	add	r3, r2
 80008c2:	781b      	ldrb	r3, [r3, #0]
 80008c4:	b2db      	uxtb	r3, r3
 80008c6:	4618      	mov	r0, r3
 80008c8:	f7ff ffd6 	bl	8000878 <send_byte>
	while (array[counte]) {
 80008cc:	89fb      	ldrh	r3, [r7, #14]
 80008ce:	687a      	ldr	r2, [r7, #4]
 80008d0:	4413      	add	r3, r2
 80008d2:	781b      	ldrb	r3, [r3, #0]
 80008d4:	b2db      	uxtb	r3, r3
 80008d6:	2b00      	cmp	r3, #0
 80008d8:	d1ed      	bne.n	80008b6 <send_array+0xe>

	}

}
 80008da:	bf00      	nop
 80008dc:	3710      	adds	r7, #16
 80008de:	46bd      	mov	sp, r7
 80008e0:	bd80      	pop	{r7, pc}

080008e2 <send_array_byte>:

void send_array_byte (u8* array, u16 Length) {
 80008e2:	b580      	push	{r7, lr}
 80008e4:	b084      	sub	sp, #16
 80008e6:	af00      	add	r7, sp, #0
 80008e8:	6078      	str	r0, [r7, #4]
 80008ea:	460b      	mov	r3, r1
 80008ec:	807b      	strh	r3, [r7, #2]

	for (u16 p = 0; p < Length; p ++) {
 80008ee:	2300      	movs	r3, #0
 80008f0:	81fb      	strh	r3, [r7, #14]
 80008f2:	e009      	b.n	8000908 <send_array_byte+0x26>

		send_byte(array[p]);
 80008f4:	89fb      	ldrh	r3, [r7, #14]
 80008f6:	687a      	ldr	r2, [r7, #4]
 80008f8:	4413      	add	r3, r2
 80008fa:	781b      	ldrb	r3, [r3, #0]
 80008fc:	4618      	mov	r0, r3
 80008fe:	f7ff ffbb 	bl	8000878 <send_byte>
	for (u16 p = 0; p < Length; p ++) {
 8000902:	89fb      	ldrh	r3, [r7, #14]
 8000904:	3301      	adds	r3, #1
 8000906:	81fb      	strh	r3, [r7, #14]
 8000908:	89fa      	ldrh	r2, [r7, #14]
 800090a:	887b      	ldrh	r3, [r7, #2]
 800090c:	429a      	cmp	r2, r3
 800090e:	d3f1      	bcc.n	80008f4 <send_array_byte+0x12>

	}

}
 8000910:	bf00      	nop
 8000912:	3710      	adds	r7, #16
 8000914:	46bd      	mov	sp, r7
 8000916:	bd80      	pop	{r7, pc}

08000918 <print_str>:

void print_str (volatile char* str) {
 8000918:	b580      	push	{r7, lr}
 800091a:	b084      	sub	sp, #16
 800091c:	af00      	add	r7, sp, #0
 800091e:	6078      	str	r0, [r7, #4]

	u16 counte = 0;
 8000920:	2300      	movs	r3, #0
 8000922:	81fb      	strh	r3, [r7, #14]

	while (str[counte]) {
 8000924:	e00a      	b.n	800093c <print_str+0x24>

		send_byte(str[counte++]);
 8000926:	89fb      	ldrh	r3, [r7, #14]
 8000928:	1c5a      	adds	r2, r3, #1
 800092a:	81fa      	strh	r2, [r7, #14]
 800092c:	461a      	mov	r2, r3
 800092e:	687b      	ldr	r3, [r7, #4]
 8000930:	4413      	add	r3, r2
 8000932:	781b      	ldrb	r3, [r3, #0]
 8000934:	b2db      	uxtb	r3, r3
 8000936:	4618      	mov	r0, r3
 8000938:	f7ff ff9e 	bl	8000878 <send_byte>
	while (str[counte]) {
 800093c:	89fb      	ldrh	r3, [r7, #14]
 800093e:	687a      	ldr	r2, [r7, #4]
 8000940:	4413      	add	r3, r2
 8000942:	781b      	ldrb	r3, [r3, #0]
 8000944:	b2db      	uxtb	r3, r3
 8000946:	2b00      	cmp	r3, #0
 8000948:	d1ed      	bne.n	8000926 <print_str+0xe>

	}

}
 800094a:	bf00      	nop
 800094c:	3710      	adds	r7, #16
 800094e:	46bd      	mov	sp, r7
 8000950:	bd80      	pop	{r7, pc}

08000952 <get_byte>:

void get_byte(volatile u8* array) {
 8000952:	b480      	push	{r7}
 8000954:	b083      	sub	sp, #12
 8000956:	af00      	add	r7, sp, #0
 8000958:	6078      	str	r0, [r7, #4]

    array[addres++] = USART1 -> RDR;
 800095a:	4b0e      	ldr	r3, [pc, #56]	; (8000994 <get_byte+0x42>)
 800095c:	781b      	ldrb	r3, [r3, #0]
 800095e:	b2db      	uxtb	r3, r3
 8000960:	1c5a      	adds	r2, r3, #1
 8000962:	b2d1      	uxtb	r1, r2
 8000964:	4a0b      	ldr	r2, [pc, #44]	; (8000994 <get_byte+0x42>)
 8000966:	7011      	strb	r1, [r2, #0]
 8000968:	461a      	mov	r2, r3
 800096a:	687b      	ldr	r3, [r7, #4]
 800096c:	4413      	add	r3, r2
 800096e:	4a0a      	ldr	r2, [pc, #40]	; (8000998 <get_byte+0x46>)
 8000970:	6a52      	ldr	r2, [r2, #36]	; 0x24
 8000972:	b2d2      	uxtb	r2, r2
 8000974:	701a      	strb	r2, [r3, #0]

    USART1 -> RQR |= USART_RQR_RXFRQ;
 8000976:	4a08      	ldr	r2, [pc, #32]	; (8000998 <get_byte+0x46>)
 8000978:	4b07      	ldr	r3, [pc, #28]	; (8000998 <get_byte+0x46>)
 800097a:	699b      	ldr	r3, [r3, #24]
 800097c:	f043 0308 	orr.w	r3, r3, #8
 8000980:	6193      	str	r3, [r2, #24]

   flag_get_byte = 1;
 8000982:	4b06      	ldr	r3, [pc, #24]	; (800099c <get_byte+0x4a>)
 8000984:	2201      	movs	r2, #1
 8000986:	701a      	strb	r2, [r3, #0]

}
 8000988:	bf00      	nop
 800098a:	370c      	adds	r7, #12
 800098c:	46bd      	mov	sp, r7
 800098e:	f85d 7b04 	ldr.w	r7, [sp], #4
 8000992:	4770      	bx	lr
 8000994:	20020437 	.word	0x20020437
 8000998:	40011000 	.word	0x40011000
 800099c:	20020434 	.word	0x20020434

080009a0 <get_array_byte>:

void get_array_byte (volatile u8* array) {
 80009a0:	b480      	push	{r7}
 80009a2:	b085      	sub	sp, #20
 80009a4:	af00      	add	r7, sp, #0
 80009a6:	6078      	str	r0, [r7, #4]

	u8 tmpChar = 0;
 80009a8:	2300      	movs	r3, #0
 80009aa:	73fb      	strb	r3, [r7, #15]
	u16 q = 0;
 80009ac:	2300      	movs	r3, #0
 80009ae:	81bb      	strh	r3, [r7, #12]

	do {

		if ((USART1->ISR & USART_ISR_RXNE) != 0) {
 80009b0:	4b18      	ldr	r3, [pc, #96]	; (8000a14 <get_array_byte+0x74>)
 80009b2:	69db      	ldr	r3, [r3, #28]
 80009b4:	f003 0320 	and.w	r3, r3, #32
 80009b8:	2b00      	cmp	r3, #0
 80009ba:	d016      	beq.n	80009ea <get_array_byte+0x4a>

			tmpChar = USART1 -> RDR;
 80009bc:	4b15      	ldr	r3, [pc, #84]	; (8000a14 <get_array_byte+0x74>)
 80009be:	6a5b      	ldr	r3, [r3, #36]	; 0x24
 80009c0:	73fb      	strb	r3, [r7, #15]
			array[q++] = tmpChar;
 80009c2:	89bb      	ldrh	r3, [r7, #12]
 80009c4:	1c5a      	adds	r2, r3, #1
 80009c6:	81ba      	strh	r2, [r7, #12]
 80009c8:	461a      	mov	r2, r3
 80009ca:	687b      	ldr	r3, [r7, #4]
 80009cc:	4413      	add	r3, r2
 80009ce:	7bfa      	ldrb	r2, [r7, #15]
 80009d0:	701a      	strb	r2, [r3, #0]

			USART1 -> RQR |= USART_RQR_RXFRQ;
 80009d2:	4a10      	ldr	r2, [pc, #64]	; (8000a14 <get_array_byte+0x74>)
 80009d4:	4b0f      	ldr	r3, [pc, #60]	; (8000a14 <get_array_byte+0x74>)
 80009d6:	699b      	ldr	r3, [r3, #24]
 80009d8:	f043 0308 	orr.w	r3, r3, #8
 80009dc:	6193      	str	r3, [r2, #24]
			USART1 -> ICR |= USART_ICR_ORECF;
 80009de:	4a0d      	ldr	r2, [pc, #52]	; (8000a14 <get_array_byte+0x74>)
 80009e0:	4b0c      	ldr	r3, [pc, #48]	; (8000a14 <get_array_byte+0x74>)
 80009e2:	6a1b      	ldr	r3, [r3, #32]
 80009e4:	f043 0308 	orr.w	r3, r3, #8
 80009e8:	6213      	str	r3, [r2, #32]

		}
	}

	while (tmpChar != SIGNATURE_END_RECIVE_ARRAY_BYTE);
 80009ea:	7bfb      	ldrb	r3, [r7, #15]
 80009ec:	2b5d      	cmp	r3, #93	; 0x5d
 80009ee:	d1df      	bne.n	80009b0 <get_array_byte+0x10>

	array[--q] = 0;
 80009f0:	89bb      	ldrh	r3, [r7, #12]
 80009f2:	3b01      	subs	r3, #1
 80009f4:	81bb      	strh	r3, [r7, #12]
 80009f6:	89bb      	ldrh	r3, [r7, #12]
 80009f8:	687a      	ldr	r2, [r7, #4]
 80009fa:	4413      	add	r3, r2
 80009fc:	2200      	movs	r2, #0
 80009fe:	701a      	strb	r2, [r3, #0]
	flag_get_array_byte = 1;
 8000a00:	4b05      	ldr	r3, [pc, #20]	; (8000a18 <get_array_byte+0x78>)
 8000a02:	2201      	movs	r2, #1
 8000a04:	701a      	strb	r2, [r3, #0]
	//send_array(array);


}
 8000a06:	bf00      	nop
 8000a08:	3714      	adds	r7, #20
 8000a0a:	46bd      	mov	sp, r7
 8000a0c:	f85d 7b04 	ldr.w	r7, [sp], #4
 8000a10:	4770      	bx	lr
 8000a12:	bf00      	nop
 8000a14:	40011000 	.word	0x40011000
 8000a18:	200205c4 	.word	0x200205c4

08000a1c <get_array_str>:

void get_array_str (volatile char* array) {
 8000a1c:	b580      	push	{r7, lr}
 8000a1e:	b084      	sub	sp, #16
 8000a20:	af00      	add	r7, sp, #0
 8000a22:	6078      	str	r0, [r7, #4]

	char tmpChar = 0;
 8000a24:	2300      	movs	r3, #0
 8000a26:	73fb      	strb	r3, [r7, #15]
	u16 q = 0;
 8000a28:	2300      	movs	r3, #0
 8000a2a:	81bb      	strh	r3, [r7, #12]

	do {

		if ((USART1->ISR & USART_ISR_RXNE) != 0) {
 8000a2c:	4b18      	ldr	r3, [pc, #96]	; (8000a90 <get_array_str+0x74>)
 8000a2e:	69db      	ldr	r3, [r3, #28]
 8000a30:	f003 0320 	and.w	r3, r3, #32
 8000a34:	2b00      	cmp	r3, #0
 8000a36:	d016      	beq.n	8000a66 <get_array_str+0x4a>

			tmpChar = USART1 -> RDR;
 8000a38:	4b15      	ldr	r3, [pc, #84]	; (8000a90 <get_array_str+0x74>)
 8000a3a:	6a5b      	ldr	r3, [r3, #36]	; 0x24
 8000a3c:	73fb      	strb	r3, [r7, #15]
			array[q++] = tmpChar;
 8000a3e:	89bb      	ldrh	r3, [r7, #12]
 8000a40:	1c5a      	adds	r2, r3, #1
 8000a42:	81ba      	strh	r2, [r7, #12]
 8000a44:	461a      	mov	r2, r3
 8000a46:	687b      	ldr	r3, [r7, #4]
 8000a48:	4413      	add	r3, r2
 8000a4a:	7bfa      	ldrb	r2, [r7, #15]
 8000a4c:	701a      	strb	r2, [r3, #0]

			USART1 -> RQR |= USART_RQR_RXFRQ;
 8000a4e:	4a10      	ldr	r2, [pc, #64]	; (8000a90 <get_array_str+0x74>)
 8000a50:	4b0f      	ldr	r3, [pc, #60]	; (8000a90 <get_array_str+0x74>)
 8000a52:	699b      	ldr	r3, [r3, #24]
 8000a54:	f043 0308 	orr.w	r3, r3, #8
 8000a58:	6193      	str	r3, [r2, #24]
			USART1 -> ICR |= USART_ICR_ORECF;
 8000a5a:	4a0d      	ldr	r2, [pc, #52]	; (8000a90 <get_array_str+0x74>)
 8000a5c:	4b0c      	ldr	r3, [pc, #48]	; (8000a90 <get_array_str+0x74>)
 8000a5e:	6a1b      	ldr	r3, [r3, #32]
 8000a60:	f043 0308 	orr.w	r3, r3, #8
 8000a64:	6213      	str	r3, [r2, #32]

		}
	}

	while (tmpChar != SIGNATURE_END_RECIVE_ARRAY_STRING);
 8000a66:	7bfb      	ldrb	r3, [r7, #15]
 8000a68:	2b7d      	cmp	r3, #125	; 0x7d
 8000a6a:	d1df      	bne.n	8000a2c <get_array_str+0x10>

	array[--q] = 0;
 8000a6c:	89bb      	ldrh	r3, [r7, #12]
 8000a6e:	3b01      	subs	r3, #1
 8000a70:	81bb      	strh	r3, [r7, #12]
 8000a72:	89bb      	ldrh	r3, [r7, #12]
 8000a74:	687a      	ldr	r2, [r7, #4]
 8000a76:	4413      	add	r3, r2
 8000a78:	2200      	movs	r2, #0
 8000a7a:	701a      	strb	r2, [r3, #0]
	flag_get_array_string = 1;
 8000a7c:	4b05      	ldr	r3, [pc, #20]	; (8000a94 <get_array_str+0x78>)
 8000a7e:	2201      	movs	r2, #1
 8000a80:	701a      	strb	r2, [r3, #0]
	print_str(array);
 8000a82:	6878      	ldr	r0, [r7, #4]
 8000a84:	f7ff ff48 	bl	8000918 <print_str>

}
 8000a88:	bf00      	nop
 8000a8a:	3710      	adds	r7, #16
 8000a8c:	46bd      	mov	sp, r7
 8000a8e:	bd80      	pop	{r7, pc}
 8000a90:	40011000 	.word	0x40011000
 8000a94:	200205c5 	.word	0x200205c5

08000a98 <Connect_to_PC>:

///////////////////////////////////////////////////////////////////////
void Connect_to_PC (void) {
 8000a98:	b580      	push	{r7, lr}
 8000a9a:	b082      	sub	sp, #8
 8000a9c:	af00      	add	r7, sp, #0

	do {

		send_byte(SIGNATURE_TO_CONNECTION);
 8000a9e:	205e      	movs	r0, #94	; 0x5e
 8000aa0:	f7ff feea 	bl	8000878 <send_byte>

		delay(120000);
 8000aa4:	480c      	ldr	r0, [pc, #48]	; (8000ad8 <Connect_to_PC+0x40>)
 8000aa6:	f000 f909 	bl	8000cbc <delay>

	}

	while(bufferRessive[addres] != SIGNATURE_END_SEARCH);
 8000aaa:	4b0c      	ldr	r3, [pc, #48]	; (8000adc <Connect_to_PC+0x44>)
 8000aac:	781b      	ldrb	r3, [r3, #0]
 8000aae:	b2db      	uxtb	r3, r3
 8000ab0:	461a      	mov	r2, r3
 8000ab2:	4b0b      	ldr	r3, [pc, #44]	; (8000ae0 <Connect_to_PC+0x48>)
 8000ab4:	5c9b      	ldrb	r3, [r3, r2]
 8000ab6:	2b5f      	cmp	r3, #95	; 0x5f
 8000ab8:	d1f1      	bne.n	8000a9e <Connect_to_PC+0x6>

		for(u8 r; r < 5; r++ ) {
 8000aba:	e005      	b.n	8000ac8 <Connect_to_PC+0x30>

			send_byte(SIGNATURE_CONFIRM_CONNECTION);
 8000abc:	207e      	movs	r0, #126	; 0x7e
 8000abe:	f7ff fedb 	bl	8000878 <send_byte>
		for(u8 r; r < 5; r++ ) {
 8000ac2:	79fb      	ldrb	r3, [r7, #7]
 8000ac4:	3301      	adds	r3, #1
 8000ac6:	71fb      	strb	r3, [r7, #7]
 8000ac8:	79fb      	ldrb	r3, [r7, #7]
 8000aca:	2b04      	cmp	r3, #4
 8000acc:	d9f6      	bls.n	8000abc <Connect_to_PC+0x24>

		}

}
 8000ace:	bf00      	nop
 8000ad0:	3708      	adds	r7, #8
 8000ad2:	46bd      	mov	sp, r7
 8000ad4:	bd80      	pop	{r7, pc}
 8000ad6:	bf00      	nop
 8000ad8:	0001d4c0 	.word	0x0001d4c0
 8000adc:	20020437 	.word	0x20020437
 8000ae0:	20020444 	.word	0x20020444

08000ae4 <indication_led_init>:

void indication_led_init (u8 STAT, u8 LED) {
 8000ae4:	b480      	push	{r7}
 8000ae6:	b083      	sub	sp, #12
 8000ae8:	af00      	add	r7, sp, #0
 8000aea:	4603      	mov	r3, r0
 8000aec:	460a      	mov	r2, r1
 8000aee:	71fb      	strb	r3, [r7, #7]
 8000af0:	4613      	mov	r3, r2
 8000af2:	71bb      	strb	r3, [r7, #6]
 standart macro function
 * *indicationLedInit enable B7 Blue LED
 * 							 B14 Red LED (don't use as USART1)
 */

	if (STAT == ENABLE && LED == BLUE) {
 8000af4:	79fb      	ldrb	r3, [r7, #7]
 8000af6:	2b01      	cmp	r3, #1
 8000af8:	d118      	bne.n	8000b2c <indication_led_init+0x48>
 8000afa:	79bb      	ldrb	r3, [r7, #6]
 8000afc:	2b00      	cmp	r3, #0
 8000afe:	d115      	bne.n	8000b2c <indication_led_init+0x48>

		RCC->AHB1ENR |= RCC_AHB1ENR_GPIOBEN;                    //clock GPIOB enable
 8000b00:	4a22      	ldr	r2, [pc, #136]	; (8000b8c <indication_led_init+0xa8>)
 8000b02:	4b22      	ldr	r3, [pc, #136]	; (8000b8c <indication_led_init+0xa8>)
 8000b04:	6b1b      	ldr	r3, [r3, #48]	; 0x30
 8000b06:	f043 0302 	orr.w	r3, r3, #2
 8000b0a:	6313      	str	r3, [r2, #48]	; 0x30

		GPIOB->MODER   |= GPIO_MODER_MODER7_0;                  //output push pull
 8000b0c:	4a20      	ldr	r2, [pc, #128]	; (8000b90 <indication_led_init+0xac>)
 8000b0e:	4b20      	ldr	r3, [pc, #128]	; (8000b90 <indication_led_init+0xac>)
 8000b10:	681b      	ldr	r3, [r3, #0]
 8000b12:	f443 4380 	orr.w	r3, r3, #16384	; 0x4000
 8000b16:	6013      	str	r3, [r2, #0]
		GPIOB->OSPEEDR |= GPIO_OSPEEDER_OSPEEDR7_1;             //max speed
 8000b18:	4a1d      	ldr	r2, [pc, #116]	; (8000b90 <indication_led_init+0xac>)
 8000b1a:	4b1d      	ldr	r3, [pc, #116]	; (8000b90 <indication_led_init+0xac>)
 8000b1c:	689b      	ldr	r3, [r3, #8]
 8000b1e:	f443 4300 	orr.w	r3, r3, #32768	; 0x8000
 8000b22:	6093      	str	r3, [r2, #8]

		flag_led_init = 1;
 8000b24:	4b1b      	ldr	r3, [pc, #108]	; (8000b94 <indication_led_init+0xb0>)
 8000b26:	2201      	movs	r2, #1
 8000b28:	701a      	strb	r2, [r3, #0]
 8000b2a:	e028      	b.n	8000b7e <indication_led_init+0x9a>

	}
	else if (STAT == ENABLE && LED == RED) {
 8000b2c:	79fb      	ldrb	r3, [r7, #7]
 8000b2e:	2b01      	cmp	r3, #1
 8000b30:	d118      	bne.n	8000b64 <indication_led_init+0x80>
 8000b32:	79bb      	ldrb	r3, [r7, #6]
 8000b34:	2b01      	cmp	r3, #1
 8000b36:	d115      	bne.n	8000b64 <indication_led_init+0x80>

		RCC->AHB1ENR |= RCC_AHB1ENR_GPIOBEN;                     //clock GPIOB enable
 8000b38:	4a14      	ldr	r2, [pc, #80]	; (8000b8c <indication_led_init+0xa8>)
 8000b3a:	4b14      	ldr	r3, [pc, #80]	; (8000b8c <indication_led_init+0xa8>)
 8000b3c:	6b1b      	ldr	r3, [r3, #48]	; 0x30
 8000b3e:	f043 0302 	orr.w	r3, r3, #2
 8000b42:	6313      	str	r3, [r2, #48]	; 0x30

		GPIOB->MODER   |= GPIO_MODER_MODER14_0;                  //output push pull
 8000b44:	4a12      	ldr	r2, [pc, #72]	; (8000b90 <indication_led_init+0xac>)
 8000b46:	4b12      	ldr	r3, [pc, #72]	; (8000b90 <indication_led_init+0xac>)
 8000b48:	681b      	ldr	r3, [r3, #0]
 8000b4a:	f043 5380 	orr.w	r3, r3, #268435456	; 0x10000000
 8000b4e:	6013      	str	r3, [r2, #0]
		GPIOB->OSPEEDR |= GPIO_OSPEEDER_OSPEEDR14_1;             //max speed
 8000b50:	4a0f      	ldr	r2, [pc, #60]	; (8000b90 <indication_led_init+0xac>)
 8000b52:	4b0f      	ldr	r3, [pc, #60]	; (8000b90 <indication_led_init+0xac>)
 8000b54:	689b      	ldr	r3, [r3, #8]
 8000b56:	f043 5300 	orr.w	r3, r3, #536870912	; 0x20000000
 8000b5a:	6093      	str	r3, [r2, #8]

		flag_led_init = 1;
 8000b5c:	4b0d      	ldr	r3, [pc, #52]	; (8000b94 <indication_led_init+0xb0>)
 8000b5e:	2201      	movs	r2, #1
 8000b60:	701a      	strb	r2, [r3, #0]
 8000b62:	e00c      	b.n	8000b7e <indication_led_init+0x9a>

	}
	else if (STAT == DISABLE) {
 8000b64:	79fb      	ldrb	r3, [r7, #7]
 8000b66:	2b00      	cmp	r3, #0
 8000b68:	d109      	bne.n	8000b7e <indication_led_init+0x9a>

		RCC -> AHB1ENR &= ~RCC_AHB1ENR_GPIOBEN;
 8000b6a:	4a08      	ldr	r2, [pc, #32]	; (8000b8c <indication_led_init+0xa8>)
 8000b6c:	4b07      	ldr	r3, [pc, #28]	; (8000b8c <indication_led_init+0xa8>)
 8000b6e:	6b1b      	ldr	r3, [r3, #48]	; 0x30
 8000b70:	f023 0302 	bic.w	r3, r3, #2
 8000b74:	6313      	str	r3, [r2, #48]	; 0x30

		flag_led_init = 0;
 8000b76:	4b07      	ldr	r3, [pc, #28]	; (8000b94 <indication_led_init+0xb0>)
 8000b78:	2200      	movs	r2, #0
 8000b7a:	701a      	strb	r2, [r3, #0]

	}
}
 8000b7c:	e7ff      	b.n	8000b7e <indication_led_init+0x9a>
 8000b7e:	bf00      	nop
 8000b80:	370c      	adds	r7, #12
 8000b82:	46bd      	mov	sp, r7
 8000b84:	f85d 7b04 	ldr.w	r7, [sp], #4
 8000b88:	4770      	bx	lr
 8000b8a:	bf00      	nop
 8000b8c:	40023800 	.word	0x40023800
 8000b90:	40020400 	.word	0x40020400
 8000b94:	20020435 	.word	0x20020435

08000b98 <blink>:

void blink (u32 duty, u8 STAT, u8 LED) {
 8000b98:	b580      	push	{r7, lr}
 8000b9a:	b082      	sub	sp, #8
 8000b9c:	af00      	add	r7, sp, #0
 8000b9e:	6078      	str	r0, [r7, #4]
 8000ba0:	460b      	mov	r3, r1
 8000ba2:	70fb      	strb	r3, [r7, #3]
 8000ba4:	4613      	mov	r3, r2
 8000ba6:	70bb      	strb	r3, [r7, #2]

	if (flag_led_init != 0) {
 8000ba8:	4b41      	ldr	r3, [pc, #260]	; (8000cb0 <blink+0x118>)
 8000baa:	781b      	ldrb	r3, [r3, #0]
 8000bac:	2b00      	cmp	r3, #0
 8000bae:	d07b      	beq.n	8000ca8 <blink+0x110>

		if (STAT == ON && duty == 0) {
 8000bb0:	78fb      	ldrb	r3, [r7, #3]
 8000bb2:	2b01      	cmp	r3, #1
 8000bb4:	d116      	bne.n	8000be4 <blink+0x4c>
 8000bb6:	687b      	ldr	r3, [r7, #4]
 8000bb8:	2b00      	cmp	r3, #0
 8000bba:	d113      	bne.n	8000be4 <blink+0x4c>

			if (LED == BLUE) {
 8000bbc:	78bb      	ldrb	r3, [r7, #2]
 8000bbe:	2b00      	cmp	r3, #0
 8000bc0:	d106      	bne.n	8000bd0 <blink+0x38>

				GPIOB -> BSRR |= GPIO_BSRR_BS_7;
 8000bc2:	4a3c      	ldr	r2, [pc, #240]	; (8000cb4 <blink+0x11c>)
 8000bc4:	4b3b      	ldr	r3, [pc, #236]	; (8000cb4 <blink+0x11c>)
 8000bc6:	699b      	ldr	r3, [r3, #24]
 8000bc8:	f043 0380 	orr.w	r3, r3, #128	; 0x80
 8000bcc:	6193      	str	r3, [r2, #24]
			if (LED == BLUE) {
 8000bce:	e066      	b.n	8000c9e <blink+0x106>

			}
			else if (LED == RED) {
 8000bd0:	78bb      	ldrb	r3, [r7, #2]
 8000bd2:	2b01      	cmp	r3, #1
 8000bd4:	d163      	bne.n	8000c9e <blink+0x106>

				GPIOB -> BSRR |= GPIO_BSRR_BS_14;
 8000bd6:	4a37      	ldr	r2, [pc, #220]	; (8000cb4 <blink+0x11c>)
 8000bd8:	4b36      	ldr	r3, [pc, #216]	; (8000cb4 <blink+0x11c>)
 8000bda:	699b      	ldr	r3, [r3, #24]
 8000bdc:	f443 4380 	orr.w	r3, r3, #16384	; 0x4000
 8000be0:	6193      	str	r3, [r2, #24]
			if (LED == BLUE) {
 8000be2:	e05c      	b.n	8000c9e <blink+0x106>

			}

		}
		else if (STAT == OFF && duty == 0) {
 8000be4:	78fb      	ldrb	r3, [r7, #3]
 8000be6:	2b00      	cmp	r3, #0
 8000be8:	d116      	bne.n	8000c18 <blink+0x80>
 8000bea:	687b      	ldr	r3, [r7, #4]
 8000bec:	2b00      	cmp	r3, #0
 8000bee:	d113      	bne.n	8000c18 <blink+0x80>

			if (LED == BLUE) {
 8000bf0:	78bb      	ldrb	r3, [r7, #2]
 8000bf2:	2b00      	cmp	r3, #0
 8000bf4:	d106      	bne.n	8000c04 <blink+0x6c>

				GPIOB -> BSRR |= GPIO_BSRR_BR_7;
 8000bf6:	4a2f      	ldr	r2, [pc, #188]	; (8000cb4 <blink+0x11c>)
 8000bf8:	4b2e      	ldr	r3, [pc, #184]	; (8000cb4 <blink+0x11c>)
 8000bfa:	699b      	ldr	r3, [r3, #24]
 8000bfc:	f443 0300 	orr.w	r3, r3, #8388608	; 0x800000
 8000c00:	6193      	str	r3, [r2, #24]
			if (LED == BLUE) {
 8000c02:	e04e      	b.n	8000ca2 <blink+0x10a>

			}
			else if (LED == RED) {
 8000c04:	78bb      	ldrb	r3, [r7, #2]
 8000c06:	2b01      	cmp	r3, #1
 8000c08:	d14b      	bne.n	8000ca2 <blink+0x10a>

				GPIOB -> BSRR |= GPIO_BSRR_BR_14;
 8000c0a:	4a2a      	ldr	r2, [pc, #168]	; (8000cb4 <blink+0x11c>)
 8000c0c:	4b29      	ldr	r3, [pc, #164]	; (8000cb4 <blink+0x11c>)
 8000c0e:	699b      	ldr	r3, [r3, #24]
 8000c10:	f043 4380 	orr.w	r3, r3, #1073741824	; 0x40000000
 8000c14:	6193      	str	r3, [r2, #24]
			if (LED == BLUE) {
 8000c16:	e044      	b.n	8000ca2 <blink+0x10a>

			}
		}
		else if (STAT == ON && duty != 0) {
 8000c18:	78fb      	ldrb	r3, [r7, #3]
 8000c1a:	2b01      	cmp	r3, #1
 8000c1c:	d102      	bne.n	8000c24 <blink+0x8c>
 8000c1e:	687b      	ldr	r3, [r7, #4]
 8000c20:	2b00      	cmp	r3, #0
 8000c22:	d141      	bne.n	8000ca8 <blink+0x110>

			//print("ONOFF == ENABLE && duty != 0");

		}
		else if (STAT == OFF && duty != 0) {
 8000c24:	78fb      	ldrb	r3, [r7, #3]
 8000c26:	2b00      	cmp	r3, #0
 8000c28:	d12e      	bne.n	8000c88 <blink+0xf0>
 8000c2a:	687b      	ldr	r3, [r7, #4]
 8000c2c:	2b00      	cmp	r3, #0
 8000c2e:	d02b      	beq.n	8000c88 <blink+0xf0>

			if (LED == BLUE) {
 8000c30:	78bb      	ldrb	r3, [r7, #2]
 8000c32:	2b00      	cmp	r3, #0
 8000c34:	d112      	bne.n	8000c5c <blink+0xc4>

				GPIOB -> ODR ^= GPIO_ODR_ODR_7;
 8000c36:	4a1f      	ldr	r2, [pc, #124]	; (8000cb4 <blink+0x11c>)
 8000c38:	4b1e      	ldr	r3, [pc, #120]	; (8000cb4 <blink+0x11c>)
 8000c3a:	695b      	ldr	r3, [r3, #20]
 8000c3c:	f083 0380 	eor.w	r3, r3, #128	; 0x80
 8000c40:	6153      	str	r3, [r2, #20]
				delay(duty);
 8000c42:	6878      	ldr	r0, [r7, #4]
 8000c44:	f000 f83a 	bl	8000cbc <delay>
				GPIOB -> ODR ^= GPIO_ODR_ODR_7;
 8000c48:	4a1a      	ldr	r2, [pc, #104]	; (8000cb4 <blink+0x11c>)
 8000c4a:	4b1a      	ldr	r3, [pc, #104]	; (8000cb4 <blink+0x11c>)
 8000c4c:	695b      	ldr	r3, [r3, #20]
 8000c4e:	f083 0380 	eor.w	r3, r3, #128	; 0x80
 8000c52:	6153      	str	r3, [r2, #20]
				delay(duty);
 8000c54:	6878      	ldr	r0, [r7, #4]
 8000c56:	f000 f831 	bl	8000cbc <delay>
			if (LED == BLUE) {
 8000c5a:	e024      	b.n	8000ca6 <blink+0x10e>

			}
			else if (LED == RED) {
 8000c5c:	78bb      	ldrb	r3, [r7, #2]
 8000c5e:	2b01      	cmp	r3, #1
 8000c60:	d121      	bne.n	8000ca6 <blink+0x10e>

				GPIOB -> ODR ^= GPIO_ODR_ODR_14;
 8000c62:	4a14      	ldr	r2, [pc, #80]	; (8000cb4 <blink+0x11c>)
 8000c64:	4b13      	ldr	r3, [pc, #76]	; (8000cb4 <blink+0x11c>)
 8000c66:	695b      	ldr	r3, [r3, #20]
 8000c68:	f483 4380 	eor.w	r3, r3, #16384	; 0x4000
 8000c6c:	6153      	str	r3, [r2, #20]
				delay(duty);
 8000c6e:	6878      	ldr	r0, [r7, #4]
 8000c70:	f000 f824 	bl	8000cbc <delay>
				GPIOB -> ODR ^= GPIO_ODR_ODR_14;
 8000c74:	4a0f      	ldr	r2, [pc, #60]	; (8000cb4 <blink+0x11c>)
 8000c76:	4b0f      	ldr	r3, [pc, #60]	; (8000cb4 <blink+0x11c>)
 8000c78:	695b      	ldr	r3, [r3, #20]
 8000c7a:	f483 4380 	eor.w	r3, r3, #16384	; 0x4000
 8000c7e:	6153      	str	r3, [r2, #20]
				delay(duty);
 8000c80:	6878      	ldr	r0, [r7, #4]
 8000c82:	f000 f81b 	bl	8000cbc <delay>
			if (LED == BLUE) {
 8000c86:	e00e      	b.n	8000ca6 <blink+0x10e>

			}
		}

	else if (flag_led_init != 1) {
 8000c88:	4b09      	ldr	r3, [pc, #36]	; (8000cb0 <blink+0x118>)
 8000c8a:	781b      	ldrb	r3, [r3, #0]
 8000c8c:	f083 0301 	eor.w	r3, r3, #1
 8000c90:	b2db      	uxtb	r3, r3
 8000c92:	2b00      	cmp	r3, #0
 8000c94:	d008      	beq.n	8000ca8 <blink+0x110>

		print_str("_ERROR [flag != 1] \n");
 8000c96:	4808      	ldr	r0, [pc, #32]	; (8000cb8 <blink+0x120>)
 8000c98:	f7ff fe3e 	bl	8000918 <print_str>

	}
	}
}
 8000c9c:	e004      	b.n	8000ca8 <blink+0x110>
			if (LED == BLUE) {
 8000c9e:	bf00      	nop
 8000ca0:	e002      	b.n	8000ca8 <blink+0x110>
			if (LED == BLUE) {
 8000ca2:	bf00      	nop
 8000ca4:	e000      	b.n	8000ca8 <blink+0x110>
			if (LED == BLUE) {
 8000ca6:	bf00      	nop
}
 8000ca8:	bf00      	nop
 8000caa:	3708      	adds	r7, #8
 8000cac:	46bd      	mov	sp, r7
 8000cae:	bd80      	pop	{r7, pc}
 8000cb0:	20020435 	.word	0x20020435
 8000cb4:	40020400 	.word	0x40020400
 8000cb8:	0800ea1c 	.word	0x0800ea1c

08000cbc <delay>:

void delay (u32 delay) {
 8000cbc:	b480      	push	{r7}
 8000cbe:	b083      	sub	sp, #12
 8000cc0:	af00      	add	r7, sp, #0
 8000cc2:	6078      	str	r0, [r7, #4]


	for (; delay != 0; delay--) {
 8000cc4:	e003      	b.n	8000cce <delay+0x12>

		__NOP();
 8000cc6:	bf00      	nop
	for (; delay != 0; delay--) {
 8000cc8:	687b      	ldr	r3, [r7, #4]
 8000cca:	3b01      	subs	r3, #1
 8000ccc:	607b      	str	r3, [r7, #4]
 8000cce:	687b      	ldr	r3, [r7, #4]
 8000cd0:	2b00      	cmp	r3, #0
 8000cd2:	d1f8      	bne.n	8000cc6 <delay+0xa>
	}
}
 8000cd4:	bf00      	nop
 8000cd6:	370c      	adds	r7, #12
 8000cd8:	46bd      	mov	sp, r7
 8000cda:	f85d 7b04 	ldr.w	r7, [sp], #4
 8000cde:	4770      	bx	lr

08000ce0 <HSE_Enable>:

void HSE_Enable(void){
 8000ce0:	b480      	push	{r7}
 8000ce2:	af00      	add	r7, sp, #0


	//configur. flesh prescaller
	FLASH->ACR |= FLASH_ACR_PRFTEN;
 8000ce4:	4a37      	ldr	r2, [pc, #220]	; (8000dc4 <HSE_Enable+0xe4>)
 8000ce6:	4b37      	ldr	r3, [pc, #220]	; (8000dc4 <HSE_Enable+0xe4>)
 8000ce8:	681b      	ldr	r3, [r3, #0]
 8000cea:	f443 7380 	orr.w	r3, r3, #256	; 0x100
 8000cee:	6013      	str	r3, [r2, #0]
	FLASH->ACR &= (uint32_t)((uint32_t)~FLASH_ACR_LATENCY);
 8000cf0:	4a34      	ldr	r2, [pc, #208]	; (8000dc4 <HSE_Enable+0xe4>)
 8000cf2:	4b34      	ldr	r3, [pc, #208]	; (8000dc4 <HSE_Enable+0xe4>)
 8000cf4:	681b      	ldr	r3, [r3, #0]
 8000cf6:	f023 030f 	bic.w	r3, r3, #15
 8000cfa:	6013      	str	r3, [r2, #0]
	FLASH->ACR |= (uint32_t)FLASH_ACR_LATENCY_7WS;
 8000cfc:	4a31      	ldr	r2, [pc, #196]	; (8000dc4 <HSE_Enable+0xe4>)
 8000cfe:	4b31      	ldr	r3, [pc, #196]	; (8000dc4 <HSE_Enable+0xe4>)
 8000d00:	681b      	ldr	r3, [r3, #0]
 8000d02:	f043 0307 	orr.w	r3, r3, #7
 8000d06:	6013      	str	r3, [r2, #0]

	//RCC->CR |= RCC_CR_CSSON;    // Clock security sistem

	RCC->CR = 0;
 8000d08:	4b2f      	ldr	r3, [pc, #188]	; (8000dc8 <HSE_Enable+0xe8>)
 8000d0a:	2200      	movs	r2, #0
 8000d0c:	601a      	str	r2, [r3, #0]
	RCC->CFGR = 0;
 8000d0e:	4b2e      	ldr	r3, [pc, #184]	; (8000dc8 <HSE_Enable+0xe8>)
 8000d10:	2200      	movs	r2, #0
 8000d12:	609a      	str	r2, [r3, #8]
	//baypass enable
	RCC->CR |=RCC_CR_HSEBYP;
 8000d14:	4a2c      	ldr	r2, [pc, #176]	; (8000dc8 <HSE_Enable+0xe8>)
 8000d16:	4b2c      	ldr	r3, [pc, #176]	; (8000dc8 <HSE_Enable+0xe8>)
 8000d18:	681b      	ldr	r3, [r3, #0]
 8000d1a:	f443 2380 	orr.w	r3, r3, #262144	; 0x40000
 8000d1e:	6013      	str	r3, [r2, #0]
	//Enable HSE
	RCC->CR |= RCC_CR_HSEON;
 8000d20:	4a29      	ldr	r2, [pc, #164]	; (8000dc8 <HSE_Enable+0xe8>)
 8000d22:	4b29      	ldr	r3, [pc, #164]	; (8000dc8 <HSE_Enable+0xe8>)
 8000d24:	681b      	ldr	r3, [r3, #0]
 8000d26:	f443 3380 	orr.w	r3, r3, #65536	; 0x10000
 8000d2a:	6013      	str	r3, [r2, #0]
	//Wait till HSE is ready
	    while(!(RCC->CR & RCC_CR_HSERDY));
 8000d2c:	bf00      	nop
 8000d2e:	4b26      	ldr	r3, [pc, #152]	; (8000dc8 <HSE_Enable+0xe8>)
 8000d30:	681b      	ldr	r3, [r3, #0]
 8000d32:	f403 3300 	and.w	r3, r3, #131072	; 0x20000
 8000d36:	2b00      	cmp	r3, #0
 8000d38:	d0f9      	beq.n	8000d2e <HSE_Enable+0x4e>

	//PLL configuration   PLLM = 4     PLLN = 216      PLLP = 2   0b11011000000100
	RCC->PLLCFGR = 0;
 8000d3a:	4b23      	ldr	r3, [pc, #140]	; (8000dc8 <HSE_Enable+0xe8>)
 8000d3c:	2200      	movs	r2, #0
 8000d3e:	605a      	str	r2, [r3, #4]
	RCC->PLLCFGR =  0x3604;
 8000d40:	4b21      	ldr	r3, [pc, #132]	; (8000dc8 <HSE_Enable+0xe8>)
 8000d42:	f243 6204 	movw	r2, #13828	; 0x3604
 8000d46:	605a      	str	r2, [r3, #4]

	  //PLL surse
	RCC->PLLCFGR |= RCC_PLLCFGR_PLLSRC;
 8000d48:	4a1f      	ldr	r2, [pc, #124]	; (8000dc8 <HSE_Enable+0xe8>)
 8000d4a:	4b1f      	ldr	r3, [pc, #124]	; (8000dc8 <HSE_Enable+0xe8>)
 8000d4c:	685b      	ldr	r3, [r3, #4]
 8000d4e:	f443 0380 	orr.w	r3, r3, #4194304	; 0x400000
 8000d52:	6053      	str	r3, [r2, #4]

	// HCLK = SYSCLK
	RCC->CFGR |= RCC_CFGR_HPRE_DIV1;
 8000d54:	4a1c      	ldr	r2, [pc, #112]	; (8000dc8 <HSE_Enable+0xe8>)
 8000d56:	4b1c      	ldr	r3, [pc, #112]	; (8000dc8 <HSE_Enable+0xe8>)
 8000d58:	689b      	ldr	r3, [r3, #8]
 8000d5a:	6093      	str	r3, [r2, #8]
	// PCLK2 = HCLK
	RCC->CFGR |= RCC_CFGR_PPRE2_DIV2;
 8000d5c:	4a1a      	ldr	r2, [pc, #104]	; (8000dc8 <HSE_Enable+0xe8>)
 8000d5e:	4b1a      	ldr	r3, [pc, #104]	; (8000dc8 <HSE_Enable+0xe8>)
 8000d60:	689b      	ldr	r3, [r3, #8]
 8000d62:	f443 4300 	orr.w	r3, r3, #32768	; 0x8000
 8000d66:	6093      	str	r3, [r2, #8]
	// PCLK1 = HCLK
	RCC->CFGR |= RCC_CFGR_PPRE1_DIV4;
 8000d68:	4a17      	ldr	r2, [pc, #92]	; (8000dc8 <HSE_Enable+0xe8>)
 8000d6a:	4b17      	ldr	r3, [pc, #92]	; (8000dc8 <HSE_Enable+0xe8>)
 8000d6c:	689b      	ldr	r3, [r3, #8]
 8000d6e:	f443 53a0 	orr.w	r3, r3, #5120	; 0x1400
 8000d72:	6093      	str	r3, [r2, #8]

	// Turn on the PLL
	RCC->CR |= RCC_CR_PLLON;
 8000d74:	4a14      	ldr	r2, [pc, #80]	; (8000dc8 <HSE_Enable+0xe8>)
 8000d76:	4b14      	ldr	r3, [pc, #80]	; (8000dc8 <HSE_Enable+0xe8>)
 8000d78:	681b      	ldr	r3, [r3, #0]
 8000d7a:	f043 7380 	orr.w	r3, r3, #16777216	; 0x1000000
 8000d7e:	6013      	str	r3, [r2, #0]
	// Wait till PLL is ready
	    while((RCC->CR & RCC_CR_PLLRDY) == 0);
 8000d80:	bf00      	nop
 8000d82:	4b11      	ldr	r3, [pc, #68]	; (8000dc8 <HSE_Enable+0xe8>)
 8000d84:	681b      	ldr	r3, [r3, #0]
 8000d86:	f003 7300 	and.w	r3, r3, #33554432	; 0x2000000
 8000d8a:	2b00      	cmp	r3, #0
 8000d8c:	d0f9      	beq.n	8000d82 <HSE_Enable+0xa2>

	RCC->CFGR &= ~RCC_CFGR_SW;
 8000d8e:	4a0e      	ldr	r2, [pc, #56]	; (8000dc8 <HSE_Enable+0xe8>)
 8000d90:	4b0d      	ldr	r3, [pc, #52]	; (8000dc8 <HSE_Enable+0xe8>)
 8000d92:	689b      	ldr	r3, [r3, #8]
 8000d94:	f023 0303 	bic.w	r3, r3, #3
 8000d98:	6093      	str	r3, [r2, #8]
	RCC->CFGR |= RCC_CFGR_SW_PLL;
 8000d9a:	4a0b      	ldr	r2, [pc, #44]	; (8000dc8 <HSE_Enable+0xe8>)
 8000d9c:	4b0a      	ldr	r3, [pc, #40]	; (8000dc8 <HSE_Enable+0xe8>)
 8000d9e:	689b      	ldr	r3, [r3, #8]
 8000da0:	f043 0302 	orr.w	r3, r3, #2
 8000da4:	6093      	str	r3, [r2, #8]
	    while((RCC->CFGR & RCC_CFGR_SWS) != RCC_CFGR_SWS_PLL);
 8000da6:	bf00      	nop
 8000da8:	4b07      	ldr	r3, [pc, #28]	; (8000dc8 <HSE_Enable+0xe8>)
 8000daa:	689b      	ldr	r3, [r3, #8]
 8000dac:	f003 030c 	and.w	r3, r3, #12
 8000db0:	2b08      	cmp	r3, #8
 8000db2:	d1f9      	bne.n	8000da8 <HSE_Enable+0xc8>

	clock = 216000000;
 8000db4:	4b05      	ldr	r3, [pc, #20]	; (8000dcc <HSE_Enable+0xec>)
 8000db6:	4a06      	ldr	r2, [pc, #24]	; (8000dd0 <HSE_Enable+0xf0>)
 8000db8:	601a      	str	r2, [r3, #0]

}
 8000dba:	bf00      	nop
 8000dbc:	46bd      	mov	sp, r7
 8000dbe:	f85d 7b04 	ldr.w	r7, [sp], #4
 8000dc2:	4770      	bx	lr
 8000dc4:	40023c00 	.word	0x40023c00
 8000dc8:	40023800 	.word	0x40023800
 8000dcc:	20020008 	.word	0x20020008
 8000dd0:	0cdfe600 	.word	0x0cdfe600

08000dd4 <RNG_Init>:

void RNG_Init (void) {
 8000dd4:	b480      	push	{r7}
 8000dd6:	af00      	add	r7, sp, #0

	RCC -> AHB2ENR |= RCC_AHB2ENR_RNGEN;
 8000dd8:	4a08      	ldr	r2, [pc, #32]	; (8000dfc <RNG_Init+0x28>)
 8000dda:	4b08      	ldr	r3, [pc, #32]	; (8000dfc <RNG_Init+0x28>)
 8000ddc:	6b5b      	ldr	r3, [r3, #52]	; 0x34
 8000dde:	f043 0340 	orr.w	r3, r3, #64	; 0x40
 8000de2:	6353      	str	r3, [r2, #52]	; 0x34

	RNG -> CR |= RNG_CR_RNGEN;
 8000de4:	4a06      	ldr	r2, [pc, #24]	; (8000e00 <RNG_Init+0x2c>)
 8000de6:	4b06      	ldr	r3, [pc, #24]	; (8000e00 <RNG_Init+0x2c>)
 8000de8:	681b      	ldr	r3, [r3, #0]
 8000dea:	f043 0304 	orr.w	r3, r3, #4
 8000dee:	6013      	str	r3, [r2, #0]

}
 8000df0:	bf00      	nop
 8000df2:	46bd      	mov	sp, r7
 8000df4:	f85d 7b04 	ldr.w	r7, [sp], #4
 8000df8:	4770      	bx	lr
 8000dfa:	bf00      	nop
 8000dfc:	40023800 	.word	0x40023800
 8000e00:	50060800 	.word	0x50060800

08000e04 <number_gen>:

void number_gen (u8* array, u16 Lengt) {
 8000e04:	b580      	push	{r7, lr}
 8000e06:	b084      	sub	sp, #16
 8000e08:	af00      	add	r7, sp, #0
 8000e0a:	6078      	str	r0, [r7, #4]
 8000e0c:	460b      	mov	r3, r1
 8000e0e:	807b      	strh	r3, [r7, #2]

	RNG_Init();
 8000e10:	f7ff ffe0 	bl	8000dd4 <RNG_Init>

	for (u16 count = 0; count < Lengt; count++) {
 8000e14:	2300      	movs	r3, #0
 8000e16:	81fb      	strh	r3, [r7, #14]
 8000e18:	e010      	b.n	8000e3c <number_gen+0x38>

		while ((RNG -> SR & RNG_SR_DRDY) != 1);
 8000e1a:	bf00      	nop
 8000e1c:	4b0b      	ldr	r3, [pc, #44]	; (8000e4c <number_gen+0x48>)
 8000e1e:	685b      	ldr	r3, [r3, #4]
 8000e20:	f003 0301 	and.w	r3, r3, #1
 8000e24:	2b01      	cmp	r3, #1
 8000e26:	d1f9      	bne.n	8000e1c <number_gen+0x18>
		array[count] = RNG -> DR;
 8000e28:	89fb      	ldrh	r3, [r7, #14]
 8000e2a:	687a      	ldr	r2, [r7, #4]
 8000e2c:	4413      	add	r3, r2
 8000e2e:	4a07      	ldr	r2, [pc, #28]	; (8000e4c <number_gen+0x48>)
 8000e30:	6892      	ldr	r2, [r2, #8]
 8000e32:	b2d2      	uxtb	r2, r2
 8000e34:	701a      	strb	r2, [r3, #0]
	for (u16 count = 0; count < Lengt; count++) {
 8000e36:	89fb      	ldrh	r3, [r7, #14]
 8000e38:	3301      	adds	r3, #1
 8000e3a:	81fb      	strh	r3, [r7, #14]
 8000e3c:	89fa      	ldrh	r2, [r7, #14]
 8000e3e:	887b      	ldrh	r3, [r7, #2]
 8000e40:	429a      	cmp	r2, r3
 8000e42:	d3ea      	bcc.n	8000e1a <number_gen+0x16>

	}



}
 8000e44:	bf00      	nop
 8000e46:	3710      	adds	r7, #16
 8000e48:	46bd      	mov	sp, r7
 8000e4a:	bd80      	pop	{r7, pc}
 8000e4c:	50060800 	.word	0x50060800

08000e50 <PWM_Init>:

void PWM_Init (u8 STAT, float freq, float duty) {
 8000e50:	b580      	push	{r7, lr}
 8000e52:	b084      	sub	sp, #16
 8000e54:	af00      	add	r7, sp, #0
 8000e56:	4603      	mov	r3, r0
 8000e58:	60b9      	str	r1, [r7, #8]
 8000e5a:	607a      	str	r2, [r7, #4]
 8000e5c:	73fb      	strb	r3, [r7, #15]
 * TIM3  CH2 A7
 *
 */

	// Тактирование  GPIOA , TIM1, альтернативных функций порта
	RCC -> AHB1ENR |= RCC_AHB1ENR_GPIOAEN;
 8000e5e:	4a29      	ldr	r2, [pc, #164]	; (8000f04 <PWM_Init+0xb4>)
 8000e60:	4b28      	ldr	r3, [pc, #160]	; (8000f04 <PWM_Init+0xb4>)
 8000e62:	6b1b      	ldr	r3, [r3, #48]	; 0x30
 8000e64:	f043 0301 	orr.w	r3, r3, #1
 8000e68:	6313      	str	r3, [r2, #48]	; 0x30
	GPIOA -> MODER |= GPIO_MODER_MODER7_1;
 8000e6a:	4a27      	ldr	r2, [pc, #156]	; (8000f08 <PWM_Init+0xb8>)
 8000e6c:	4b26      	ldr	r3, [pc, #152]	; (8000f08 <PWM_Init+0xb8>)
 8000e6e:	681b      	ldr	r3, [r3, #0]
 8000e70:	f443 4300 	orr.w	r3, r3, #32768	; 0x8000
 8000e74:	6013      	str	r3, [r2, #0]
	GPIOA -> OSPEEDR |= GPIO_OSPEEDER_OSPEEDR7;
 8000e76:	4a24      	ldr	r2, [pc, #144]	; (8000f08 <PWM_Init+0xb8>)
 8000e78:	4b23      	ldr	r3, [pc, #140]	; (8000f08 <PWM_Init+0xb8>)
 8000e7a:	689b      	ldr	r3, [r3, #8]
 8000e7c:	f443 4340 	orr.w	r3, r3, #49152	; 0xc000
 8000e80:	6093      	str	r3, [r2, #8]
	GPIOA -> AFR[0] |= (0x2<<4*7);
 8000e82:	4a21      	ldr	r2, [pc, #132]	; (8000f08 <PWM_Init+0xb8>)
 8000e84:	4b20      	ldr	r3, [pc, #128]	; (8000f08 <PWM_Init+0xb8>)
 8000e86:	6a1b      	ldr	r3, [r3, #32]
 8000e88:	f043 5300 	orr.w	r3, r3, #536870912	; 0x20000000
 8000e8c:	6213      	str	r3, [r2, #32]

	RCC -> APB1ENR |= RCC_APB1ENR_TIM3EN;
 8000e8e:	4a1d      	ldr	r2, [pc, #116]	; (8000f04 <PWM_Init+0xb4>)
 8000e90:	4b1c      	ldr	r3, [pc, #112]	; (8000f04 <PWM_Init+0xb4>)
 8000e92:	6c1b      	ldr	r3, [r3, #64]	; 0x40
 8000e94:	f043 0302 	orr.w	r3, r3, #2
 8000e98:	6413      	str	r3, [r2, #64]	; 0x40
	//prescaler
	PWM_Put(freq, duty);
 8000e9a:	6879      	ldr	r1, [r7, #4]
 8000e9c:	68b8      	ldr	r0, [r7, #8]
 8000e9e:	f000 f837 	bl	8000f10 <PWM_Put>
	//2 chanel output, active level HIGH
	TIM3 -> CCER |= TIM_CCER_CC2E;				// | TIM_CCER_CC2P;
 8000ea2:	4a1a      	ldr	r2, [pc, #104]	; (8000f0c <PWM_Init+0xbc>)
 8000ea4:	4b19      	ldr	r3, [pc, #100]	; (8000f0c <PWM_Init+0xbc>)
 8000ea6:	6a1b      	ldr	r3, [r3, #32]
 8000ea8:	f043 0310 	orr.w	r3, r3, #16
 8000eac:	6213      	str	r3, [r2, #32]
	//configuration output timer
	TIM3 -> BDTR |= TIM_BDTR_MOE;
 8000eae:	4a17      	ldr	r2, [pc, #92]	; (8000f0c <PWM_Init+0xbc>)
 8000eb0:	4b16      	ldr	r3, [pc, #88]	; (8000f0c <PWM_Init+0xbc>)
 8000eb2:	6c5b      	ldr	r3, [r3, #68]	; 0x44
 8000eb4:	f443 4300 	orr.w	r3, r3, #32768	; 0x8000
 8000eb8:	6453      	str	r3, [r2, #68]	; 0x44
	//PWM mode 1, force PWM 2 chanel
    TIM3 -> CCMR1 = TIM_CCMR1_OC2M_2 | TIM_CCMR1_OC2M_1;
 8000eba:	4b14      	ldr	r3, [pc, #80]	; (8000f0c <PWM_Init+0xbc>)
 8000ebc:	f44f 42c0 	mov.w	r2, #24576	; 0x6000
 8000ec0:	619a      	str	r2, [r3, #24]
	//step up
	TIM3 -> CR1 &= ~TIM_CR1_DIR;
 8000ec2:	4a12      	ldr	r2, [pc, #72]	; (8000f0c <PWM_Init+0xbc>)
 8000ec4:	4b11      	ldr	r3, [pc, #68]	; (8000f0c <PWM_Init+0xbc>)
 8000ec6:	681b      	ldr	r3, [r3, #0]
 8000ec8:	f023 0310 	bic.w	r3, r3, #16
 8000ecc:	6013      	str	r3, [r2, #0]
	//front alignment, Fast PWM
	TIM3 -> CR1 &= ~TIM_CR1_CMS;
 8000ece:	4a0f      	ldr	r2, [pc, #60]	; (8000f0c <PWM_Init+0xbc>)
 8000ed0:	4b0e      	ldr	r3, [pc, #56]	; (8000f0c <PWM_Init+0xbc>)
 8000ed2:	681b      	ldr	r3, [r3, #0]
 8000ed4:	f023 0360 	bic.w	r3, r3, #96	; 0x60
 8000ed8:	6013      	str	r3, [r2, #0]
	//count enable
    STAT == ENABLE ? (TIM3 -> CR1 |= TIM_CR1_CEN) : (TIM3 -> CR1 &= ~TIM_CR1_CEN);
 8000eda:	7bfb      	ldrb	r3, [r7, #15]
 8000edc:	2b01      	cmp	r3, #1
 8000ede:	d106      	bne.n	8000eee <PWM_Init+0x9e>
 8000ee0:	4a0a      	ldr	r2, [pc, #40]	; (8000f0c <PWM_Init+0xbc>)
 8000ee2:	4b0a      	ldr	r3, [pc, #40]	; (8000f0c <PWM_Init+0xbc>)
 8000ee4:	681b      	ldr	r3, [r3, #0]
 8000ee6:	f043 0301 	orr.w	r3, r3, #1
 8000eea:	6013      	str	r3, [r2, #0]

}
 8000eec:	e005      	b.n	8000efa <PWM_Init+0xaa>
    STAT == ENABLE ? (TIM3 -> CR1 |= TIM_CR1_CEN) : (TIM3 -> CR1 &= ~TIM_CR1_CEN);
 8000eee:	4a07      	ldr	r2, [pc, #28]	; (8000f0c <PWM_Init+0xbc>)
 8000ef0:	4b06      	ldr	r3, [pc, #24]	; (8000f0c <PWM_Init+0xbc>)
 8000ef2:	681b      	ldr	r3, [r3, #0]
 8000ef4:	f023 0301 	bic.w	r3, r3, #1
 8000ef8:	6013      	str	r3, [r2, #0]
}
 8000efa:	bf00      	nop
 8000efc:	3710      	adds	r7, #16
 8000efe:	46bd      	mov	sp, r7
 8000f00:	bd80      	pop	{r7, pc}
 8000f02:	bf00      	nop
 8000f04:	40023800 	.word	0x40023800
 8000f08:	40020000 	.word	0x40020000
 8000f0c:	40000400 	.word	0x40000400

08000f10 <PWM_Put>:

void PWM_Put(float freq, float duty) {
 8000f10:	b5b0      	push	{r4, r5, r7, lr}
 8000f12:	b082      	sub	sp, #8
 8000f14:	af00      	add	r7, sp, #0
 8000f16:	6078      	str	r0, [r7, #4]
 8000f18:	6039      	str	r1, [r7, #0]

	clock_TIM = (clock / T_PSC) - 1;
 8000f1a:	4b37      	ldr	r3, [pc, #220]	; (8000ff8 <PWM_Put+0xe8>)
 8000f1c:	681b      	ldr	r3, [r3, #0]
 8000f1e:	091b      	lsrs	r3, r3, #4
 8000f20:	3b01      	subs	r3, #1
 8000f22:	ee07 3a90 	vmov	s15, r3
 8000f26:	eef8 7a67 	vcvt.f32.u32	s15, s15
 8000f2a:	4b34      	ldr	r3, [pc, #208]	; (8000ffc <PWM_Put+0xec>)
 8000f2c:	edc3 7a00 	vstr	s15, [r3]
	T_ARR = ((1.0 / freq) * clock_TIM);
 8000f30:	6878      	ldr	r0, [r7, #4]
 8000f32:	f000 fb51 	bl	80015d8 <__aeabi_f2d>
 8000f36:	4603      	mov	r3, r0
 8000f38:	460c      	mov	r4, r1
 8000f3a:	461a      	mov	r2, r3
 8000f3c:	4623      	mov	r3, r4
 8000f3e:	f04f 0000 	mov.w	r0, #0
 8000f42:	492f      	ldr	r1, [pc, #188]	; (8001000 <PWM_Put+0xf0>)
 8000f44:	f000 fcc6 	bl	80018d4 <__aeabi_ddiv>
 8000f48:	4603      	mov	r3, r0
 8000f4a:	460c      	mov	r4, r1
 8000f4c:	4625      	mov	r5, r4
 8000f4e:	461c      	mov	r4, r3
 8000f50:	4b2a      	ldr	r3, [pc, #168]	; (8000ffc <PWM_Put+0xec>)
 8000f52:	681b      	ldr	r3, [r3, #0]
 8000f54:	4618      	mov	r0, r3
 8000f56:	f000 fb3f 	bl	80015d8 <__aeabi_f2d>
 8000f5a:	4602      	mov	r2, r0
 8000f5c:	460b      	mov	r3, r1
 8000f5e:	4620      	mov	r0, r4
 8000f60:	4629      	mov	r1, r5
 8000f62:	f000 fb8d 	bl	8001680 <__aeabi_dmul>
 8000f66:	4603      	mov	r3, r0
 8000f68:	460c      	mov	r4, r1
 8000f6a:	4618      	mov	r0, r3
 8000f6c:	4621      	mov	r1, r4
 8000f6e:	f000 fd99 	bl	8001aa4 <__aeabi_d2f>
 8000f72:	4602      	mov	r2, r0
 8000f74:	4b23      	ldr	r3, [pc, #140]	; (8001004 <PWM_Put+0xf4>)
 8000f76:	601a      	str	r2, [r3, #0]
	duty = (T_ARR / (duty * 0.04));
 8000f78:	4b22      	ldr	r3, [pc, #136]	; (8001004 <PWM_Put+0xf4>)
 8000f7a:	681b      	ldr	r3, [r3, #0]
 8000f7c:	4618      	mov	r0, r3
 8000f7e:	f000 fb2b 	bl	80015d8 <__aeabi_f2d>
 8000f82:	4604      	mov	r4, r0
 8000f84:	460d      	mov	r5, r1
 8000f86:	6838      	ldr	r0, [r7, #0]
 8000f88:	f000 fb26 	bl	80015d8 <__aeabi_f2d>
 8000f8c:	a318      	add	r3, pc, #96	; (adr r3, 8000ff0 <PWM_Put+0xe0>)
 8000f8e:	e9d3 2300 	ldrd	r2, r3, [r3]
 8000f92:	f000 fb75 	bl	8001680 <__aeabi_dmul>
 8000f96:	4602      	mov	r2, r0
 8000f98:	460b      	mov	r3, r1
 8000f9a:	4620      	mov	r0, r4
 8000f9c:	4629      	mov	r1, r5
 8000f9e:	f000 fc99 	bl	80018d4 <__aeabi_ddiv>
 8000fa2:	4603      	mov	r3, r0
 8000fa4:	460c      	mov	r4, r1
 8000fa6:	4618      	mov	r0, r3
 8000fa8:	4621      	mov	r1, r4
 8000faa:	f000 fd7b 	bl	8001aa4 <__aeabi_d2f>
 8000fae:	4603      	mov	r3, r0
 8000fb0:	603b      	str	r3, [r7, #0]

	TIM3 -> PSC = T_PSC;
 8000fb2:	4b15      	ldr	r3, [pc, #84]	; (8001008 <PWM_Put+0xf8>)
 8000fb4:	2210      	movs	r2, #16
 8000fb6:	629a      	str	r2, [r3, #40]	; 0x28
    TIM3 -> ARR = T_ARR - 1;
 8000fb8:	4b13      	ldr	r3, [pc, #76]	; (8001008 <PWM_Put+0xf8>)
 8000fba:	4a12      	ldr	r2, [pc, #72]	; (8001004 <PWM_Put+0xf4>)
 8000fbc:	edd2 7a00 	vldr	s15, [r2]
 8000fc0:	eeb7 7a00 	vmov.f32	s14, #112	; 0x3f800000  1.0
 8000fc4:	ee77 7ac7 	vsub.f32	s15, s15, s14
 8000fc8:	eefc 7ae7 	vcvt.u32.f32	s15, s15
 8000fcc:	ee17 2a90 	vmov	r2, s15
 8000fd0:	62da      	str	r2, [r3, #44]	; 0x2c
	TIM3 -> CCR2 = duty;
 8000fd2:	4b0d      	ldr	r3, [pc, #52]	; (8001008 <PWM_Put+0xf8>)
 8000fd4:	edd7 7a00 	vldr	s15, [r7]
 8000fd8:	eefc 7ae7 	vcvt.u32.f32	s15, s15
 8000fdc:	ee17 2a90 	vmov	r2, s15
 8000fe0:	639a      	str	r2, [r3, #56]	; 0x38
}
 8000fe2:	bf00      	nop
 8000fe4:	3708      	adds	r7, #8
 8000fe6:	46bd      	mov	sp, r7
 8000fe8:	bdb0      	pop	{r4, r5, r7, pc}
 8000fea:	bf00      	nop
 8000fec:	f3af 8000 	nop.w
 8000ff0:	47ae147b 	.word	0x47ae147b
 8000ff4:	3fa47ae1 	.word	0x3fa47ae1
 8000ff8:	20020008 	.word	0x20020008
 8000ffc:	20020438 	.word	0x20020438
 8001000:	3ff00000 	.word	0x3ff00000
 8001004:	2002043c 	.word	0x2002043c
 8001008:	40000400 	.word	0x40000400

0800100c <interrupt_timer>:

void interrupt_timer (u8 STAT, u32 time_count) {
 800100c:	b580      	push	{r7, lr}
 800100e:	b082      	sub	sp, #8
 8001010:	af00      	add	r7, sp, #0
 8001012:	4603      	mov	r3, r0
 8001014:	6039      	str	r1, [r7, #0]
 8001016:	71fb      	strb	r3, [r7, #7]

	RCC -> APB2ENR |= RCC_APB2ENR_TIM1EN;
 8001018:	4a17      	ldr	r2, [pc, #92]	; (8001078 <interrupt_timer+0x6c>)
 800101a:	4b17      	ldr	r3, [pc, #92]	; (8001078 <interrupt_timer+0x6c>)
 800101c:	6c5b      	ldr	r3, [r3, #68]	; 0x44
 800101e:	f043 0301 	orr.w	r3, r3, #1
 8001022:	6453      	str	r3, [r2, #68]	; 0x44

	TIM1 -> PSC = T_PSC;
 8001024:	4b15      	ldr	r3, [pc, #84]	; (800107c <interrupt_timer+0x70>)
 8001026:	2210      	movs	r2, #16
 8001028:	629a      	str	r2, [r3, #40]	; 0x28
	TIM1 -> ARR = time_count;
 800102a:	4a14      	ldr	r2, [pc, #80]	; (800107c <interrupt_timer+0x70>)
 800102c:	683b      	ldr	r3, [r7, #0]
 800102e:	62d3      	str	r3, [r2, #44]	; 0x2c
	TIM1 -> CR1 |= TIM_CR1_CEN;
 8001030:	4a12      	ldr	r2, [pc, #72]	; (800107c <interrupt_timer+0x70>)
 8001032:	4b12      	ldr	r3, [pc, #72]	; (800107c <interrupt_timer+0x70>)
 8001034:	681b      	ldr	r3, [r3, #0]
 8001036:	f043 0301 	orr.w	r3, r3, #1
 800103a:	6013      	str	r3, [r2, #0]
	TIM1 -> DIER |= TIM_DIER_UIE;
 800103c:	4a0f      	ldr	r2, [pc, #60]	; (800107c <interrupt_timer+0x70>)
 800103e:	4b0f      	ldr	r3, [pc, #60]	; (800107c <interrupt_timer+0x70>)
 8001040:	68db      	ldr	r3, [r3, #12]
 8001042:	f043 0301 	orr.w	r3, r3, #1
 8001046:	60d3      	str	r3, [r2, #12]

	STAT == ENABLE ? (TIM1 -> CR1 |= TIM_CR1_CEN) : (TIM1 -> CR1 &= ~TIM_CR1_CEN);
 8001048:	79fb      	ldrb	r3, [r7, #7]
 800104a:	2b01      	cmp	r3, #1
 800104c:	d106      	bne.n	800105c <interrupt_timer+0x50>
 800104e:	4a0b      	ldr	r2, [pc, #44]	; (800107c <interrupt_timer+0x70>)
 8001050:	4b0a      	ldr	r3, [pc, #40]	; (800107c <interrupt_timer+0x70>)
 8001052:	681b      	ldr	r3, [r3, #0]
 8001054:	f043 0301 	orr.w	r3, r3, #1
 8001058:	6013      	str	r3, [r2, #0]
 800105a:	e005      	b.n	8001068 <interrupt_timer+0x5c>
 800105c:	4a07      	ldr	r2, [pc, #28]	; (800107c <interrupt_timer+0x70>)
 800105e:	4b07      	ldr	r3, [pc, #28]	; (800107c <interrupt_timer+0x70>)
 8001060:	681b      	ldr	r3, [r3, #0]
 8001062:	f023 0301 	bic.w	r3, r3, #1
 8001066:	6013      	str	r3, [r2, #0]

	NVIC_EnableIRQ(TIM1_UP_TIM10_IRQn);
 8001068:	2019      	movs	r0, #25
 800106a:	f7ff fb21 	bl	80006b0 <__NVIC_EnableIRQ>

}
 800106e:	bf00      	nop
 8001070:	3708      	adds	r7, #8
 8001072:	46bd      	mov	sp, r7
 8001074:	bd80      	pop	{r7, pc}
 8001076:	bf00      	nop
 8001078:	40023800 	.word	0x40023800
 800107c:	40010000 	.word	0x40010000

08001080 <TIM1_UP_TIM10_IRQHandler>:

void TIM1_UP_TIM10_IRQHandler (void) {
 8001080:	b480      	push	{r7}
 8001082:	af00      	add	r7, sp, #0

	TIM1->SR &= ~TIM_SR_UIF;
 8001084:	4a05      	ldr	r2, [pc, #20]	; (800109c <TIM1_UP_TIM10_IRQHandler+0x1c>)
 8001086:	4b05      	ldr	r3, [pc, #20]	; (800109c <TIM1_UP_TIM10_IRQHandler+0x1c>)
 8001088:	691b      	ldr	r3, [r3, #16]
 800108a:	f023 0301 	bic.w	r3, r3, #1
 800108e:	6113      	str	r3, [r2, #16]

}
 8001090:	bf00      	nop
 8001092:	46bd      	mov	sp, r7
 8001094:	f85d 7b04 	ldr.w	r7, [sp], #4
 8001098:	4770      	bx	lr
 800109a:	bf00      	nop
 800109c:	40010000 	.word	0x40010000

080010a0 <SPI_Init>:

void SPI_Init (void) {
 80010a0:	b580      	push	{r7, lr}
 80010a2:	af00      	add	r7, sp, #0
  * 2			LEDA
  * 3			VDD
  *
*/

	RCC -> AHB1ENR |= RCC_AHB1ENR_GPIOCEN;
 80010a4:	4a47      	ldr	r2, [pc, #284]	; (80011c4 <SPI_Init+0x124>)
 80010a6:	4b47      	ldr	r3, [pc, #284]	; (80011c4 <SPI_Init+0x124>)
 80010a8:	6b1b      	ldr	r3, [r3, #48]	; 0x30
 80010aa:	f043 0304 	orr.w	r3, r3, #4
 80010ae:	6313      	str	r3, [r2, #48]	; 0x30

	//MOSI
	GPIOC -> MODER |= GPIO_MODER_MODER12_1;
 80010b0:	4a45      	ldr	r2, [pc, #276]	; (80011c8 <SPI_Init+0x128>)
 80010b2:	4b45      	ldr	r3, [pc, #276]	; (80011c8 <SPI_Init+0x128>)
 80010b4:	681b      	ldr	r3, [r3, #0]
 80010b6:	f043 7300 	orr.w	r3, r3, #33554432	; 0x2000000
 80010ba:	6013      	str	r3, [r2, #0]
	GPIOC -> OSPEEDR  |= GPIO_OSPEEDER_OSPEEDR12;
 80010bc:	4a42      	ldr	r2, [pc, #264]	; (80011c8 <SPI_Init+0x128>)
 80010be:	4b42      	ldr	r3, [pc, #264]	; (80011c8 <SPI_Init+0x128>)
 80010c0:	689b      	ldr	r3, [r3, #8]
 80010c2:	f043 7340 	orr.w	r3, r3, #50331648	; 0x3000000
 80010c6:	6093      	str	r3, [r2, #8]
	GPIOC -> AFR[1]	|= (0x06<<(4*4));
 80010c8:	4a3f      	ldr	r2, [pc, #252]	; (80011c8 <SPI_Init+0x128>)
 80010ca:	4b3f      	ldr	r3, [pc, #252]	; (80011c8 <SPI_Init+0x128>)
 80010cc:	6a5b      	ldr	r3, [r3, #36]	; 0x24
 80010ce:	f443 23c0 	orr.w	r3, r3, #393216	; 0x60000
 80010d2:	6253      	str	r3, [r2, #36]	; 0x24
	//SCL
	GPIOC -> MODER |= GPIO_MODER_MODER10_1;
 80010d4:	4a3c      	ldr	r2, [pc, #240]	; (80011c8 <SPI_Init+0x128>)
 80010d6:	4b3c      	ldr	r3, [pc, #240]	; (80011c8 <SPI_Init+0x128>)
 80010d8:	681b      	ldr	r3, [r3, #0]
 80010da:	f443 1300 	orr.w	r3, r3, #2097152	; 0x200000
 80010de:	6013      	str	r3, [r2, #0]
	GPIOC -> OSPEEDR  |= GPIO_OSPEEDER_OSPEEDR10;
 80010e0:	4a39      	ldr	r2, [pc, #228]	; (80011c8 <SPI_Init+0x128>)
 80010e2:	4b39      	ldr	r3, [pc, #228]	; (80011c8 <SPI_Init+0x128>)
 80010e4:	689b      	ldr	r3, [r3, #8]
 80010e6:	f443 1340 	orr.w	r3, r3, #3145728	; 0x300000
 80010ea:	6093      	str	r3, [r2, #8]
	GPIOC -> AFR[1]	|= (0x06<<(2*4));
 80010ec:	4a36      	ldr	r2, [pc, #216]	; (80011c8 <SPI_Init+0x128>)
 80010ee:	4b36      	ldr	r3, [pc, #216]	; (80011c8 <SPI_Init+0x128>)
 80010f0:	6a5b      	ldr	r3, [r3, #36]	; 0x24
 80010f2:	f443 63c0 	orr.w	r3, r3, #1536	; 0x600
 80010f6:	6253      	str	r3, [r2, #36]	; 0x24

	//RS (COMMAND SELECT)
	GPIOC -> MODER |= GPIO_MODER_MODER8_1;
 80010f8:	4a33      	ldr	r2, [pc, #204]	; (80011c8 <SPI_Init+0x128>)
 80010fa:	4b33      	ldr	r3, [pc, #204]	; (80011c8 <SPI_Init+0x128>)
 80010fc:	681b      	ldr	r3, [r3, #0]
 80010fe:	f443 3300 	orr.w	r3, r3, #131072	; 0x20000
 8001102:	6013      	str	r3, [r2, #0]
	GPIOC -> OSPEEDR  |= GPIO_OSPEEDER_OSPEEDR8;
 8001104:	4a30      	ldr	r2, [pc, #192]	; (80011c8 <SPI_Init+0x128>)
 8001106:	4b30      	ldr	r3, [pc, #192]	; (80011c8 <SPI_Init+0x128>)
 8001108:	689b      	ldr	r3, [r3, #8]
 800110a:	f443 3340 	orr.w	r3, r3, #196608	; 0x30000
 800110e:	6093      	str	r3, [r2, #8]
	//GPIOC -> BSRR |= GPIO_BSRR_BS_8;
	//RESET
	GPIOC -> MODER |= GPIO_MODER_MODER11_1;
 8001110:	4a2d      	ldr	r2, [pc, #180]	; (80011c8 <SPI_Init+0x128>)
 8001112:	4b2d      	ldr	r3, [pc, #180]	; (80011c8 <SPI_Init+0x128>)
 8001114:	681b      	ldr	r3, [r3, #0]
 8001116:	f443 0300 	orr.w	r3, r3, #8388608	; 0x800000
 800111a:	6013      	str	r3, [r2, #0]
	GPIOC -> OSPEEDR  |= GPIO_OSPEEDER_OSPEEDR11;
 800111c:	4a2a      	ldr	r2, [pc, #168]	; (80011c8 <SPI_Init+0x128>)
 800111e:	4b2a      	ldr	r3, [pc, #168]	; (80011c8 <SPI_Init+0x128>)
 8001120:	689b      	ldr	r3, [r3, #8]
 8001122:	f443 0340 	orr.w	r3, r3, #12582912	; 0xc00000
 8001126:	6093      	str	r3, [r2, #8]
	GPIOC -> BSRR |= GPIO_BSRR_BS_11;
 8001128:	4a27      	ldr	r2, [pc, #156]	; (80011c8 <SPI_Init+0x128>)
 800112a:	4b27      	ldr	r3, [pc, #156]	; (80011c8 <SPI_Init+0x128>)
 800112c:	699b      	ldr	r3, [r3, #24]
 800112e:	f443 6300 	orr.w	r3, r3, #2048	; 0x800
 8001132:	6193      	str	r3, [r2, #24]
	//CS
	GPIOC -> MODER |= GPIO_MODER_MODER9_1;
 8001134:	4a24      	ldr	r2, [pc, #144]	; (80011c8 <SPI_Init+0x128>)
 8001136:	4b24      	ldr	r3, [pc, #144]	; (80011c8 <SPI_Init+0x128>)
 8001138:	681b      	ldr	r3, [r3, #0]
 800113a:	f443 2300 	orr.w	r3, r3, #524288	; 0x80000
 800113e:	6013      	str	r3, [r2, #0]
	GPIOC -> OSPEEDR  |= GPIO_OSPEEDER_OSPEEDR9;
 8001140:	4a21      	ldr	r2, [pc, #132]	; (80011c8 <SPI_Init+0x128>)
 8001142:	4b21      	ldr	r3, [pc, #132]	; (80011c8 <SPI_Init+0x128>)
 8001144:	689b      	ldr	r3, [r3, #8]
 8001146:	f443 2340 	orr.w	r3, r3, #786432	; 0xc0000
 800114a:	6093      	str	r3, [r2, #8]
	//GPIOC -> BSRR |= GPIO_BSRR_BS_9;

	RCC -> APB1ENR |= RCC_APB1ENR_SPI3EN;
 800114c:	4a1d      	ldr	r2, [pc, #116]	; (80011c4 <SPI_Init+0x124>)
 800114e:	4b1d      	ldr	r3, [pc, #116]	; (80011c4 <SPI_Init+0x124>)
 8001150:	6c1b      	ldr	r3, [r3, #64]	; 0x40
 8001152:	f443 4300 	orr.w	r3, r3, #32768	; 0x8000
 8001156:	6413      	str	r3, [r2, #64]	; 0x40


	SPI3 -> CR1 |= SPI_CR1_BR;              //Baud rate = Fpclk/256
 8001158:	4a1c      	ldr	r2, [pc, #112]	; (80011cc <SPI_Init+0x12c>)
 800115a:	4b1c      	ldr	r3, [pc, #112]	; (80011cc <SPI_Init+0x12c>)
 800115c:	681b      	ldr	r3, [r3, #0]
 800115e:	f043 0338 	orr.w	r3, r3, #56	; 0x38
 8001162:	6013      	str	r3, [r2, #0]
	SPI3 -> CR1 |= SPI_CR1_CPOL;              //Polarity cls signal CPOL = 0;
 8001164:	4a19      	ldr	r2, [pc, #100]	; (80011cc <SPI_Init+0x12c>)
 8001166:	4b19      	ldr	r3, [pc, #100]	; (80011cc <SPI_Init+0x12c>)
 8001168:	681b      	ldr	r3, [r3, #0]
 800116a:	f043 0302 	orr.w	r3, r3, #2
 800116e:	6013      	str	r3, [r2, #0]
	SPI3 -> CR1 |= SPI_CR1_CPHA;              //Phase cls signal    CPHA = 0;
 8001170:	4a16      	ldr	r2, [pc, #88]	; (80011cc <SPI_Init+0x12c>)
 8001172:	4b16      	ldr	r3, [pc, #88]	; (80011cc <SPI_Init+0x12c>)
 8001174:	681b      	ldr	r3, [r3, #0]
 8001176:	f043 0301 	orr.w	r3, r3, #1
 800117a:	6013      	str	r3, [r2, #0]
	SPI3 -> CR1 &= ~SPI_CR1_LSBFIRST;         //MSB will be first
 800117c:	4a13      	ldr	r2, [pc, #76]	; (80011cc <SPI_Init+0x12c>)
 800117e:	4b13      	ldr	r3, [pc, #76]	; (80011cc <SPI_Init+0x12c>)
 8001180:	681b      	ldr	r3, [r3, #0]
 8001182:	f023 0380 	bic.w	r3, r3, #128	; 0x80
 8001186:	6013      	str	r3, [r2, #0]
	SPI3 -> CR1 |= SPI_CR1_SSM;               //Program mode NSS
 8001188:	4a10      	ldr	r2, [pc, #64]	; (80011cc <SPI_Init+0x12c>)
 800118a:	4b10      	ldr	r3, [pc, #64]	; (80011cc <SPI_Init+0x12c>)
 800118c:	681b      	ldr	r3, [r3, #0]
 800118e:	f443 7300 	orr.w	r3, r3, #512	; 0x200
 8001192:	6013      	str	r3, [r2, #0]
	SPI3 -> CR1 |= SPI_CR1_SSI;               //анналогично состоянию, когда NSS 1
 8001194:	4a0d      	ldr	r2, [pc, #52]	; (80011cc <SPI_Init+0x12c>)
 8001196:	4b0d      	ldr	r3, [pc, #52]	; (80011cc <SPI_Init+0x12c>)
 8001198:	681b      	ldr	r3, [r3, #0]
 800119a:	f443 7380 	orr.w	r3, r3, #256	; 0x100
 800119e:	6013      	str	r3, [r2, #0]
	SPI3 -> CR1 |= SPI_CR1_MSTR;              //Mode Master
 80011a0:	4a0a      	ldr	r2, [pc, #40]	; (80011cc <SPI_Init+0x12c>)
 80011a2:	4b0a      	ldr	r3, [pc, #40]	; (80011cc <SPI_Init+0x12c>)
 80011a4:	681b      	ldr	r3, [r3, #0]
 80011a6:	f043 0304 	orr.w	r3, r3, #4
 80011aa:	6013      	str	r3, [r2, #0]
	SPI3 -> CR1 |= SPI_CR1_SPE;               //Enable SPI2
 80011ac:	4a07      	ldr	r2, [pc, #28]	; (80011cc <SPI_Init+0x12c>)
 80011ae:	4b07      	ldr	r3, [pc, #28]	; (80011cc <SPI_Init+0x12c>)
 80011b0:	681b      	ldr	r3, [r3, #0]
 80011b2:	f043 0340 	orr.w	r3, r3, #64	; 0x40
 80011b6:	6013      	str	r3, [r2, #0]

	delay(1600);
 80011b8:	f44f 60c8 	mov.w	r0, #1600	; 0x640
 80011bc:	f7ff fd7e 	bl	8000cbc <delay>
				//|  SPI_CR1_BR_0;

	SPI3->CR2 |= SPI_CR2_SSOE;
	SPI3 -> CR1 |= SPI_CR1_SPE;
*/
}
 80011c0:	bf00      	nop
 80011c2:	bd80      	pop	{r7, pc}
 80011c4:	40023800 	.word	0x40023800
 80011c8:	40020800 	.word	0x40020800
 80011cc:	40003c00 	.word	0x40003c00

080011d0 <SPI_write_byte>:

void SPI_write_byte (u16 data) {
 80011d0:	b480      	push	{r7}
 80011d2:	b083      	sub	sp, #12
 80011d4:	af00      	add	r7, sp, #0
 80011d6:	4603      	mov	r3, r0
 80011d8:	80fb      	strh	r3, [r7, #6]

	  //while(!(SPI3 -> SR & SPI_SR_TXE));

	  SPI3 -> DR = data;
 80011da:	4a04      	ldr	r2, [pc, #16]	; (80011ec <SPI_write_byte+0x1c>)
 80011dc:	88fb      	ldrh	r3, [r7, #6]
 80011de:	60d3      	str	r3, [r2, #12]

}
 80011e0:	bf00      	nop
 80011e2:	370c      	adds	r7, #12
 80011e4:	46bd      	mov	sp, r7
 80011e6:	f85d 7b04 	ldr.w	r7, [sp], #4
 80011ea:	4770      	bx	lr
 80011ec:	40003c00 	.word	0x40003c00

080011f0 <SPI_send_cmd>:

void SPI_send_cmd (u8 data) {
 80011f0:	b580      	push	{r7, lr}
 80011f2:	b082      	sub	sp, #8
 80011f4:	af00      	add	r7, sp, #0
 80011f6:	4603      	mov	r3, r0
 80011f8:	71fb      	strb	r3, [r7, #7]

	SPI1 -> CR2 &= ~SPI_CR2_DS_3;
 80011fa:	4a0a      	ldr	r2, [pc, #40]	; (8001224 <SPI_send_cmd+0x34>)
 80011fc:	4b09      	ldr	r3, [pc, #36]	; (8001224 <SPI_send_cmd+0x34>)
 80011fe:	685b      	ldr	r3, [r3, #4]
 8001200:	f423 6300 	bic.w	r3, r3, #2048	; 0x800
 8001204:	6053      	str	r3, [r2, #4]

	A0_L();
 8001206:	4a08      	ldr	r2, [pc, #32]	; (8001228 <SPI_send_cmd+0x38>)
 8001208:	4b07      	ldr	r3, [pc, #28]	; (8001228 <SPI_send_cmd+0x38>)
 800120a:	699b      	ldr	r3, [r3, #24]
 800120c:	f043 7380 	orr.w	r3, r3, #16777216	; 0x1000000
 8001210:	6193      	str	r3, [r2, #24]

	SPI_write_byte(data);
 8001212:	79fb      	ldrb	r3, [r7, #7]
 8001214:	b29b      	uxth	r3, r3
 8001216:	4618      	mov	r0, r3
 8001218:	f7ff ffda 	bl	80011d0 <SPI_write_byte>

}
 800121c:	bf00      	nop
 800121e:	3708      	adds	r7, #8
 8001220:	46bd      	mov	sp, r7
 8001222:	bd80      	pop	{r7, pc}
 8001224:	40013000 	.word	0x40013000
 8001228:	40020800 	.word	0x40020800

0800122c <SPI_send_data>:

void SPI_send_data (u8 data) {
 800122c:	b580      	push	{r7, lr}
 800122e:	b082      	sub	sp, #8
 8001230:	af00      	add	r7, sp, #0
 8001232:	4603      	mov	r3, r0
 8001234:	71fb      	strb	r3, [r7, #7]

	SPI1 -> CR2 &= ~SPI_CR2_DS_3;
 8001236:	4a0a      	ldr	r2, [pc, #40]	; (8001260 <SPI_send_data+0x34>)
 8001238:	4b09      	ldr	r3, [pc, #36]	; (8001260 <SPI_send_data+0x34>)
 800123a:	685b      	ldr	r3, [r3, #4]
 800123c:	f423 6300 	bic.w	r3, r3, #2048	; 0x800
 8001240:	6053      	str	r3, [r2, #4]

	A0_H();
 8001242:	4a08      	ldr	r2, [pc, #32]	; (8001264 <SPI_send_data+0x38>)
 8001244:	4b07      	ldr	r3, [pc, #28]	; (8001264 <SPI_send_data+0x38>)
 8001246:	699b      	ldr	r3, [r3, #24]
 8001248:	f443 7380 	orr.w	r3, r3, #256	; 0x100
 800124c:	6193      	str	r3, [r2, #24]

	SPI_write_byte(data);
 800124e:	79fb      	ldrb	r3, [r7, #7]
 8001250:	b29b      	uxth	r3, r3
 8001252:	4618      	mov	r0, r3
 8001254:	f7ff ffbc 	bl	80011d0 <SPI_write_byte>

}
 8001258:	bf00      	nop
 800125a:	3708      	adds	r7, #8
 800125c:	46bd      	mov	sp, r7
 800125e:	bd80      	pop	{r7, pc}
 8001260:	40013000 	.word	0x40013000
 8001264:	40020800 	.word	0x40020800

08001268 <SPI_send_16byte_data>:

void SPI_send_16byte_data (u16 data) {
 8001268:	b580      	push	{r7, lr}
 800126a:	b082      	sub	sp, #8
 800126c:	af00      	add	r7, sp, #0
 800126e:	4603      	mov	r3, r0
 8001270:	80fb      	strh	r3, [r7, #6]

	SPI1 -> CR2 |= SPI_CR2_DS;
 8001272:	4a0a      	ldr	r2, [pc, #40]	; (800129c <SPI_send_16byte_data+0x34>)
 8001274:	4b09      	ldr	r3, [pc, #36]	; (800129c <SPI_send_16byte_data+0x34>)
 8001276:	685b      	ldr	r3, [r3, #4]
 8001278:	f443 6370 	orr.w	r3, r3, #3840	; 0xf00
 800127c:	6053      	str	r3, [r2, #4]

	A0_H();
 800127e:	4a08      	ldr	r2, [pc, #32]	; (80012a0 <SPI_send_16byte_data+0x38>)
 8001280:	4b07      	ldr	r3, [pc, #28]	; (80012a0 <SPI_send_16byte_data+0x38>)
 8001282:	699b      	ldr	r3, [r3, #24]
 8001284:	f443 7380 	orr.w	r3, r3, #256	; 0x100
 8001288:	6193      	str	r3, [r2, #24]

	SPI_write_byte(data);
 800128a:	88fb      	ldrh	r3, [r7, #6]
 800128c:	4618      	mov	r0, r3
 800128e:	f7ff ff9f 	bl	80011d0 <SPI_write_byte>

}
 8001292:	bf00      	nop
 8001294:	3708      	adds	r7, #8
 8001296:	46bd      	mov	sp, r7
 8001298:	bd80      	pop	{r7, pc}
 800129a:	bf00      	nop
 800129c:	40013000 	.word	0x40013000
 80012a0:	40020800 	.word	0x40020800

080012a4 <init_disp>:

void init_disp (void) {
 80012a4:	b580      	push	{r7, lr}
 80012a6:	af00      	add	r7, sp, #0

	SPI_send_cmd(0x01);
 80012a8:	2001      	movs	r0, #1
 80012aa:	f7ff ffa1 	bl	80011f0 <SPI_send_cmd>
	delay(160);
 80012ae:	20a0      	movs	r0, #160	; 0xa0
 80012b0:	f7ff fd04 	bl	8000cbc <delay>

	SPI_send_cmd(0x11);
 80012b4:	2011      	movs	r0, #17
 80012b6:	f7ff ff9b 	bl	80011f0 <SPI_send_cmd>
	delay(160);
 80012ba:	20a0      	movs	r0, #160	; 0xa0
 80012bc:	f7ff fcfe 	bl	8000cbc <delay>

	SPI_send_cmd(0x3A);
 80012c0:	203a      	movs	r0, #58	; 0x3a
 80012c2:	f7ff ff95 	bl	80011f0 <SPI_send_cmd>

	SPI_send_data(0x05);
 80012c6:	2005      	movs	r0, #5
 80012c8:	f7ff ffb0 	bl	800122c <SPI_send_data>

	SPI_send_cmd(0x36);
 80012cc:	2036      	movs	r0, #54	; 0x36
 80012ce:	f7ff ff8f 	bl	80011f0 <SPI_send_cmd>
	SPI_send_data(0xA0);
 80012d2:	20a0      	movs	r0, #160	; 0xa0
 80012d4:	f7ff ffaa 	bl	800122c <SPI_send_data>

	SPI_send_cmd(0xB1);
 80012d8:	20b1      	movs	r0, #177	; 0xb1
 80012da:	f7ff ff89 	bl	80011f0 <SPI_send_cmd>
	SPI_send_16byte_data(0x000F);
 80012de:	200f      	movs	r0, #15
 80012e0:	f7ff ffc2 	bl	8001268 <SPI_send_16byte_data>
	SPI_send_16byte_data(0x000F);
 80012e4:	200f      	movs	r0, #15
 80012e6:	f7ff ffbf 	bl	8001268 <SPI_send_16byte_data>
	SPI_send_16byte_data(0x000F);
 80012ea:	200f      	movs	r0, #15
 80012ec:	f7ff ffbc 	bl	8001268 <SPI_send_16byte_data>

	SPI_send_cmd(0x29);
 80012f0:	2029      	movs	r0, #41	; 0x29
 80012f2:	f7ff ff7d 	bl	80011f0 <SPI_send_cmd>

}
 80012f6:	bf00      	nop
 80012f8:	bd80      	pop	{r7, pc}
 80012fa:	bf00      	nop
 80012fc:	080106a4 	.word	0x080106a4
 8001300:	20020000 	.word	0x20020000
 8001304:	2002000c 	.word	0x2002000c
 8001308:	2002000c 	.word	0x2002000c
 800130c:	2002062c 	.word	0x2002062c

08001310 <__aeabi_drsub>:
 8001310:	f081 4100 	eor.w	r1, r1, #2147483648	; 0x80000000
 8001314:	e002      	b.n	800131c <__adddf3>
 8001316:	bf00      	nop

08001318 <__aeabi_dsub>:
 8001318:	f083 4300 	eor.w	r3, r3, #2147483648	; 0x80000000

0800131c <__adddf3>:
 800131c:	b530      	push	{r4, r5, lr}
 800131e:	ea4f 0441 	mov.w	r4, r1, lsl #1
 8001322:	ea4f 0543 	mov.w	r5, r3, lsl #1
 8001326:	ea94 0f05 	teq	r4, r5
 800132a:	bf08      	it	eq
 800132c:	ea90 0f02 	teqeq	r0, r2
 8001330:	bf1f      	itttt	ne
 8001332:	ea54 0c00 	orrsne.w	ip, r4, r0
 8001336:	ea55 0c02 	orrsne.w	ip, r5, r2
 800133a:	ea7f 5c64 	mvnsne.w	ip, r4, asr #21
 800133e:	ea7f 5c65 	mvnsne.w	ip, r5, asr #21
 8001342:	f000 80e2 	beq.w	800150a <__adddf3+0x1ee>
 8001346:	ea4f 5454 	mov.w	r4, r4, lsr #21
 800134a:	ebd4 5555 	rsbs	r5, r4, r5, lsr #21
 800134e:	bfb8      	it	lt
 8001350:	426d      	neglt	r5, r5
 8001352:	dd0c      	ble.n	800136e <__adddf3+0x52>
 8001354:	442c      	add	r4, r5
 8001356:	ea80 0202 	eor.w	r2, r0, r2
 800135a:	ea81 0303 	eor.w	r3, r1, r3
 800135e:	ea82 0000 	eor.w	r0, r2, r0
 8001362:	ea83 0101 	eor.w	r1, r3, r1
 8001366:	ea80 0202 	eor.w	r2, r0, r2
 800136a:	ea81 0303 	eor.w	r3, r1, r3
 800136e:	2d36      	cmp	r5, #54	; 0x36
 8001370:	bf88      	it	hi
 8001372:	bd30      	pophi	{r4, r5, pc}
 8001374:	f011 4f00 	tst.w	r1, #2147483648	; 0x80000000
 8001378:	ea4f 3101 	mov.w	r1, r1, lsl #12
 800137c:	f44f 1c80 	mov.w	ip, #1048576	; 0x100000
 8001380:	ea4c 3111 	orr.w	r1, ip, r1, lsr #12
 8001384:	d002      	beq.n	800138c <__adddf3+0x70>
 8001386:	4240      	negs	r0, r0
 8001388:	eb61 0141 	sbc.w	r1, r1, r1, lsl #1
 800138c:	f013 4f00 	tst.w	r3, #2147483648	; 0x80000000
 8001390:	ea4f 3303 	mov.w	r3, r3, lsl #12
 8001394:	ea4c 3313 	orr.w	r3, ip, r3, lsr #12
 8001398:	d002      	beq.n	80013a0 <__adddf3+0x84>
 800139a:	4252      	negs	r2, r2
 800139c:	eb63 0343 	sbc.w	r3, r3, r3, lsl #1
 80013a0:	ea94 0f05 	teq	r4, r5
 80013a4:	f000 80a7 	beq.w	80014f6 <__adddf3+0x1da>
 80013a8:	f1a4 0401 	sub.w	r4, r4, #1
 80013ac:	f1d5 0e20 	rsbs	lr, r5, #32
 80013b0:	db0d      	blt.n	80013ce <__adddf3+0xb2>
 80013b2:	fa02 fc0e 	lsl.w	ip, r2, lr
 80013b6:	fa22 f205 	lsr.w	r2, r2, r5
 80013ba:	1880      	adds	r0, r0, r2
 80013bc:	f141 0100 	adc.w	r1, r1, #0
 80013c0:	fa03 f20e 	lsl.w	r2, r3, lr
 80013c4:	1880      	adds	r0, r0, r2
 80013c6:	fa43 f305 	asr.w	r3, r3, r5
 80013ca:	4159      	adcs	r1, r3
 80013cc:	e00e      	b.n	80013ec <__adddf3+0xd0>
 80013ce:	f1a5 0520 	sub.w	r5, r5, #32
 80013d2:	f10e 0e20 	add.w	lr, lr, #32
 80013d6:	2a01      	cmp	r2, #1
 80013d8:	fa03 fc0e 	lsl.w	ip, r3, lr
 80013dc:	bf28      	it	cs
 80013de:	f04c 0c02 	orrcs.w	ip, ip, #2
 80013e2:	fa43 f305 	asr.w	r3, r3, r5
 80013e6:	18c0      	adds	r0, r0, r3
 80013e8:	eb51 71e3 	adcs.w	r1, r1, r3, asr #31
 80013ec:	f001 4500 	and.w	r5, r1, #2147483648	; 0x80000000
 80013f0:	d507      	bpl.n	8001402 <__adddf3+0xe6>
 80013f2:	f04f 0e00 	mov.w	lr, #0
 80013f6:	f1dc 0c00 	rsbs	ip, ip, #0
 80013fa:	eb7e 0000 	sbcs.w	r0, lr, r0
 80013fe:	eb6e 0101 	sbc.w	r1, lr, r1
 8001402:	f5b1 1f80 	cmp.w	r1, #1048576	; 0x100000
 8001406:	d31b      	bcc.n	8001440 <__adddf3+0x124>
 8001408:	f5b1 1f00 	cmp.w	r1, #2097152	; 0x200000
 800140c:	d30c      	bcc.n	8001428 <__adddf3+0x10c>
 800140e:	0849      	lsrs	r1, r1, #1
 8001410:	ea5f 0030 	movs.w	r0, r0, rrx
 8001414:	ea4f 0c3c 	mov.w	ip, ip, rrx
 8001418:	f104 0401 	add.w	r4, r4, #1
 800141c:	ea4f 5244 	mov.w	r2, r4, lsl #21
 8001420:	f512 0f80 	cmn.w	r2, #4194304	; 0x400000
 8001424:	f080 809a 	bcs.w	800155c <__adddf3+0x240>
 8001428:	f1bc 4f00 	cmp.w	ip, #2147483648	; 0x80000000
 800142c:	bf08      	it	eq
 800142e:	ea5f 0c50 	movseq.w	ip, r0, lsr #1
 8001432:	f150 0000 	adcs.w	r0, r0, #0
 8001436:	eb41 5104 	adc.w	r1, r1, r4, lsl #20
 800143a:	ea41 0105 	orr.w	r1, r1, r5
 800143e:	bd30      	pop	{r4, r5, pc}
 8001440:	ea5f 0c4c 	movs.w	ip, ip, lsl #1
 8001444:	4140      	adcs	r0, r0
 8001446:	eb41 0101 	adc.w	r1, r1, r1
 800144a:	f411 1f80 	tst.w	r1, #1048576	; 0x100000
 800144e:	f1a4 0401 	sub.w	r4, r4, #1
 8001452:	d1e9      	bne.n	8001428 <__adddf3+0x10c>
 8001454:	f091 0f00 	teq	r1, #0
 8001458:	bf04      	itt	eq
 800145a:	4601      	moveq	r1, r0
 800145c:	2000      	moveq	r0, #0
 800145e:	fab1 f381 	clz	r3, r1
 8001462:	bf08      	it	eq
 8001464:	3320      	addeq	r3, #32
 8001466:	f1a3 030b 	sub.w	r3, r3, #11
 800146a:	f1b3 0220 	subs.w	r2, r3, #32
 800146e:	da0c      	bge.n	800148a <__adddf3+0x16e>
 8001470:	320c      	adds	r2, #12
 8001472:	dd08      	ble.n	8001486 <__adddf3+0x16a>
 8001474:	f102 0c14 	add.w	ip, r2, #20
 8001478:	f1c2 020c 	rsb	r2, r2, #12
 800147c:	fa01 f00c 	lsl.w	r0, r1, ip
 8001480:	fa21 f102 	lsr.w	r1, r1, r2
 8001484:	e00c      	b.n	80014a0 <__adddf3+0x184>
 8001486:	f102 0214 	add.w	r2, r2, #20
 800148a:	bfd8      	it	le
 800148c:	f1c2 0c20 	rsble	ip, r2, #32
 8001490:	fa01 f102 	lsl.w	r1, r1, r2
 8001494:	fa20 fc0c 	lsr.w	ip, r0, ip
 8001498:	bfdc      	itt	le
 800149a:	ea41 010c 	orrle.w	r1, r1, ip
 800149e:	4090      	lslle	r0, r2
 80014a0:	1ae4      	subs	r4, r4, r3
 80014a2:	bfa2      	ittt	ge
 80014a4:	eb01 5104 	addge.w	r1, r1, r4, lsl #20
 80014a8:	4329      	orrge	r1, r5
 80014aa:	bd30      	popge	{r4, r5, pc}
 80014ac:	ea6f 0404 	mvn.w	r4, r4
 80014b0:	3c1f      	subs	r4, #31
 80014b2:	da1c      	bge.n	80014ee <__adddf3+0x1d2>
 80014b4:	340c      	adds	r4, #12
 80014b6:	dc0e      	bgt.n	80014d6 <__adddf3+0x1ba>
 80014b8:	f104 0414 	add.w	r4, r4, #20
 80014bc:	f1c4 0220 	rsb	r2, r4, #32
 80014c0:	fa20 f004 	lsr.w	r0, r0, r4
 80014c4:	fa01 f302 	lsl.w	r3, r1, r2
 80014c8:	ea40 0003 	orr.w	r0, r0, r3
 80014cc:	fa21 f304 	lsr.w	r3, r1, r4
 80014d0:	ea45 0103 	orr.w	r1, r5, r3
 80014d4:	bd30      	pop	{r4, r5, pc}
 80014d6:	f1c4 040c 	rsb	r4, r4, #12
 80014da:	f1c4 0220 	rsb	r2, r4, #32
 80014de:	fa20 f002 	lsr.w	r0, r0, r2
 80014e2:	fa01 f304 	lsl.w	r3, r1, r4
 80014e6:	ea40 0003 	orr.w	r0, r0, r3
 80014ea:	4629      	mov	r1, r5
 80014ec:	bd30      	pop	{r4, r5, pc}
 80014ee:	fa21 f004 	lsr.w	r0, r1, r4
 80014f2:	4629      	mov	r1, r5
 80014f4:	bd30      	pop	{r4, r5, pc}
 80014f6:	f094 0f00 	teq	r4, #0
 80014fa:	f483 1380 	eor.w	r3, r3, #1048576	; 0x100000
 80014fe:	bf06      	itte	eq
 8001500:	f481 1180 	eoreq.w	r1, r1, #1048576	; 0x100000
 8001504:	3401      	addeq	r4, #1
 8001506:	3d01      	subne	r5, #1
 8001508:	e74e      	b.n	80013a8 <__adddf3+0x8c>
 800150a:	ea7f 5c64 	mvns.w	ip, r4, asr #21
 800150e:	bf18      	it	ne
 8001510:	ea7f 5c65 	mvnsne.w	ip, r5, asr #21
 8001514:	d029      	beq.n	800156a <__adddf3+0x24e>
 8001516:	ea94 0f05 	teq	r4, r5
 800151a:	bf08      	it	eq
 800151c:	ea90 0f02 	teqeq	r0, r2
 8001520:	d005      	beq.n	800152e <__adddf3+0x212>
 8001522:	ea54 0c00 	orrs.w	ip, r4, r0
 8001526:	bf04      	itt	eq
 8001528:	4619      	moveq	r1, r3
 800152a:	4610      	moveq	r0, r2
 800152c:	bd30      	pop	{r4, r5, pc}
 800152e:	ea91 0f03 	teq	r1, r3
 8001532:	bf1e      	ittt	ne
 8001534:	2100      	movne	r1, #0
 8001536:	2000      	movne	r0, #0
 8001538:	bd30      	popne	{r4, r5, pc}
 800153a:	ea5f 5c54 	movs.w	ip, r4, lsr #21
 800153e:	d105      	bne.n	800154c <__adddf3+0x230>
 8001540:	0040      	lsls	r0, r0, #1
 8001542:	4149      	adcs	r1, r1
 8001544:	bf28      	it	cs
 8001546:	f041 4100 	orrcs.w	r1, r1, #2147483648	; 0x80000000
 800154a:	bd30      	pop	{r4, r5, pc}
 800154c:	f514 0480 	adds.w	r4, r4, #4194304	; 0x400000
 8001550:	bf3c      	itt	cc
 8001552:	f501 1180 	addcc.w	r1, r1, #1048576	; 0x100000
 8001556:	bd30      	popcc	{r4, r5, pc}
 8001558:	f001 4500 	and.w	r5, r1, #2147483648	; 0x80000000
 800155c:	f045 41fe 	orr.w	r1, r5, #2130706432	; 0x7f000000
 8001560:	f441 0170 	orr.w	r1, r1, #15728640	; 0xf00000
 8001564:	f04f 0000 	mov.w	r0, #0
 8001568:	bd30      	pop	{r4, r5, pc}
 800156a:	ea7f 5c64 	mvns.w	ip, r4, asr #21
 800156e:	bf1a      	itte	ne
 8001570:	4619      	movne	r1, r3
 8001572:	4610      	movne	r0, r2
 8001574:	ea7f 5c65 	mvnseq.w	ip, r5, asr #21
 8001578:	bf1c      	itt	ne
 800157a:	460b      	movne	r3, r1
 800157c:	4602      	movne	r2, r0
 800157e:	ea50 3401 	orrs.w	r4, r0, r1, lsl #12
 8001582:	bf06      	itte	eq
 8001584:	ea52 3503 	orrseq.w	r5, r2, r3, lsl #12
 8001588:	ea91 0f03 	teqeq	r1, r3
 800158c:	f441 2100 	orrne.w	r1, r1, #524288	; 0x80000
 8001590:	bd30      	pop	{r4, r5, pc}
 8001592:	bf00      	nop

08001594 <__aeabi_ui2d>:
 8001594:	f090 0f00 	teq	r0, #0
 8001598:	bf04      	itt	eq
 800159a:	2100      	moveq	r1, #0
 800159c:	4770      	bxeq	lr
 800159e:	b530      	push	{r4, r5, lr}
 80015a0:	f44f 6480 	mov.w	r4, #1024	; 0x400
 80015a4:	f104 0432 	add.w	r4, r4, #50	; 0x32
 80015a8:	f04f 0500 	mov.w	r5, #0
 80015ac:	f04f 0100 	mov.w	r1, #0
 80015b0:	e750      	b.n	8001454 <__adddf3+0x138>
 80015b2:	bf00      	nop

080015b4 <__aeabi_i2d>:
 80015b4:	f090 0f00 	teq	r0, #0
 80015b8:	bf04      	itt	eq
 80015ba:	2100      	moveq	r1, #0
 80015bc:	4770      	bxeq	lr
 80015be:	b530      	push	{r4, r5, lr}
 80015c0:	f44f 6480 	mov.w	r4, #1024	; 0x400
 80015c4:	f104 0432 	add.w	r4, r4, #50	; 0x32
 80015c8:	f010 4500 	ands.w	r5, r0, #2147483648	; 0x80000000
 80015cc:	bf48      	it	mi
 80015ce:	4240      	negmi	r0, r0
 80015d0:	f04f 0100 	mov.w	r1, #0
 80015d4:	e73e      	b.n	8001454 <__adddf3+0x138>
 80015d6:	bf00      	nop

080015d8 <__aeabi_f2d>:
 80015d8:	0042      	lsls	r2, r0, #1
 80015da:	ea4f 01e2 	mov.w	r1, r2, asr #3
 80015de:	ea4f 0131 	mov.w	r1, r1, rrx
 80015e2:	ea4f 7002 	mov.w	r0, r2, lsl #28
 80015e6:	bf1f      	itttt	ne
 80015e8:	f012 437f 	andsne.w	r3, r2, #4278190080	; 0xff000000
 80015ec:	f093 4f7f 	teqne	r3, #4278190080	; 0xff000000
 80015f0:	f081 5160 	eorne.w	r1, r1, #939524096	; 0x38000000
 80015f4:	4770      	bxne	lr
 80015f6:	f092 0f00 	teq	r2, #0
 80015fa:	bf14      	ite	ne
 80015fc:	f093 4f7f 	teqne	r3, #4278190080	; 0xff000000
 8001600:	4770      	bxeq	lr
 8001602:	b530      	push	{r4, r5, lr}
 8001604:	f44f 7460 	mov.w	r4, #896	; 0x380
 8001608:	f001 4500 	and.w	r5, r1, #2147483648	; 0x80000000
 800160c:	f021 4100 	bic.w	r1, r1, #2147483648	; 0x80000000
 8001610:	e720      	b.n	8001454 <__adddf3+0x138>
 8001612:	bf00      	nop

08001614 <__aeabi_ul2d>:
 8001614:	ea50 0201 	orrs.w	r2, r0, r1
 8001618:	bf08      	it	eq
 800161a:	4770      	bxeq	lr
 800161c:	b530      	push	{r4, r5, lr}
 800161e:	f04f 0500 	mov.w	r5, #0
 8001622:	e00a      	b.n	800163a <__aeabi_l2d+0x16>

08001624 <__aeabi_l2d>:
 8001624:	ea50 0201 	orrs.w	r2, r0, r1
 8001628:	bf08      	it	eq
 800162a:	4770      	bxeq	lr
 800162c:	b530      	push	{r4, r5, lr}
 800162e:	f011 4500 	ands.w	r5, r1, #2147483648	; 0x80000000
 8001632:	d502      	bpl.n	800163a <__aeabi_l2d+0x16>
 8001634:	4240      	negs	r0, r0
 8001636:	eb61 0141 	sbc.w	r1, r1, r1, lsl #1
 800163a:	f44f 6480 	mov.w	r4, #1024	; 0x400
 800163e:	f104 0432 	add.w	r4, r4, #50	; 0x32
 8001642:	ea5f 5c91 	movs.w	ip, r1, lsr #22
 8001646:	f43f aedc 	beq.w	8001402 <__adddf3+0xe6>
 800164a:	f04f 0203 	mov.w	r2, #3
 800164e:	ea5f 0cdc 	movs.w	ip, ip, lsr #3
 8001652:	bf18      	it	ne
 8001654:	3203      	addne	r2, #3
 8001656:	ea5f 0cdc 	movs.w	ip, ip, lsr #3
 800165a:	bf18      	it	ne
 800165c:	3203      	addne	r2, #3
 800165e:	eb02 02dc 	add.w	r2, r2, ip, lsr #3
 8001662:	f1c2 0320 	rsb	r3, r2, #32
 8001666:	fa00 fc03 	lsl.w	ip, r0, r3
 800166a:	fa20 f002 	lsr.w	r0, r0, r2
 800166e:	fa01 fe03 	lsl.w	lr, r1, r3
 8001672:	ea40 000e 	orr.w	r0, r0, lr
 8001676:	fa21 f102 	lsr.w	r1, r1, r2
 800167a:	4414      	add	r4, r2
 800167c:	e6c1      	b.n	8001402 <__adddf3+0xe6>
 800167e:	bf00      	nop

08001680 <__aeabi_dmul>:
 8001680:	b570      	push	{r4, r5, r6, lr}
 8001682:	f04f 0cff 	mov.w	ip, #255	; 0xff
 8001686:	f44c 6ce0 	orr.w	ip, ip, #1792	; 0x700
 800168a:	ea1c 5411 	ands.w	r4, ip, r1, lsr #20
 800168e:	bf1d      	ittte	ne
 8001690:	ea1c 5513 	andsne.w	r5, ip, r3, lsr #20
 8001694:	ea94 0f0c 	teqne	r4, ip
 8001698:	ea95 0f0c 	teqne	r5, ip
 800169c:	f000 f8de 	bleq	800185c <__aeabi_dmul+0x1dc>
 80016a0:	442c      	add	r4, r5
 80016a2:	ea81 0603 	eor.w	r6, r1, r3
 80016a6:	ea21 514c 	bic.w	r1, r1, ip, lsl #21
 80016aa:	ea23 534c 	bic.w	r3, r3, ip, lsl #21
 80016ae:	ea50 3501 	orrs.w	r5, r0, r1, lsl #12
 80016b2:	bf18      	it	ne
 80016b4:	ea52 3503 	orrsne.w	r5, r2, r3, lsl #12
 80016b8:	f441 1180 	orr.w	r1, r1, #1048576	; 0x100000
 80016bc:	f443 1380 	orr.w	r3, r3, #1048576	; 0x100000
 80016c0:	d038      	beq.n	8001734 <__aeabi_dmul+0xb4>
 80016c2:	fba0 ce02 	umull	ip, lr, r0, r2
 80016c6:	f04f 0500 	mov.w	r5, #0
 80016ca:	fbe1 e502 	umlal	lr, r5, r1, r2
 80016ce:	f006 4200 	and.w	r2, r6, #2147483648	; 0x80000000
 80016d2:	fbe0 e503 	umlal	lr, r5, r0, r3
 80016d6:	f04f 0600 	mov.w	r6, #0
 80016da:	fbe1 5603 	umlal	r5, r6, r1, r3
 80016de:	f09c 0f00 	teq	ip, #0
 80016e2:	bf18      	it	ne
 80016e4:	f04e 0e01 	orrne.w	lr, lr, #1
 80016e8:	f1a4 04ff 	sub.w	r4, r4, #255	; 0xff
 80016ec:	f5b6 7f00 	cmp.w	r6, #512	; 0x200
 80016f0:	f564 7440 	sbc.w	r4, r4, #768	; 0x300
 80016f4:	d204      	bcs.n	8001700 <__aeabi_dmul+0x80>
 80016f6:	ea5f 0e4e 	movs.w	lr, lr, lsl #1
 80016fa:	416d      	adcs	r5, r5
 80016fc:	eb46 0606 	adc.w	r6, r6, r6
 8001700:	ea42 21c6 	orr.w	r1, r2, r6, lsl #11
 8001704:	ea41 5155 	orr.w	r1, r1, r5, lsr #21
 8001708:	ea4f 20c5 	mov.w	r0, r5, lsl #11
 800170c:	ea40 505e 	orr.w	r0, r0, lr, lsr #21
 8001710:	ea4f 2ece 	mov.w	lr, lr, lsl #11
 8001714:	f1b4 0cfd 	subs.w	ip, r4, #253	; 0xfd
 8001718:	bf88      	it	hi
 800171a:	f5bc 6fe0 	cmphi.w	ip, #1792	; 0x700
 800171e:	d81e      	bhi.n	800175e <__aeabi_dmul+0xde>
 8001720:	f1be 4f00 	cmp.w	lr, #2147483648	; 0x80000000
 8001724:	bf08      	it	eq
 8001726:	ea5f 0e50 	movseq.w	lr, r0, lsr #1
 800172a:	f150 0000 	adcs.w	r0, r0, #0
 800172e:	eb41 5104 	adc.w	r1, r1, r4, lsl #20
 8001732:	bd70      	pop	{r4, r5, r6, pc}
 8001734:	f006 4600 	and.w	r6, r6, #2147483648	; 0x80000000
 8001738:	ea46 0101 	orr.w	r1, r6, r1
 800173c:	ea40 0002 	orr.w	r0, r0, r2
 8001740:	ea81 0103 	eor.w	r1, r1, r3
 8001744:	ebb4 045c 	subs.w	r4, r4, ip, lsr #1
 8001748:	bfc2      	ittt	gt
 800174a:	ebd4 050c 	rsbsgt	r5, r4, ip
 800174e:	ea41 5104 	orrgt.w	r1, r1, r4, lsl #20
 8001752:	bd70      	popgt	{r4, r5, r6, pc}
 8001754:	f441 1180 	orr.w	r1, r1, #1048576	; 0x100000
 8001758:	f04f 0e00 	mov.w	lr, #0
 800175c:	3c01      	subs	r4, #1
 800175e:	f300 80ab 	bgt.w	80018b8 <__aeabi_dmul+0x238>
 8001762:	f114 0f36 	cmn.w	r4, #54	; 0x36
 8001766:	bfde      	ittt	le
 8001768:	2000      	movle	r0, #0
 800176a:	f001 4100 	andle.w	r1, r1, #2147483648	; 0x80000000
 800176e:	bd70      	pople	{r4, r5, r6, pc}
 8001770:	f1c4 0400 	rsb	r4, r4, #0
 8001774:	3c20      	subs	r4, #32
 8001776:	da35      	bge.n	80017e4 <__aeabi_dmul+0x164>
 8001778:	340c      	adds	r4, #12
 800177a:	dc1b      	bgt.n	80017b4 <__aeabi_dmul+0x134>
 800177c:	f104 0414 	add.w	r4, r4, #20
 8001780:	f1c4 0520 	rsb	r5, r4, #32
 8001784:	fa00 f305 	lsl.w	r3, r0, r5
 8001788:	fa20 f004 	lsr.w	r0, r0, r4
 800178c:	fa01 f205 	lsl.w	r2, r1, r5
 8001790:	ea40 0002 	orr.w	r0, r0, r2
 8001794:	f001 4200 	and.w	r2, r1, #2147483648	; 0x80000000
 8001798:	f021 4100 	bic.w	r1, r1, #2147483648	; 0x80000000
 800179c:	eb10 70d3 	adds.w	r0, r0, r3, lsr #31
 80017a0:	fa21 f604 	lsr.w	r6, r1, r4
 80017a4:	eb42 0106 	adc.w	r1, r2, r6
 80017a8:	ea5e 0e43 	orrs.w	lr, lr, r3, lsl #1
 80017ac:	bf08      	it	eq
 80017ae:	ea20 70d3 	biceq.w	r0, r0, r3, lsr #31
 80017b2:	bd70      	pop	{r4, r5, r6, pc}
 80017b4:	f1c4 040c 	rsb	r4, r4, #12
 80017b8:	f1c4 0520 	rsb	r5, r4, #32
 80017bc:	fa00 f304 	lsl.w	r3, r0, r4
 80017c0:	fa20 f005 	lsr.w	r0, r0, r5
 80017c4:	fa01 f204 	lsl.w	r2, r1, r4
 80017c8:	ea40 0002 	orr.w	r0, r0, r2
 80017cc:	f001 4100 	and.w	r1, r1, #2147483648	; 0x80000000
 80017d0:	eb10 70d3 	adds.w	r0, r0, r3, lsr #31
 80017d4:	f141 0100 	adc.w	r1, r1, #0
 80017d8:	ea5e 0e43 	orrs.w	lr, lr, r3, lsl #1
 80017dc:	bf08      	it	eq
 80017de:	ea20 70d3 	biceq.w	r0, r0, r3, lsr #31
 80017e2:	bd70      	pop	{r4, r5, r6, pc}
 80017e4:	f1c4 0520 	rsb	r5, r4, #32
 80017e8:	fa00 f205 	lsl.w	r2, r0, r5
 80017ec:	ea4e 0e02 	orr.w	lr, lr, r2
 80017f0:	fa20 f304 	lsr.w	r3, r0, r4
 80017f4:	fa01 f205 	lsl.w	r2, r1, r5
 80017f8:	ea43 0302 	orr.w	r3, r3, r2
 80017fc:	fa21 f004 	lsr.w	r0, r1, r4
 8001800:	f001 4100 	and.w	r1, r1, #2147483648	; 0x80000000
 8001804:	fa21 f204 	lsr.w	r2, r1, r4
 8001808:	ea20 0002 	bic.w	r0, r0, r2
 800180c:	eb00 70d3 	add.w	r0, r0, r3, lsr #31
 8001810:	ea5e 0e43 	orrs.w	lr, lr, r3, lsl #1
 8001814:	bf08      	it	eq
 8001816:	ea20 70d3 	biceq.w	r0, r0, r3, lsr #31
 800181a:	bd70      	pop	{r4, r5, r6, pc}
 800181c:	f094 0f00 	teq	r4, #0
 8001820:	d10f      	bne.n	8001842 <__aeabi_dmul+0x1c2>
 8001822:	f001 4600 	and.w	r6, r1, #2147483648	; 0x80000000
 8001826:	0040      	lsls	r0, r0, #1
 8001828:	eb41 0101 	adc.w	r1, r1, r1
 800182c:	f411 1f80 	tst.w	r1, #1048576	; 0x100000
 8001830:	bf08      	it	eq
 8001832:	3c01      	subeq	r4, #1
 8001834:	d0f7      	beq.n	8001826 <__aeabi_dmul+0x1a6>
 8001836:	ea41 0106 	orr.w	r1, r1, r6
 800183a:	f095 0f00 	teq	r5, #0
 800183e:	bf18      	it	ne
 8001840:	4770      	bxne	lr
 8001842:	f003 4600 	and.w	r6, r3, #2147483648	; 0x80000000
 8001846:	0052      	lsls	r2, r2, #1
 8001848:	eb43 0303 	adc.w	r3, r3, r3
 800184c:	f413 1f80 	tst.w	r3, #1048576	; 0x100000
 8001850:	bf08      	it	eq
 8001852:	3d01      	subeq	r5, #1
 8001854:	d0f7      	beq.n	8001846 <__aeabi_dmul+0x1c6>
 8001856:	ea43 0306 	orr.w	r3, r3, r6
 800185a:	4770      	bx	lr
 800185c:	ea94 0f0c 	teq	r4, ip
 8001860:	ea0c 5513 	and.w	r5, ip, r3, lsr #20
 8001864:	bf18      	it	ne
 8001866:	ea95 0f0c 	teqne	r5, ip
 800186a:	d00c      	beq.n	8001886 <__aeabi_dmul+0x206>
 800186c:	ea50 0641 	orrs.w	r6, r0, r1, lsl #1
 8001870:	bf18      	it	ne
 8001872:	ea52 0643 	orrsne.w	r6, r2, r3, lsl #1
 8001876:	d1d1      	bne.n	800181c <__aeabi_dmul+0x19c>
 8001878:	ea81 0103 	eor.w	r1, r1, r3
 800187c:	f001 4100 	and.w	r1, r1, #2147483648	; 0x80000000
 8001880:	f04f 0000 	mov.w	r0, #0
 8001884:	bd70      	pop	{r4, r5, r6, pc}
 8001886:	ea50 0641 	orrs.w	r6, r0, r1, lsl #1
 800188a:	bf06      	itte	eq
 800188c:	4610      	moveq	r0, r2
 800188e:	4619      	moveq	r1, r3
 8001890:	ea52 0643 	orrsne.w	r6, r2, r3, lsl #1
 8001894:	d019      	beq.n	80018ca <__aeabi_dmul+0x24a>
 8001896:	ea94 0f0c 	teq	r4, ip
 800189a:	d102      	bne.n	80018a2 <__aeabi_dmul+0x222>
 800189c:	ea50 3601 	orrs.w	r6, r0, r1, lsl #12
 80018a0:	d113      	bne.n	80018ca <__aeabi_dmul+0x24a>
 80018a2:	ea95 0f0c 	teq	r5, ip
 80018a6:	d105      	bne.n	80018b4 <__aeabi_dmul+0x234>
 80018a8:	ea52 3603 	orrs.w	r6, r2, r3, lsl #12
 80018ac:	bf1c      	itt	ne
 80018ae:	4610      	movne	r0, r2
 80018b0:	4619      	movne	r1, r3
 80018b2:	d10a      	bne.n	80018ca <__aeabi_dmul+0x24a>
 80018b4:	ea81 0103 	eor.w	r1, r1, r3
 80018b8:	f001 4100 	and.w	r1, r1, #2147483648	; 0x80000000
 80018bc:	f041 41fe 	orr.w	r1, r1, #2130706432	; 0x7f000000
 80018c0:	f441 0170 	orr.w	r1, r1, #15728640	; 0xf00000
 80018c4:	f04f 0000 	mov.w	r0, #0
 80018c8:	bd70      	pop	{r4, r5, r6, pc}
 80018ca:	f041 41fe 	orr.w	r1, r1, #2130706432	; 0x7f000000
 80018ce:	f441 0178 	orr.w	r1, r1, #16252928	; 0xf80000
 80018d2:	bd70      	pop	{r4, r5, r6, pc}

080018d4 <__aeabi_ddiv>:
 80018d4:	b570      	push	{r4, r5, r6, lr}
 80018d6:	f04f 0cff 	mov.w	ip, #255	; 0xff
 80018da:	f44c 6ce0 	orr.w	ip, ip, #1792	; 0x700
 80018de:	ea1c 5411 	ands.w	r4, ip, r1, lsr #20
 80018e2:	bf1d      	ittte	ne
 80018e4:	ea1c 5513 	andsne.w	r5, ip, r3, lsr #20
 80018e8:	ea94 0f0c 	teqne	r4, ip
 80018ec:	ea95 0f0c 	teqne	r5, ip
 80018f0:	f000 f8a7 	bleq	8001a42 <__aeabi_ddiv+0x16e>
 80018f4:	eba4 0405 	sub.w	r4, r4, r5
 80018f8:	ea81 0e03 	eor.w	lr, r1, r3
 80018fc:	ea52 3503 	orrs.w	r5, r2, r3, lsl #12
 8001900:	ea4f 3101 	mov.w	r1, r1, lsl #12
 8001904:	f000 8088 	beq.w	8001a18 <__aeabi_ddiv+0x144>
 8001908:	ea4f 3303 	mov.w	r3, r3, lsl #12
 800190c:	f04f 5580 	mov.w	r5, #268435456	; 0x10000000
 8001910:	ea45 1313 	orr.w	r3, r5, r3, lsr #4
 8001914:	ea43 6312 	orr.w	r3, r3, r2, lsr #24
 8001918:	ea4f 2202 	mov.w	r2, r2, lsl #8
 800191c:	ea45 1511 	orr.w	r5, r5, r1, lsr #4
 8001920:	ea45 6510 	orr.w	r5, r5, r0, lsr #24
 8001924:	ea4f 2600 	mov.w	r6, r0, lsl #8
 8001928:	f00e 4100 	and.w	r1, lr, #2147483648	; 0x80000000
 800192c:	429d      	cmp	r5, r3
 800192e:	bf08      	it	eq
 8001930:	4296      	cmpeq	r6, r2
 8001932:	f144 04fd 	adc.w	r4, r4, #253	; 0xfd
 8001936:	f504 7440 	add.w	r4, r4, #768	; 0x300
 800193a:	d202      	bcs.n	8001942 <__aeabi_ddiv+0x6e>
 800193c:	085b      	lsrs	r3, r3, #1
 800193e:	ea4f 0232 	mov.w	r2, r2, rrx
 8001942:	1ab6      	subs	r6, r6, r2
 8001944:	eb65 0503 	sbc.w	r5, r5, r3
 8001948:	085b      	lsrs	r3, r3, #1
 800194a:	ea4f 0232 	mov.w	r2, r2, rrx
 800194e:	f44f 1080 	mov.w	r0, #1048576	; 0x100000
 8001952:	f44f 2c00 	mov.w	ip, #524288	; 0x80000
 8001956:	ebb6 0e02 	subs.w	lr, r6, r2
 800195a:	eb75 0e03 	sbcs.w	lr, r5, r3
 800195e:	bf22      	ittt	cs
 8001960:	1ab6      	subcs	r6, r6, r2
 8001962:	4675      	movcs	r5, lr
 8001964:	ea40 000c 	orrcs.w	r0, r0, ip
 8001968:	085b      	lsrs	r3, r3, #1
 800196a:	ea4f 0232 	mov.w	r2, r2, rrx
 800196e:	ebb6 0e02 	subs.w	lr, r6, r2
 8001972:	eb75 0e03 	sbcs.w	lr, r5, r3
 8001976:	bf22      	ittt	cs
 8001978:	1ab6      	subcs	r6, r6, r2
 800197a:	4675      	movcs	r5, lr
 800197c:	ea40 005c 	orrcs.w	r0, r0, ip, lsr #1
 8001980:	085b      	lsrs	r3, r3, #1
 8001982:	ea4f 0232 	mov.w	r2, r2, rrx
 8001986:	ebb6 0e02 	subs.w	lr, r6, r2
 800198a:	eb75 0e03 	sbcs.w	lr, r5, r3
 800198e:	bf22      	ittt	cs
 8001990:	1ab6      	subcs	r6, r6, r2
 8001992:	4675      	movcs	r5, lr
 8001994:	ea40 009c 	orrcs.w	r0, r0, ip, lsr #2
 8001998:	085b      	lsrs	r3, r3, #1
 800199a:	ea4f 0232 	mov.w	r2, r2, rrx
 800199e:	ebb6 0e02 	subs.w	lr, r6, r2
 80019a2:	eb75 0e03 	sbcs.w	lr, r5, r3
 80019a6:	bf22      	ittt	cs
 80019a8:	1ab6      	subcs	r6, r6, r2
 80019aa:	4675      	movcs	r5, lr
 80019ac:	ea40 00dc 	orrcs.w	r0, r0, ip, lsr #3
 80019b0:	ea55 0e06 	orrs.w	lr, r5, r6
 80019b4:	d018      	beq.n	80019e8 <__aeabi_ddiv+0x114>
 80019b6:	ea4f 1505 	mov.w	r5, r5, lsl #4
 80019ba:	ea45 7516 	orr.w	r5, r5, r6, lsr #28
 80019be:	ea4f 1606 	mov.w	r6, r6, lsl #4
 80019c2:	ea4f 03c3 	mov.w	r3, r3, lsl #3
 80019c6:	ea43 7352 	orr.w	r3, r3, r2, lsr #29
 80019ca:	ea4f 02c2 	mov.w	r2, r2, lsl #3
 80019ce:	ea5f 1c1c 	movs.w	ip, ip, lsr #4
 80019d2:	d1c0      	bne.n	8001956 <__aeabi_ddiv+0x82>
 80019d4:	f411 1f80 	tst.w	r1, #1048576	; 0x100000
 80019d8:	d10b      	bne.n	80019f2 <__aeabi_ddiv+0x11e>
 80019da:	ea41 0100 	orr.w	r1, r1, r0
 80019de:	f04f 0000 	mov.w	r0, #0
 80019e2:	f04f 4c00 	mov.w	ip, #2147483648	; 0x80000000
 80019e6:	e7b6      	b.n	8001956 <__aeabi_ddiv+0x82>
 80019e8:	f411 1f80 	tst.w	r1, #1048576	; 0x100000
 80019ec:	bf04      	itt	eq
 80019ee:	4301      	orreq	r1, r0
 80019f0:	2000      	moveq	r0, #0
 80019f2:	f1b4 0cfd 	subs.w	ip, r4, #253	; 0xfd
 80019f6:	bf88      	it	hi
 80019f8:	f5bc 6fe0 	cmphi.w	ip, #1792	; 0x700
 80019fc:	f63f aeaf 	bhi.w	800175e <__aeabi_dmul+0xde>
 8001a00:	ebb5 0c03 	subs.w	ip, r5, r3
 8001a04:	bf04      	itt	eq
 8001a06:	ebb6 0c02 	subseq.w	ip, r6, r2
 8001a0a:	ea5f 0c50 	movseq.w	ip, r0, lsr #1
 8001a0e:	f150 0000 	adcs.w	r0, r0, #0
 8001a12:	eb41 5104 	adc.w	r1, r1, r4, lsl #20
 8001a16:	bd70      	pop	{r4, r5, r6, pc}
 8001a18:	f00e 4e00 	and.w	lr, lr, #2147483648	; 0x80000000
 8001a1c:	ea4e 3111 	orr.w	r1, lr, r1, lsr #12
 8001a20:	eb14 045c 	adds.w	r4, r4, ip, lsr #1
 8001a24:	bfc2      	ittt	gt
 8001a26:	ebd4 050c 	rsbsgt	r5, r4, ip
 8001a2a:	ea41 5104 	orrgt.w	r1, r1, r4, lsl #20
 8001a2e:	bd70      	popgt	{r4, r5, r6, pc}
 8001a30:	f441 1180 	orr.w	r1, r1, #1048576	; 0x100000
 8001a34:	f04f 0e00 	mov.w	lr, #0
 8001a38:	3c01      	subs	r4, #1
 8001a3a:	e690      	b.n	800175e <__aeabi_dmul+0xde>
 8001a3c:	ea45 0e06 	orr.w	lr, r5, r6
 8001a40:	e68d      	b.n	800175e <__aeabi_dmul+0xde>
 8001a42:	ea0c 5513 	and.w	r5, ip, r3, lsr #20
 8001a46:	ea94 0f0c 	teq	r4, ip
 8001a4a:	bf08      	it	eq
 8001a4c:	ea95 0f0c 	teqeq	r5, ip
 8001a50:	f43f af3b 	beq.w	80018ca <__aeabi_dmul+0x24a>
 8001a54:	ea94 0f0c 	teq	r4, ip
 8001a58:	d10a      	bne.n	8001a70 <__aeabi_ddiv+0x19c>
 8001a5a:	ea50 3401 	orrs.w	r4, r0, r1, lsl #12
 8001a5e:	f47f af34 	bne.w	80018ca <__aeabi_dmul+0x24a>
 8001a62:	ea95 0f0c 	teq	r5, ip
 8001a66:	f47f af25 	bne.w	80018b4 <__aeabi_dmul+0x234>
 8001a6a:	4610      	mov	r0, r2
 8001a6c:	4619      	mov	r1, r3
 8001a6e:	e72c      	b.n	80018ca <__aeabi_dmul+0x24a>
 8001a70:	ea95 0f0c 	teq	r5, ip
 8001a74:	d106      	bne.n	8001a84 <__aeabi_ddiv+0x1b0>
 8001a76:	ea52 3503 	orrs.w	r5, r2, r3, lsl #12
 8001a7a:	f43f aefd 	beq.w	8001878 <__aeabi_dmul+0x1f8>
 8001a7e:	4610      	mov	r0, r2
 8001a80:	4619      	mov	r1, r3
 8001a82:	e722      	b.n	80018ca <__aeabi_dmul+0x24a>
 8001a84:	ea50 0641 	orrs.w	r6, r0, r1, lsl #1
 8001a88:	bf18      	it	ne
 8001a8a:	ea52 0643 	orrsne.w	r6, r2, r3, lsl #1
 8001a8e:	f47f aec5 	bne.w	800181c <__aeabi_dmul+0x19c>
 8001a92:	ea50 0441 	orrs.w	r4, r0, r1, lsl #1
 8001a96:	f47f af0d 	bne.w	80018b4 <__aeabi_dmul+0x234>
 8001a9a:	ea52 0543 	orrs.w	r5, r2, r3, lsl #1
 8001a9e:	f47f aeeb 	bne.w	8001878 <__aeabi_dmul+0x1f8>
 8001aa2:	e712      	b.n	80018ca <__aeabi_dmul+0x24a>

08001aa4 <__aeabi_d2f>:
 8001aa4:	ea4f 0241 	mov.w	r2, r1, lsl #1
 8001aa8:	f1b2 43e0 	subs.w	r3, r2, #1879048192	; 0x70000000
 8001aac:	bf24      	itt	cs
 8001aae:	f5b3 1c00 	subscs.w	ip, r3, #2097152	; 0x200000
 8001ab2:	f1dc 5cfe 	rsbscs	ip, ip, #532676608	; 0x1fc00000
 8001ab6:	d90d      	bls.n	8001ad4 <__aeabi_d2f+0x30>
 8001ab8:	f001 4c00 	and.w	ip, r1, #2147483648	; 0x80000000
 8001abc:	ea4f 02c0 	mov.w	r2, r0, lsl #3
 8001ac0:	ea4c 7050 	orr.w	r0, ip, r0, lsr #29
 8001ac4:	f1b2 4f00 	cmp.w	r2, #2147483648	; 0x80000000
 8001ac8:	eb40 0083 	adc.w	r0, r0, r3, lsl #2
 8001acc:	bf08      	it	eq
 8001ace:	f020 0001 	biceq.w	r0, r0, #1
 8001ad2:	4770      	bx	lr
 8001ad4:	f011 4f80 	tst.w	r1, #1073741824	; 0x40000000
 8001ad8:	d121      	bne.n	8001b1e <__aeabi_d2f+0x7a>
 8001ada:	f113 7238 	adds.w	r2, r3, #48234496	; 0x2e00000
 8001ade:	bfbc      	itt	lt
 8001ae0:	f001 4000 	andlt.w	r0, r1, #2147483648	; 0x80000000
 8001ae4:	4770      	bxlt	lr
 8001ae6:	f441 1180 	orr.w	r1, r1, #1048576	; 0x100000
 8001aea:	ea4f 5252 	mov.w	r2, r2, lsr #21
 8001aee:	f1c2 0218 	rsb	r2, r2, #24
 8001af2:	f1c2 0c20 	rsb	ip, r2, #32
 8001af6:	fa10 f30c 	lsls.w	r3, r0, ip
 8001afa:	fa20 f002 	lsr.w	r0, r0, r2
 8001afe:	bf18      	it	ne
 8001b00:	f040 0001 	orrne.w	r0, r0, #1
 8001b04:	ea4f 23c1 	mov.w	r3, r1, lsl #11
 8001b08:	ea4f 23d3 	mov.w	r3, r3, lsr #11
 8001b0c:	fa03 fc0c 	lsl.w	ip, r3, ip
 8001b10:	ea40 000c 	orr.w	r0, r0, ip
 8001b14:	fa23 f302 	lsr.w	r3, r3, r2
 8001b18:	ea4f 0343 	mov.w	r3, r3, lsl #1
 8001b1c:	e7cc      	b.n	8001ab8 <__aeabi_d2f+0x14>
 8001b1e:	ea7f 5362 	mvns.w	r3, r2, asr #21
 8001b22:	d107      	bne.n	8001b34 <__aeabi_d2f+0x90>
 8001b24:	ea50 3301 	orrs.w	r3, r0, r1, lsl #12
 8001b28:	bf1e      	ittt	ne
 8001b2a:	f04f 40fe 	movne.w	r0, #2130706432	; 0x7f000000
 8001b2e:	f440 0040 	orrne.w	r0, r0, #12582912	; 0xc00000
 8001b32:	4770      	bxne	lr
 8001b34:	f001 4000 	and.w	r0, r1, #2147483648	; 0x80000000
 8001b38:	f040 40fe 	orr.w	r0, r0, #2130706432	; 0x7f000000
 8001b3c:	f440 0000 	orr.w	r0, r0, #8388608	; 0x800000
 8001b40:	4770      	bx	lr
 8001b42:	bf00      	nop

08001b44 <Reset_Handler>:

    .section  .text.Reset_Handler
  .weak  Reset_Handler
  .type  Reset_Handler, %function
Reset_Handler:  
  ldr   sp, =_estack      /* set stack pointer */
 8001b44:	f8df d034 	ldr.w	sp, [pc, #52]	; 8001b7c <LoopFillZerobss+0x14>

/* Copy the data segment initializers from flash to SRAM */  
  movs  r1, #0
 8001b48:	2100      	movs	r1, #0
  b  LoopCopyDataInit
 8001b4a:	e003      	b.n	8001b54 <LoopCopyDataInit>

08001b4c <CopyDataInit>:

CopyDataInit:
  ldr  r3, =_sidata
 8001b4c:	4b0c      	ldr	r3, [pc, #48]	; (8001b80 <LoopFillZerobss+0x18>)
  ldr  r3, [r3, r1]
 8001b4e:	585b      	ldr	r3, [r3, r1]
  str  r3, [r0, r1]
 8001b50:	5043      	str	r3, [r0, r1]
  adds  r1, r1, #4
 8001b52:	3104      	adds	r1, #4

08001b54 <LoopCopyDataInit>:
    
LoopCopyDataInit:
  ldr  r0, =_sdata
 8001b54:	480b      	ldr	r0, [pc, #44]	; (8001b84 <LoopFillZerobss+0x1c>)
  ldr  r3, =_edata
 8001b56:	4b0c      	ldr	r3, [pc, #48]	; (8001b88 <LoopFillZerobss+0x20>)
  adds  r2, r0, r1
 8001b58:	1842      	adds	r2, r0, r1
  cmp  r2, r3
 8001b5a:	429a      	cmp	r2, r3
  bcc  CopyDataInit
 8001b5c:	d3f6      	bcc.n	8001b4c <CopyDataInit>
  ldr  r2, =_sbss
 8001b5e:	4a0b      	ldr	r2, [pc, #44]	; (8001b8c <LoopFillZerobss+0x24>)
  b  LoopFillZerobss
 8001b60:	e002      	b.n	8001b68 <LoopFillZerobss>

08001b62 <FillZerobss>:
/* Zero fill the bss segment. */  
FillZerobss:
  movs  r3, #0
 8001b62:	2300      	movs	r3, #0
  str  r3, [r2], #4
 8001b64:	f842 3b04 	str.w	r3, [r2], #4

08001b68 <LoopFillZerobss>:
    
LoopFillZerobss:
  ldr  r3, = _ebss
 8001b68:	4b09      	ldr	r3, [pc, #36]	; (8001b90 <LoopFillZerobss+0x28>)
  cmp  r2, r3
 8001b6a:	429a      	cmp	r2, r3
  bcc  FillZerobss
 8001b6c:	d3f9      	bcc.n	8001b62 <FillZerobss>

/* Call the clock system initialization function.*/
  bl  SystemInit   
 8001b6e:	f7fe fb63 	bl	8000238 <SystemInit>
/* Call static constructors */
    bl __libc_init_array
 8001b72:	f00c fe9d 	bl	800e8b0 <__libc_init_array>
/* Call the application's entry point.*/
  bl  main
 8001b76:	f7fe fd53 	bl	8000620 <main>
  bx  lr    
 8001b7a:	4770      	bx	lr
  ldr   sp, =_estack      /* set stack pointer */
 8001b7c:	20080000 	.word	0x20080000
  ldr  r3, =_sidata
 8001b80:	080106a4 	.word	0x080106a4
  ldr  r0, =_sdata
 8001b84:	20020000 	.word	0x20020000
  ldr  r3, =_edata
 8001b88:	2002000c 	.word	0x2002000c
  ldr  r2, =_sbss
 8001b8c:	2002000c 	.word	0x2002000c
  ldr  r3, = _ebss
 8001b90:	2002062c 	.word	0x2002062c

08001b94 <ADC_IRQHandler>:
 * @retval None       
*/
    .section  .text.Default_Handler,"ax",%progbits
Default_Handler:
Infinite_Loop:
  b  Infinite_Loop
 8001b94:	e7fe      	b.n	8001b94 <ADC_IRQHandler>
	...

08001b98 <AES_keyschedule_enc_LL>:
 8001b98:	b570      	push	{r4, r5, r6, lr}
 8001b9a:	1092      	asrs	r2, r2, #2
 8001b9c:	2300      	movs	r3, #0
 8001b9e:	4293      	cmp	r3, r2
 8001ba0:	da05      	bge.n	8001bae <AES_keyschedule_enc_LL+0x16>
 8001ba2:	f850 4023 	ldr.w	r4, [r0, r3, lsl #2]
 8001ba6:	f841 4023 	str.w	r4, [r1, r3, lsl #2]
 8001baa:	3301      	adds	r3, #1
 8001bac:	e7f7      	b.n	8001b9e <AES_keyschedule_enc_LL+0x6>
 8001bae:	2a06      	cmp	r2, #6
 8001bb0:	d02e      	beq.n	8001c10 <AES_keyschedule_enc_LL+0x78>
 8001bb2:	2a08      	cmp	r2, #8
 8001bb4:	d05c      	beq.n	8001c70 <AES_keyschedule_enc_LL+0xd8>
 8001bb6:	2a04      	cmp	r2, #4
 8001bb8:	f040 80a3 	bne.w	8001d02 <AES_keyschedule_enc_LL+0x16a>
 8001bbc:	2200      	movs	r2, #0
 8001bbe:	4851      	ldr	r0, [pc, #324]	; (8001d04 <AES_keyschedule_enc_LL+0x16c>)
 8001bc0:	68cb      	ldr	r3, [r1, #12]
 8001bc2:	5815      	ldr	r5, [r2, r0]
 8001bc4:	6808      	ldr	r0, [r1, #0]
 8001bc6:	b2dc      	uxtb	r4, r3
 8001bc8:	4045      	eors	r5, r0
 8001bca:	484f      	ldr	r0, [pc, #316]	; (8001d08 <AES_keyschedule_enc_LL+0x170>)
 8001bcc:	5d06      	ldrb	r6, [r0, r4]
 8001bce:	0e1c      	lsrs	r4, r3, #24
 8001bd0:	3204      	adds	r2, #4
 8001bd2:	5d04      	ldrb	r4, [r0, r4]
 8001bd4:	ea44 2406 	orr.w	r4, r4, r6, lsl #8
 8001bd8:	f3c3 4607 	ubfx	r6, r3, #16, #8
 8001bdc:	2a28      	cmp	r2, #40	; 0x28
 8001bde:	5d86      	ldrb	r6, [r0, r6]
 8001be0:	ea44 6406 	orr.w	r4, r4, r6, lsl #24
 8001be4:	f3c3 2607 	ubfx	r6, r3, #8, #8
 8001be8:	5d80      	ldrb	r0, [r0, r6]
 8001bea:	ea44 4400 	orr.w	r4, r4, r0, lsl #16
 8001bee:	ea85 0004 	eor.w	r0, r5, r4
 8001bf2:	684c      	ldr	r4, [r1, #4]
 8001bf4:	6108      	str	r0, [r1, #16]
 8001bf6:	ea80 0004 	eor.w	r0, r0, r4
 8001bfa:	688c      	ldr	r4, [r1, #8]
 8001bfc:	6148      	str	r0, [r1, #20]
 8001bfe:	ea80 0004 	eor.w	r0, r0, r4
 8001c02:	ea80 0303 	eor.w	r3, r0, r3
 8001c06:	6188      	str	r0, [r1, #24]
 8001c08:	61cb      	str	r3, [r1, #28]
 8001c0a:	d07a      	beq.n	8001d02 <AES_keyschedule_enc_LL+0x16a>
 8001c0c:	3110      	adds	r1, #16
 8001c0e:	e7d6      	b.n	8001bbe <AES_keyschedule_enc_LL+0x26>
 8001c10:	2200      	movs	r2, #0
 8001c12:	4b3c      	ldr	r3, [pc, #240]	; (8001d04 <AES_keyschedule_enc_LL+0x16c>)
 8001c14:	6948      	ldr	r0, [r1, #20]
 8001c16:	3201      	adds	r2, #1
 8001c18:	eb03 0382 	add.w	r3, r3, r2, lsl #2
 8001c1c:	b2c5      	uxtb	r5, r0
 8001c1e:	f853 4c04 	ldr.w	r4, [r3, #-4]
 8001c22:	680b      	ldr	r3, [r1, #0]
 8001c24:	405c      	eors	r4, r3
 8001c26:	4b38      	ldr	r3, [pc, #224]	; (8001d08 <AES_keyschedule_enc_LL+0x170>)
 8001c28:	5d5e      	ldrb	r6, [r3, r5]
 8001c2a:	0e05      	lsrs	r5, r0, #24
 8001c2c:	5d5d      	ldrb	r5, [r3, r5]
 8001c2e:	ea45 2506 	orr.w	r5, r5, r6, lsl #8
 8001c32:	f3c0 4607 	ubfx	r6, r0, #16, #8
 8001c36:	f3c0 2007 	ubfx	r0, r0, #8, #8
 8001c3a:	5d9e      	ldrb	r6, [r3, r6]
 8001c3c:	5c18      	ldrb	r0, [r3, r0]
 8001c3e:	ea45 6506 	orr.w	r5, r5, r6, lsl #24
 8001c42:	ea45 4000 	orr.w	r0, r5, r0, lsl #16
 8001c46:	ea84 0300 	eor.w	r3, r4, r0
 8001c4a:	618b      	str	r3, [r1, #24]
 8001c4c:	2001      	movs	r0, #1
 8001c4e:	460b      	mov	r3, r1
 8001c50:	685d      	ldr	r5, [r3, #4]
 8001c52:	699c      	ldr	r4, [r3, #24]
 8001c54:	2803      	cmp	r0, #3
 8001c56:	ea85 0404 	eor.w	r4, r5, r4
 8001c5a:	61dc      	str	r4, [r3, #28]
 8001c5c:	d101      	bne.n	8001c62 <AES_keyschedule_enc_LL+0xca>
 8001c5e:	2a07      	cmp	r2, #7
 8001c60:	dc4f      	bgt.n	8001d02 <AES_keyschedule_enc_LL+0x16a>
 8001c62:	3001      	adds	r0, #1
 8001c64:	2806      	cmp	r0, #6
 8001c66:	f103 0304 	add.w	r3, r3, #4
 8001c6a:	d1f1      	bne.n	8001c50 <AES_keyschedule_enc_LL+0xb8>
 8001c6c:	3118      	adds	r1, #24
 8001c6e:	e7d0      	b.n	8001c12 <AES_keyschedule_enc_LL+0x7a>
 8001c70:	2400      	movs	r4, #0
 8001c72:	4b24      	ldr	r3, [pc, #144]	; (8001d04 <AES_keyschedule_enc_LL+0x16c>)
 8001c74:	69ca      	ldr	r2, [r1, #28]
 8001c76:	58e5      	ldr	r5, [r4, r3]
 8001c78:	680b      	ldr	r3, [r1, #0]
 8001c7a:	b2d0      	uxtb	r0, r2
 8001c7c:	405d      	eors	r5, r3
 8001c7e:	4b22      	ldr	r3, [pc, #136]	; (8001d08 <AES_keyschedule_enc_LL+0x170>)
 8001c80:	5c1e      	ldrb	r6, [r3, r0]
 8001c82:	0e10      	lsrs	r0, r2, #24
 8001c84:	3404      	adds	r4, #4
 8001c86:	5c18      	ldrb	r0, [r3, r0]
 8001c88:	ea40 2006 	orr.w	r0, r0, r6, lsl #8
 8001c8c:	f3c2 4607 	ubfx	r6, r2, #16, #8
 8001c90:	2c1c      	cmp	r4, #28
 8001c92:	5d9e      	ldrb	r6, [r3, r6]
 8001c94:	ea40 6006 	orr.w	r0, r0, r6, lsl #24
 8001c98:	f3c2 2607 	ubfx	r6, r2, #8, #8
 8001c9c:	5d9e      	ldrb	r6, [r3, r6]
 8001c9e:	ea40 4006 	orr.w	r0, r0, r6, lsl #16
 8001ca2:	ea85 0000 	eor.w	r0, r5, r0
 8001ca6:	684d      	ldr	r5, [r1, #4]
 8001ca8:	6208      	str	r0, [r1, #32]
 8001caa:	ea80 0005 	eor.w	r0, r0, r5
 8001cae:	688d      	ldr	r5, [r1, #8]
 8001cb0:	6248      	str	r0, [r1, #36]	; 0x24
 8001cb2:	ea80 0005 	eor.w	r0, r0, r5
 8001cb6:	68cd      	ldr	r5, [r1, #12]
 8001cb8:	6288      	str	r0, [r1, #40]	; 0x28
 8001cba:	ea80 0005 	eor.w	r0, r0, r5
 8001cbe:	62c8      	str	r0, [r1, #44]	; 0x2c
 8001cc0:	d01f      	beq.n	8001d02 <AES_keyschedule_enc_LL+0x16a>
 8001cc2:	0e05      	lsrs	r5, r0, #24
 8001cc4:	3120      	adds	r1, #32
 8001cc6:	5d5e      	ldrb	r6, [r3, r5]
 8001cc8:	b2c5      	uxtb	r5, r0
 8001cca:	5d5d      	ldrb	r5, [r3, r5]
 8001ccc:	ea45 6506 	orr.w	r5, r5, r6, lsl #24
 8001cd0:	f3c0 4607 	ubfx	r6, r0, #16, #8
 8001cd4:	f3c0 2007 	ubfx	r0, r0, #8, #8
 8001cd8:	5d9e      	ldrb	r6, [r3, r6]
 8001cda:	5c1b      	ldrb	r3, [r3, r0]
 8001cdc:	f851 0c10 	ldr.w	r0, [r1, #-16]
 8001ce0:	ea45 4506 	orr.w	r5, r5, r6, lsl #16
 8001ce4:	ea45 2303 	orr.w	r3, r5, r3, lsl #8
 8001ce8:	4043      	eors	r3, r0
 8001cea:	f851 0c0c 	ldr.w	r0, [r1, #-12]
 8001cee:	610b      	str	r3, [r1, #16]
 8001cf0:	4043      	eors	r3, r0
 8001cf2:	f851 0c08 	ldr.w	r0, [r1, #-8]
 8001cf6:	614b      	str	r3, [r1, #20]
 8001cf8:	4043      	eors	r3, r0
 8001cfa:	405a      	eors	r2, r3
 8001cfc:	618b      	str	r3, [r1, #24]
 8001cfe:	61ca      	str	r2, [r1, #28]
 8001d00:	e7b7      	b.n	8001c72 <AES_keyschedule_enc_LL+0xda>
 8001d02:	bd70      	pop	{r4, r5, r6, pc}
 8001d04:	0800ed2c 	.word	0x0800ed2c
 8001d08:	0800ffc4 	.word	0x0800ffc4

08001d0c <poly_xor>:
 8001d0c:	680b      	ldr	r3, [r1, #0]
 8001d0e:	b510      	push	{r4, lr}
 8001d10:	6804      	ldr	r4, [r0, #0]
 8001d12:	4063      	eors	r3, r4
 8001d14:	6013      	str	r3, [r2, #0]
 8001d16:	6844      	ldr	r4, [r0, #4]
 8001d18:	684b      	ldr	r3, [r1, #4]
 8001d1a:	4063      	eors	r3, r4
 8001d1c:	6053      	str	r3, [r2, #4]
 8001d1e:	6884      	ldr	r4, [r0, #8]
 8001d20:	688b      	ldr	r3, [r1, #8]
 8001d22:	4063      	eors	r3, r4
 8001d24:	6093      	str	r3, [r2, #8]
 8001d26:	68c0      	ldr	r0, [r0, #12]
 8001d28:	68cb      	ldr	r3, [r1, #12]
 8001d2a:	4043      	eors	r3, r0
 8001d2c:	60d3      	str	r3, [r2, #12]
 8001d2e:	bd10      	pop	{r4, pc}

08001d30 <gfmul_x8>:
 8001d30:	68c3      	ldr	r3, [r0, #12]
 8001d32:	4a0e      	ldr	r2, [pc, #56]	; (8001d6c <gfmul_x8+0x3c>)
 8001d34:	b510      	push	{r4, lr}
 8001d36:	b2dc      	uxtb	r4, r3
 8001d38:	0a1b      	lsrs	r3, r3, #8
 8001d3a:	f832 4014 	ldrh.w	r4, [r2, r4, lsl #1]
 8001d3e:	6882      	ldr	r2, [r0, #8]
 8001d40:	ea43 6202 	orr.w	r2, r3, r2, lsl #24
 8001d44:	60ca      	str	r2, [r1, #12]
 8001d46:	6882      	ldr	r2, [r0, #8]
 8001d48:	6843      	ldr	r3, [r0, #4]
 8001d4a:	0a12      	lsrs	r2, r2, #8
 8001d4c:	ea42 6303 	orr.w	r3, r2, r3, lsl #24
 8001d50:	608b      	str	r3, [r1, #8]
 8001d52:	6842      	ldr	r2, [r0, #4]
 8001d54:	6803      	ldr	r3, [r0, #0]
 8001d56:	0a12      	lsrs	r2, r2, #8
 8001d58:	ea42 6303 	orr.w	r3, r2, r3, lsl #24
 8001d5c:	604b      	str	r3, [r1, #4]
 8001d5e:	6803      	ldr	r3, [r0, #0]
 8001d60:	0a1b      	lsrs	r3, r3, #8
 8001d62:	ea83 4304 	eor.w	r3, r3, r4, lsl #16
 8001d66:	600b      	str	r3, [r1, #0]
 8001d68:	bd10      	pop	{r4, pc}
 8001d6a:	bf00      	nop
 8001d6c:	0801047c 	.word	0x0801047c

08001d70 <gfmul_x4>:
 8001d70:	68c3      	ldr	r3, [r0, #12]
 8001d72:	4a0e      	ldr	r2, [pc, #56]	; (8001dac <gfmul_x4+0x3c>)
 8001d74:	b510      	push	{r4, lr}
 8001d76:	f003 040f 	and.w	r4, r3, #15
 8001d7a:	091b      	lsrs	r3, r3, #4
 8001d7c:	f832 4014 	ldrh.w	r4, [r2, r4, lsl #1]
 8001d80:	6882      	ldr	r2, [r0, #8]
 8001d82:	ea43 7202 	orr.w	r2, r3, r2, lsl #28
 8001d86:	60ca      	str	r2, [r1, #12]
 8001d88:	6882      	ldr	r2, [r0, #8]
 8001d8a:	6843      	ldr	r3, [r0, #4]
 8001d8c:	0912      	lsrs	r2, r2, #4
 8001d8e:	ea42 7303 	orr.w	r3, r2, r3, lsl #28
 8001d92:	608b      	str	r3, [r1, #8]
 8001d94:	6842      	ldr	r2, [r0, #4]
 8001d96:	6803      	ldr	r3, [r0, #0]
 8001d98:	0912      	lsrs	r2, r2, #4
 8001d9a:	ea42 7303 	orr.w	r3, r2, r3, lsl #28
 8001d9e:	604b      	str	r3, [r1, #4]
 8001da0:	6803      	ldr	r3, [r0, #0]
 8001da2:	091b      	lsrs	r3, r3, #4
 8001da4:	ea83 4304 	eor.w	r3, r3, r4, lsl #16
 8001da8:	600b      	str	r3, [r1, #0]
 8001daa:	bd10      	pop	{r4, pc}
 8001dac:	0801034a 	.word	0x0801034a

08001db0 <xts_new_tweak>:
 8001db0:	2300      	movs	r3, #0
 8001db2:	b570      	push	{r4, r5, r6, lr}
 8001db4:	461d      	mov	r5, r3
 8001db6:	58c2      	ldr	r2, [r0, r3]
 8001db8:	f002 0480 	and.w	r4, r2, #128	; 0x80
 8001dbc:	f002 367f 	and.w	r6, r2, #2139062143	; 0x7f7f7f7f
 8001dc0:	f002 3280 	and.w	r2, r2, #2155905152	; 0x80808080
 8001dc4:	0bd2      	lsrs	r2, r2, #15
 8001dc6:	ea42 0246 	orr.w	r2, r2, r6, lsl #1
 8001dca:	4055      	eors	r5, r2
 8001dcc:	50cd      	str	r5, [r1, r3]
 8001dce:	3304      	adds	r3, #4
 8001dd0:	2b10      	cmp	r3, #16
 8001dd2:	ea4f 4444 	mov.w	r4, r4, lsl #17
 8001dd6:	d001      	beq.n	8001ddc <xts_new_tweak+0x2c>
 8001dd8:	4625      	mov	r5, r4
 8001dda:	e7ec      	b.n	8001db6 <xts_new_tweak+0x6>
 8001ddc:	f04f 4307 	mov.w	r3, #2264924160	; 0x87000000
 8001de0:	0e24      	lsrs	r4, r4, #24
 8001de2:	435c      	muls	r4, r3
 8001de4:	680b      	ldr	r3, [r1, #0]
 8001de6:	4063      	eors	r3, r4
 8001de8:	600b      	str	r3, [r1, #0]
 8001dea:	bd70      	pop	{r4, r5, r6, pc}

08001dec <desfunc>:
 8001dec:	e92d 4ff7 	stmdb	sp!, {r0, r1, r2, r4, r5, r6, r7, r8, r9, sl, fp, lr}
 8001df0:	6804      	ldr	r4, [r0, #0]
 8001df2:	6842      	ldr	r2, [r0, #4]
 8001df4:	ea82 1614 	eor.w	r6, r2, r4, lsr #4
 8001df8:	f006 360f 	and.w	r6, r6, #252645135	; 0xf0f0f0f
 8001dfc:	4072      	eors	r2, r6
 8001dfe:	ea84 1606 	eor.w	r6, r4, r6, lsl #4
 8001e02:	ea82 4316 	eor.w	r3, r2, r6, lsr #16
 8001e06:	b29b      	uxth	r3, r3
 8001e08:	405a      	eors	r2, r3
 8001e0a:	ea86 4303 	eor.w	r3, r6, r3, lsl #16
 8001e0e:	ea83 0592 	eor.w	r5, r3, r2, lsr #2
 8001e12:	f005 3533 	and.w	r5, r5, #858993459	; 0x33333333
 8001e16:	406b      	eors	r3, r5
 8001e18:	ea82 0585 	eor.w	r5, r2, r5, lsl #2
 8001e1c:	ea83 2415 	eor.w	r4, r3, r5, lsr #8
 8001e20:	f004 14ff 	and.w	r4, r4, #16711935	; 0xff00ff
 8001e24:	4063      	eors	r3, r4
 8001e26:	ea85 2404 	eor.w	r4, r5, r4, lsl #8
 8001e2a:	ea4f 74f4 	mov.w	r4, r4, ror #31
 8001e2e:	ea84 0203 	eor.w	r2, r4, r3
 8001e32:	f002 32aa 	and.w	r2, r2, #2863311530	; 0xaaaaaaaa
 8001e36:	4053      	eors	r3, r2
 8001e38:	4062      	eors	r2, r4
 8001e3a:	f101 0480 	add.w	r4, r1, #128	; 0x80
 8001e3e:	ea4f 73f3 	mov.w	r3, r3, ror #31
 8001e42:	9401      	str	r4, [sp, #4]
 8001e44:	680f      	ldr	r7, [r1, #0]
 8001e46:	4d5a      	ldr	r5, [pc, #360]	; (8001fb0 <desfunc+0x1c4>)
 8001e48:	f8df 817c 	ldr.w	r8, [pc, #380]	; 8001fc8 <desfunc+0x1dc>
 8001e4c:	f8df b17c 	ldr.w	fp, [pc, #380]	; 8001fcc <desfunc+0x1e0>
 8001e50:	f8df 917c 	ldr.w	r9, [pc, #380]	; 8001fd0 <desfunc+0x1e4>
 8001e54:	ea87 1732 	eor.w	r7, r7, r2, ror #4
 8001e58:	f007 043f 	and.w	r4, r7, #63	; 0x3f
 8001e5c:	f3c7 2c05 	ubfx	ip, r7, #8, #6
 8001e60:	f855 a024 	ldr.w	sl, [r5, r4, lsl #2]
 8001e64:	684c      	ldr	r4, [r1, #4]
 8001e66:	4054      	eors	r4, r2
 8001e68:	f004 063f 	and.w	r6, r4, #63	; 0x3f
 8001e6c:	3110      	adds	r1, #16
 8001e6e:	f858 6026 	ldr.w	r6, [r8, r6, lsl #2]
 8001e72:	ea4a 0a06 	orr.w	sl, sl, r6
 8001e76:	4e4f      	ldr	r6, [pc, #316]	; (8001fb4 <desfunc+0x1c8>)
 8001e78:	f856 c02c 	ldr.w	ip, [r6, ip, lsl #2]
 8001e7c:	4e4e      	ldr	r6, [pc, #312]	; (8001fb8 <desfunc+0x1cc>)
 8001e7e:	ea4a 0a0c 	orr.w	sl, sl, ip
 8001e82:	f3c7 4c05 	ubfx	ip, r7, #16, #6
 8001e86:	f3c7 6705 	ubfx	r7, r7, #24, #6
 8001e8a:	f856 c02c 	ldr.w	ip, [r6, ip, lsl #2]
 8001e8e:	f85b 7027 	ldr.w	r7, [fp, r7, lsl #2]
 8001e92:	ea4a 0a0c 	orr.w	sl, sl, ip
 8001e96:	ea4a 0a07 	orr.w	sl, sl, r7
 8001e9a:	f3c4 2705 	ubfx	r7, r4, #8, #6
 8001e9e:	f8df c134 	ldr.w	ip, [pc, #308]	; 8001fd4 <desfunc+0x1e8>
 8001ea2:	f859 7027 	ldr.w	r7, [r9, r7, lsl #2]
 8001ea6:	ea4a 0a07 	orr.w	sl, sl, r7
 8001eaa:	f3c4 4705 	ubfx	r7, r4, #16, #6
 8001eae:	f3c4 6405 	ubfx	r4, r4, #24, #6
 8001eb2:	f85c 7027 	ldr.w	r7, [ip, r7, lsl #2]
 8001eb6:	ea4a 0a07 	orr.w	sl, sl, r7
 8001eba:	4f40      	ldr	r7, [pc, #256]	; (8001fbc <desfunc+0x1d0>)
 8001ebc:	f857 4024 	ldr.w	r4, [r7, r4, lsl #2]
 8001ec0:	ea4a 0a04 	orr.w	sl, sl, r4
 8001ec4:	f851 4c08 	ldr.w	r4, [r1, #-8]
 8001ec8:	ea83 030a 	eor.w	r3, r3, sl
 8001ecc:	ea84 1433 	eor.w	r4, r4, r3, ror #4
 8001ed0:	f004 0a3f 	and.w	sl, r4, #63	; 0x3f
 8001ed4:	f855 502a 	ldr.w	r5, [r5, sl, lsl #2]
 8001ed8:	9500      	str	r5, [sp, #0]
 8001eda:	f851 5c04 	ldr.w	r5, [r1, #-4]
 8001ede:	9e00      	ldr	r6, [sp, #0]
 8001ee0:	405d      	eors	r5, r3
 8001ee2:	f3c5 2a05 	ubfx	sl, r5, #8, #6
 8001ee6:	f859 902a 	ldr.w	r9, [r9, sl, lsl #2]
 8001eea:	ea46 0a09 	orr.w	sl, r6, r9
 8001eee:	f005 093f 	and.w	r9, r5, #63	; 0x3f
 8001ef2:	4e30      	ldr	r6, [pc, #192]	; (8001fb4 <desfunc+0x1c8>)
 8001ef4:	f858 8029 	ldr.w	r8, [r8, r9, lsl #2]
 8001ef8:	ea4a 0a08 	orr.w	sl, sl, r8
 8001efc:	f3c5 4805 	ubfx	r8, r5, #16, #6
 8001f00:	f3c5 6505 	ubfx	r5, r5, #24, #6
 8001f04:	f85c c028 	ldr.w	ip, [ip, r8, lsl #2]
 8001f08:	f857 5025 	ldr.w	r5, [r7, r5, lsl #2]
 8001f0c:	ea4a 0a0c 	orr.w	sl, sl, ip
 8001f10:	ea4a 0a05 	orr.w	sl, sl, r5
 8001f14:	f3c4 2505 	ubfx	r5, r4, #8, #6
 8001f18:	f856 5025 	ldr.w	r5, [r6, r5, lsl #2]
 8001f1c:	4e26      	ldr	r6, [pc, #152]	; (8001fb8 <desfunc+0x1cc>)
 8001f1e:	ea4a 0a05 	orr.w	sl, sl, r5
 8001f22:	f3c4 4505 	ubfx	r5, r4, #16, #6
 8001f26:	f3c4 6405 	ubfx	r4, r4, #24, #6
 8001f2a:	f856 5025 	ldr.w	r5, [r6, r5, lsl #2]
 8001f2e:	ea4a 0a05 	orr.w	sl, sl, r5
 8001f32:	f85b 5024 	ldr.w	r5, [fp, r4, lsl #2]
 8001f36:	ea4a 0405 	orr.w	r4, sl, r5
 8001f3a:	4062      	eors	r2, r4
 8001f3c:	9c01      	ldr	r4, [sp, #4]
 8001f3e:	42a1      	cmp	r1, r4
 8001f40:	d180      	bne.n	8001e44 <desfunc+0x58>
 8001f42:	491f      	ldr	r1, [pc, #124]	; (8001fc0 <desfunc+0x1d4>)
 8001f44:	2401      	movs	r4, #1
 8001f46:	600c      	str	r4, [r1, #0]
 8001f48:	6809      	ldr	r1, [r1, #0]
 8001f4a:	491e      	ldr	r1, [pc, #120]	; (8001fc4 <desfunc+0x1d8>)
 8001f4c:	680c      	ldr	r4, [r1, #0]
 8001f4e:	1c65      	adds	r5, r4, #1
 8001f50:	d102      	bne.n	8001f58 <desfunc+0x16c>
 8001f52:	600c      	str	r4, [r1, #0]
 8001f54:	6809      	ldr	r1, [r1, #0]
 8001f56:	b109      	cbz	r1, 8001f5c <desfunc+0x170>
 8001f58:	015a      	lsls	r2, r3, #5
 8001f5a:	00db      	lsls	r3, r3, #3
 8001f5c:	ea4f 0272 	mov.w	r2, r2, ror #1
 8001f60:	ea82 0103 	eor.w	r1, r2, r3
 8001f64:	f001 31aa 	and.w	r1, r1, #2863311530	; 0xaaaaaaaa
 8001f68:	404b      	eors	r3, r1
 8001f6a:	404a      	eors	r2, r1
 8001f6c:	ea4f 0373 	mov.w	r3, r3, ror #1
 8001f70:	ea82 2413 	eor.w	r4, r2, r3, lsr #8
 8001f74:	f004 14ff 	and.w	r4, r4, #16711935	; 0xff00ff
 8001f78:	4062      	eors	r2, r4
 8001f7a:	ea83 2404 	eor.w	r4, r3, r4, lsl #8
 8001f7e:	ea82 0394 	eor.w	r3, r2, r4, lsr #2
 8001f82:	f003 3333 	and.w	r3, r3, #858993459	; 0x33333333
 8001f86:	405a      	eors	r2, r3
 8001f88:	ea84 0383 	eor.w	r3, r4, r3, lsl #2
 8001f8c:	ea83 4112 	eor.w	r1, r3, r2, lsr #16
 8001f90:	b289      	uxth	r1, r1
 8001f92:	404b      	eors	r3, r1
 8001f94:	ea82 4101 	eor.w	r1, r2, r1, lsl #16
 8001f98:	ea83 1211 	eor.w	r2, r3, r1, lsr #4
 8001f9c:	f002 320f 	and.w	r2, r2, #252645135	; 0xf0f0f0f
 8001fa0:	ea81 1102 	eor.w	r1, r1, r2, lsl #4
 8001fa4:	4053      	eors	r3, r2
 8001fa6:	6001      	str	r1, [r0, #0]
 8001fa8:	6043      	str	r3, [r0, #4]
 8001faa:	b003      	add	sp, #12
 8001fac:	e8bd 8ff0 	ldmia.w	sp!, {r4, r5, r6, r7, r8, r9, sl, fp, pc}
 8001fb0:	080100c4 	.word	0x080100c4
 8001fb4:	0800fec4 	.word	0x0800fec4
 8001fb8:	0800fcc4 	.word	0x0800fcc4
 8001fbc:	0800fbc4 	.word	0x0800fbc4
 8001fc0:	40023008 	.word	0x40023008
 8001fc4:	40023000 	.word	0x40023000
 8001fc8:	080101c4 	.word	0x080101c4
 8001fcc:	0801036c 	.word	0x0801036c
 8001fd0:	0800f938 	.word	0x0800f938
 8001fd4:	0800fdc4 	.word	0x0800fdc4

08001fd8 <deskey>:
 8001fd8:	e92d 4ff0 	stmdb	sp!, {r4, r5, r6, r7, r8, r9, sl, fp, lr}
 8001fdc:	4b6c      	ldr	r3, [pc, #432]	; (8002190 <deskey+0x1b8>)
 8001fde:	b0f9      	sub	sp, #484	; 0x1e4
 8001fe0:	4605      	mov	r5, r0
 8001fe2:	468b      	mov	fp, r1
 8001fe4:	9200      	str	r2, [sp, #0]
 8001fe6:	ac02      	add	r4, sp, #8
 8001fe8:	f103 0610 	add.w	r6, r3, #16
 8001fec:	6818      	ldr	r0, [r3, #0]
 8001fee:	6859      	ldr	r1, [r3, #4]
 8001ff0:	4622      	mov	r2, r4
 8001ff2:	c203      	stmia	r2!, {r0, r1}
 8001ff4:	3308      	adds	r3, #8
 8001ff6:	42b3      	cmp	r3, r6
 8001ff8:	4614      	mov	r4, r2
 8001ffa:	d1f7      	bne.n	8001fec <deskey+0x14>
 8001ffc:	ae40      	add	r6, sp, #256	; 0x100
 8001ffe:	2260      	movs	r2, #96	; 0x60
 8002000:	4630      	mov	r0, r6
 8002002:	4964      	ldr	r1, [pc, #400]	; (8002194 <deskey+0x1bc>)
 8002004:	f00c fc78 	bl	800e8f8 <memcpy>
 8002008:	4b63      	ldr	r3, [pc, #396]	; (8002198 <deskey+0x1c0>)
 800200a:	aa16      	add	r2, sp, #88	; 0x58
 800200c:	4694      	mov	ip, r2
 800200e:	f103 0838 	add.w	r8, r3, #56	; 0x38
 8002012:	6818      	ldr	r0, [r3, #0]
 8002014:	6859      	ldr	r1, [r3, #4]
 8002016:	4664      	mov	r4, ip
 8002018:	c403      	stmia	r4!, {r0, r1}
 800201a:	3308      	adds	r3, #8
 800201c:	4543      	cmp	r3, r8
 800201e:	46a4      	mov	ip, r4
 8002020:	d1f7      	bne.n	8002012 <deskey+0x3a>
 8002022:	4b5e      	ldr	r3, [pc, #376]	; (800219c <deskey+0x1c4>)
 8002024:	f10d 0a18 	add.w	sl, sp, #24
 8002028:	46d4      	mov	ip, sl
 800202a:	f103 0810 	add.w	r8, r3, #16
 800202e:	6818      	ldr	r0, [r3, #0]
 8002030:	6859      	ldr	r1, [r3, #4]
 8002032:	4664      	mov	r4, ip
 8002034:	c403      	stmia	r4!, {r0, r1}
 8002036:	3308      	adds	r3, #8
 8002038:	4543      	cmp	r3, r8
 800203a:	46a4      	mov	ip, r4
 800203c:	d1f7      	bne.n	800202e <deskey+0x56>
 800203e:	4b58      	ldr	r3, [pc, #352]	; (80021a0 <deskey+0x1c8>)
 8002040:	f10d 0c28 	add.w	ip, sp, #40	; 0x28
 8002044:	46e0      	mov	r8, ip
 8002046:	f103 0930 	add.w	r9, r3, #48	; 0x30
 800204a:	6818      	ldr	r0, [r3, #0]
 800204c:	6859      	ldr	r1, [r3, #4]
 800204e:	4644      	mov	r4, r8
 8002050:	c403      	stmia	r4!, {r0, r1}
 8002052:	3308      	adds	r3, #8
 8002054:	454b      	cmp	r3, r9
 8002056:	46a0      	mov	r8, r4
 8002058:	d1f7      	bne.n	800204a <deskey+0x72>
 800205a:	2300      	movs	r3, #0
 800205c:	5cd1      	ldrb	r1, [r2, r3]
 800205e:	08c8      	lsrs	r0, r1, #3
 8002060:	f001 0807 	and.w	r8, r1, #7
 8002064:	a902      	add	r1, sp, #8
 8002066:	5c28      	ldrb	r0, [r5, r0]
 8002068:	f831 8018 	ldrh.w	r8, [r1, r8, lsl #1]
 800206c:	ac24      	add	r4, sp, #144	; 0x90
 800206e:	ea10 0f08 	tst.w	r0, r8
 8002072:	bf0c      	ite	eq
 8002074:	2100      	moveq	r1, #0
 8002076:	2101      	movne	r1, #1
 8002078:	5519      	strb	r1, [r3, r4]
 800207a:	3301      	adds	r3, #1
 800207c:	2b38      	cmp	r3, #56	; 0x38
 800207e:	d1ed      	bne.n	800205c <deskey+0x84>
 8002080:	2100      	movs	r1, #0
 8002082:	f1bb 0f01 	cmp.w	fp, #1
 8002086:	bf06      	itte	eq
 8002088:	f1c1 090f 	rsbeq	r9, r1, #15
 800208c:	ea4f 0949 	moveq.w	r9, r9, lsl #1
 8002090:	ea4f 0941 	movne.w	r9, r1, lsl #1
 8002094:	f109 0801 	add.w	r8, r9, #1
 8002098:	aa78      	add	r2, sp, #480	; 0x1e0
 800209a:	ea4f 0989 	mov.w	r9, r9, lsl #2
 800209e:	444a      	add	r2, r9
 80020a0:	2300      	movs	r3, #0
 80020a2:	af78      	add	r7, sp, #480	; 0x1e0
 80020a4:	f842 3c80 	str.w	r3, [r2, #-128]
 80020a8:	eb07 0288 	add.w	r2, r7, r8, lsl #2
 80020ac:	f842 3c80 	str.w	r3, [r2, #-128]
 80020b0:	f81a 2001 	ldrb.w	r2, [sl, r1]
 80020b4:	1898      	adds	r0, r3, r2
 80020b6:	281b      	cmp	r0, #27
 80020b8:	eb04 0502 	add.w	r5, r4, r2
 80020bc:	bfc8      	it	gt
 80020be:	18ed      	addgt	r5, r5, r3
 80020c0:	a832      	add	r0, sp, #200	; 0xc8
 80020c2:	bfd4      	ite	le
 80020c4:	5ced      	ldrble	r5, [r5, r3]
 80020c6:	f815 5c1c 	ldrbgt.w	r5, [r5, #-28]
 80020ca:	54c5      	strb	r5, [r0, r3]
 80020cc:	3301      	adds	r3, #1
 80020ce:	2b1c      	cmp	r3, #28
 80020d0:	d1f0      	bne.n	80020b4 <deskey+0xdc>
 80020d2:	1898      	adds	r0, r3, r2
 80020d4:	2837      	cmp	r0, #55	; 0x37
 80020d6:	eb04 0002 	add.w	r0, r4, r2
 80020da:	bfc8      	it	gt
 80020dc:	18c0      	addgt	r0, r0, r3
 80020de:	ad32      	add	r5, sp, #200	; 0xc8
 80020e0:	bfd4      	ite	le
 80020e2:	5cc0      	ldrble	r0, [r0, r3]
 80020e4:	f810 0c1c 	ldrbgt.w	r0, [r0, #-28]
 80020e8:	54e8      	strb	r0, [r5, r3]
 80020ea:	3301      	adds	r3, #1
 80020ec:	2b38      	cmp	r3, #56	; 0x38
 80020ee:	d1f0      	bne.n	80020d2 <deskey+0xfa>
 80020f0:	2300      	movs	r3, #0
 80020f2:	f81c 2003 	ldrb.w	r2, [ip, r3]
 80020f6:	5caa      	ldrb	r2, [r5, r2]
 80020f8:	b142      	cbz	r2, 800210c <deskey+0x134>
 80020fa:	a878      	add	r0, sp, #480	; 0x1e0
 80020fc:	4448      	add	r0, r9
 80020fe:	f856 2023 	ldr.w	r2, [r6, r3, lsl #2]
 8002102:	f850 7c80 	ldr.w	r7, [r0, #-128]
 8002106:	433a      	orrs	r2, r7
 8002108:	f840 2c80 	str.w	r2, [r0, #-128]
 800210c:	eb0c 0203 	add.w	r2, ip, r3
 8002110:	7e12      	ldrb	r2, [r2, #24]
 8002112:	5caa      	ldrb	r2, [r5, r2]
 8002114:	b14a      	cbz	r2, 800212a <deskey+0x152>
 8002116:	aa78      	add	r2, sp, #480	; 0x1e0
 8002118:	eb02 0088 	add.w	r0, r2, r8, lsl #2
 800211c:	f856 7023 	ldr.w	r7, [r6, r3, lsl #2]
 8002120:	f850 2c80 	ldr.w	r2, [r0, #-128]
 8002124:	4317      	orrs	r7, r2
 8002126:	f840 7c80 	str.w	r7, [r0, #-128]
 800212a:	3301      	adds	r3, #1
 800212c:	2b18      	cmp	r3, #24
 800212e:	d1e0      	bne.n	80020f2 <deskey+0x11a>
 8002130:	3101      	adds	r1, #1
 8002132:	2910      	cmp	r1, #16
 8002134:	d1a5      	bne.n	8002082 <deskey+0xaa>
 8002136:	2300      	movs	r3, #0
 8002138:	aa58      	add	r2, sp, #352	; 0x160
 800213a:	5899      	ldr	r1, [r3, r2]
 800213c:	441a      	add	r2, r3
 800213e:	f401 007c 	and.w	r0, r1, #16515072	; 0xfc0000
 8002142:	6852      	ldr	r2, [r2, #4]
 8002144:	f401 647c 	and.w	r4, r1, #4032	; 0xfc0
 8002148:	0180      	lsls	r0, r0, #6
 800214a:	ea40 2084 	orr.w	r0, r0, r4, lsl #10
 800214e:	f402 047c 	and.w	r4, r2, #16515072	; 0xfc0000
 8002152:	ea40 2094 	orr.w	r0, r0, r4, lsr #10
 8002156:	f3c2 1485 	ubfx	r4, r2, #6, #6
 800215a:	4320      	orrs	r0, r4
 800215c:	9c00      	ldr	r4, [sp, #0]
 800215e:	50e0      	str	r0, [r4, r3]
 8002160:	4620      	mov	r0, r4
 8002162:	f001 043f 	and.w	r4, r1, #63	; 0x3f
 8002166:	f401 317c 	and.w	r1, r1, #258048	; 0x3f000
 800216a:	0309      	lsls	r1, r1, #12
 800216c:	ea41 4104 	orr.w	r1, r1, r4, lsl #16
 8002170:	f002 043f 	and.w	r4, r2, #63	; 0x3f
 8002174:	4418      	add	r0, r3
 8002176:	4321      	orrs	r1, r4
 8002178:	f402 327c 	and.w	r2, r2, #258048	; 0x3f000
 800217c:	3308      	adds	r3, #8
 800217e:	ea41 1212 	orr.w	r2, r1, r2, lsr #4
 8002182:	2b80      	cmp	r3, #128	; 0x80
 8002184:	6042      	str	r2, [r0, #4]
 8002186:	d1d7      	bne.n	8002138 <deskey+0x160>
 8002188:	b079      	add	sp, #484	; 0x1e4
 800218a:	e8bd 8ff0 	ldmia.w	sp!, {r4, r5, r6, r7, r8, r9, sl, fp, pc}
 800218e:	bf00      	nop
 8002190:	0800ea34 	.word	0x0800ea34
 8002194:	0800ea44 	.word	0x0800ea44
 8002198:	0800eaa4 	.word	0x0800eaa4
 800219c:	0800eadc 	.word	0x0800eadc
 80021a0:	0800eaec 	.word	0x0800eaec

080021a4 <reduce_add_sub>:
 80021a4:	b570      	push	{r4, r5, r6, lr}
 80021a6:	2100      	movs	r1, #0
 80021a8:	b088      	sub	sp, #32
 80021aa:	460e      	mov	r6, r1
 80021ac:	2400      	movs	r4, #0
 80021ae:	2501      	movs	r5, #1
 80021b0:	1ba4      	subs	r4, r4, r6
 80021b2:	f165 0500 	sbc.w	r5, r5, #0
 80021b6:	5846      	ldr	r6, [r0, r1]
 80021b8:	19a4      	adds	r4, r4, r6
 80021ba:	4e0e      	ldr	r6, [pc, #56]	; (80021f4 <reduce_add_sub+0x50>)
 80021bc:	598e      	ldr	r6, [r1, r6]
 80021be:	f145 0500 	adc.w	r5, r5, #0
 80021c2:	1ba4      	subs	r4, r4, r6
 80021c4:	f165 0500 	sbc.w	r5, r5, #0
 80021c8:	f84d 4001 	str.w	r4, [sp, r1]
 80021cc:	3104      	adds	r1, #4
 80021ce:	2920      	cmp	r1, #32
 80021d0:	f04f 0300 	mov.w	r3, #0
 80021d4:	f085 0601 	eor.w	r6, r5, #1
 80021d8:	d1e8      	bne.n	80021ac <reduce_add_sub+0x8>
 80021da:	3e01      	subs	r6, #1
 80021dc:	58c2      	ldr	r2, [r0, r3]
 80021de:	f85d 1003 	ldr.w	r1, [sp, r3]
 80021e2:	4051      	eors	r1, r2
 80021e4:	4031      	ands	r1, r6
 80021e6:	404a      	eors	r2, r1
 80021e8:	50c2      	str	r2, [r0, r3]
 80021ea:	3304      	adds	r3, #4
 80021ec:	2b20      	cmp	r3, #32
 80021ee:	d1f5      	bne.n	80021dc <reduce_add_sub+0x38>
 80021f0:	b008      	add	sp, #32
 80021f2:	bd70      	pop	{r4, r5, r6, pc}
 80021f4:	0800ed58 	.word	0x0800ed58

080021f8 <barrett_reduce>:
 80021f8:	e92d 4ff0 	stmdb	sp!, {r4, r5, r6, r7, r8, r9, sl, fp, lr}
 80021fc:	b0ad      	sub	sp, #180	; 0xb4
 80021fe:	2300      	movs	r3, #0
 8002200:	9003      	str	r0, [sp, #12]
 8002202:	18ca      	adds	r2, r1, r3
 8002204:	69d0      	ldr	r0, [r2, #28]
 8002206:	aa11      	add	r2, sp, #68	; 0x44
 8002208:	5098      	str	r0, [r3, r2]
 800220a:	3304      	adds	r3, #4
 800220c:	2b24      	cmp	r3, #36	; 0x24
 800220e:	d1f8      	bne.n	8002202 <barrett_reduce+0xa>
 8002210:	2600      	movs	r6, #0
 8002212:	f04f 0800 	mov.w	r8, #0
 8002216:	f04f 0900 	mov.w	r9, #0
 800221a:	2000      	movs	r0, #0
 800221c:	9005      	str	r0, [sp, #20]
 800221e:	f8cd 9010 	str.w	r9, [sp, #16]
 8002222:	46c4      	mov	ip, r8
 8002224:	4860      	ldr	r0, [pc, #384]	; (80023a8 <barrett_reduce+0x1b0>)
 8002226:	e9dd 8904 	ldrd	r8, r9, [sp, #16]
 800222a:	eb00 0e86 	add.w	lr, r0, r6, lsl #2
 800222e:	2700      	movs	r7, #0
 8002230:	f06f 0203 	mvn.w	r2, #3
 8002234:	437a      	muls	r2, r7
 8002236:	ab11      	add	r3, sp, #68	; 0x44
 8002238:	f85e 2002 	ldr.w	r2, [lr, r2]
 800223c:	f853 3027 	ldr.w	r3, [r3, r7, lsl #2]
 8002240:	fba2 2303 	umull	r2, r3, r2, r3
 8002244:	eb1c 0402 	adds.w	r4, ip, r2
 8002248:	f04f 0500 	mov.w	r5, #0
 800224c:	f145 0500 	adc.w	r5, r5, #0
 8002250:	46a4      	mov	ip, r4
 8002252:	2400      	movs	r4, #0
 8002254:	9500      	str	r5, [sp, #0]
 8002256:	9401      	str	r4, [sp, #4]
 8002258:	9306      	str	r3, [sp, #24]
 800225a:	9407      	str	r4, [sp, #28]
 800225c:	e9dd 2300 	ldrd	r2, r3, [sp]
 8002260:	e9dd 4506 	ldrd	r4, r5, [sp, #24]
 8002264:	1912      	adds	r2, r2, r4
 8002266:	eb43 0305 	adc.w	r3, r3, r5
 800226a:	3701      	adds	r7, #1
 800226c:	eb18 0802 	adds.w	r8, r8, r2
 8002270:	eb49 0903 	adc.w	r9, r9, r3
 8002274:	42b7      	cmp	r7, r6
 8002276:	dddb      	ble.n	8002230 <barrett_reduce+0x38>
 8002278:	3601      	adds	r6, #1
 800227a:	2e09      	cmp	r6, #9
 800227c:	d1cd      	bne.n	800221a <barrett_reduce+0x22>
 800227e:	2600      	movs	r6, #0
 8002280:	4637      	mov	r7, r6
 8002282:	2500      	movs	r5, #0
 8002284:	f8cd 9020 	str.w	r9, [sp, #32]
 8002288:	9509      	str	r5, [sp, #36]	; 0x24
 800228a:	46c4      	mov	ip, r8
 800228c:	aa11      	add	r2, sp, #68	; 0x44
 800228e:	e9dd 8908 	ldrd	r8, r9, [sp, #32]
 8002292:	3701      	adds	r7, #1
 8002294:	4432      	add	r2, r6
 8002296:	9200      	str	r2, [sp, #0]
 8002298:	46be      	mov	lr, r7
 800229a:	1832      	adds	r2, r6, r0
 800229c:	9c00      	ldr	r4, [sp, #0]
 800229e:	eba2 028e 	sub.w	r2, r2, lr, lsl #2
 80022a2:	f854 3f04 	ldr.w	r3, [r4, #4]!
 80022a6:	6a52      	ldr	r2, [r2, #36]	; 0x24
 80022a8:	9400      	str	r4, [sp, #0]
 80022aa:	fba2 2303 	umull	r2, r3, r2, r3
 80022ae:	f04f 0b00 	mov.w	fp, #0
 80022b2:	930a      	str	r3, [sp, #40]	; 0x28
 80022b4:	f8cd b02c 	str.w	fp, [sp, #44]	; 0x2c
 80022b8:	eb1c 0402 	adds.w	r4, ip, r2
 80022bc:	e9dd 230a 	ldrd	r2, r3, [sp, #40]	; 0x28
 80022c0:	f04f 0500 	mov.w	r5, #0
 80022c4:	f145 0500 	adc.w	r5, r5, #0
 80022c8:	1952      	adds	r2, r2, r5
 80022ca:	eb43 030b 	adc.w	r3, r3, fp
 80022ce:	f10e 0e01 	add.w	lr, lr, #1
 80022d2:	eb18 0802 	adds.w	r8, r8, r2
 80022d6:	eb49 0903 	adc.w	r9, r9, r3
 80022da:	f1be 0f08 	cmp.w	lr, #8
 80022de:	46a4      	mov	ip, r4
 80022e0:	dddb      	ble.n	800229a <barrett_reduce+0xa2>
 80022e2:	ab1a      	add	r3, sp, #104	; 0x68
 80022e4:	2f08      	cmp	r7, #8
 80022e6:	50f4      	str	r4, [r6, r3]
 80022e8:	f106 0604 	add.w	r6, r6, #4
 80022ec:	d1c9      	bne.n	8002282 <barrett_reduce+0x8a>
 80022ee:	f8cd 8088 	str.w	r8, [sp, #136]	; 0x88
 80022f2:	f8cd b08c 	str.w	fp, [sp, #140]	; 0x8c
 80022f6:	f8cd b090 	str.w	fp, [sp, #144]	; 0x90
 80022fa:	f8cd b094 	str.w	fp, [sp, #148]	; 0x94
 80022fe:	f8cd b098 	str.w	fp, [sp, #152]	; 0x98
 8002302:	f8cd b09c 	str.w	fp, [sp, #156]	; 0x9c
 8002306:	f8cd b0a0 	str.w	fp, [sp, #160]	; 0xa0
 800230a:	f8cd b0a4 	str.w	fp, [sp, #164]	; 0xa4
 800230e:	f8cd b0a8 	str.w	fp, [sp, #168]	; 0xa8
 8002312:	f8cd b0ac 	str.w	fp, [sp, #172]	; 0xac
 8002316:	465e      	mov	r6, fp
 8002318:	2509      	movs	r5, #9
 800231a:	2000      	movs	r0, #0
 800231c:	2300      	movs	r3, #0
 800231e:	4607      	mov	r7, r0
 8002320:	42af      	cmp	r7, r5
 8002322:	da19      	bge.n	8002358 <barrett_reduce+0x160>
 8002324:	aa1a      	add	r2, sp, #104	; 0x68
 8002326:	f10d 0e8c 	add.w	lr, sp, #140	; 0x8c
 800232a:	f850 9002 	ldr.w	r9, [r0, r2]
 800232e:	4a1f      	ldr	r2, [pc, #124]	; (80023ac <barrett_reduce+0x1b4>)
 8002330:	930c      	str	r3, [sp, #48]	; 0x30
 8002332:	f856 c002 	ldr.w	ip, [r6, r2]
 8002336:	2200      	movs	r2, #0
 8002338:	44b6      	add	lr, r6
 800233a:	920d      	str	r2, [sp, #52]	; 0x34
 800233c:	e9dd 230c 	ldrd	r2, r3, [sp, #48]	; 0x30
 8002340:	f85e 4000 	ldr.w	r4, [lr, r0]
 8002344:	1912      	adds	r2, r2, r4
 8002346:	f143 0300 	adc.w	r3, r3, #0
 800234a:	fbec 2309 	umlal	r2, r3, ip, r9
 800234e:	f84e 2000 	str.w	r2, [lr, r0]
 8002352:	3701      	adds	r7, #1
 8002354:	3004      	adds	r0, #4
 8002356:	e7e3      	b.n	8002320 <barrett_reduce+0x128>
 8002358:	3d01      	subs	r5, #1
 800235a:	2d01      	cmp	r5, #1
 800235c:	f106 0604 	add.w	r6, r6, #4
 8002360:	d1db      	bne.n	800231a <barrett_reduce+0x122>
 8002362:	2400      	movs	r4, #0
 8002364:	4625      	mov	r5, r4
 8002366:	5908      	ldr	r0, [r1, r4]
 8002368:	2200      	movs	r2, #0
 800236a:	2301      	movs	r3, #1
 800236c:	1b52      	subs	r2, r2, r5
 800236e:	f163 0300 	sbc.w	r3, r3, #0
 8002372:	1812      	adds	r2, r2, r0
 8002374:	a823      	add	r0, sp, #140	; 0x8c
 8002376:	f143 0300 	adc.w	r3, r3, #0
 800237a:	5820      	ldr	r0, [r4, r0]
 800237c:	1a12      	subs	r2, r2, r0
 800237e:	f163 0300 	sbc.w	r3, r3, #0
 8002382:	9803      	ldr	r0, [sp, #12]
 8002384:	930e      	str	r3, [sp, #56]	; 0x38
 8002386:	5102      	str	r2, [r0, r4]
 8002388:	3404      	adds	r4, #4
 800238a:	2500      	movs	r5, #0
 800238c:	2c20      	cmp	r4, #32
 800238e:	950f      	str	r5, [sp, #60]	; 0x3c
 8002390:	f083 0501 	eor.w	r5, r3, #1
 8002394:	d1e7      	bne.n	8002366 <barrett_reduce+0x16e>
 8002396:	f7ff ff05 	bl	80021a4 <reduce_add_sub>
 800239a:	9803      	ldr	r0, [sp, #12]
 800239c:	b02d      	add	sp, #180	; 0xb4
 800239e:	e8bd 4ff0 	ldmia.w	sp!, {r4, r5, r6, r7, r8, r9, sl, fp, lr}
 80023a2:	f7ff beff 	b.w	80021a4 <reduce_add_sub>
 80023a6:	bf00      	nop
 80023a8:	0800fba0 	.word	0x0800fba0
 80023ac:	0800ed58 	.word	0x0800ed58

080023b0 <reduceRS>:
 80023b0:	e92d 43f0 	stmdb	sp!, {r4, r5, r6, r7, r8, r9, lr}
 80023b4:	680c      	ldr	r4, [r1, #0]
 80023b6:	f04f 0c26 	mov.w	ip, #38	; 0x26
 80023ba:	2500      	movs	r5, #0
 80023bc:	fbec 4502 	umlal	r4, r5, ip, r2
 80023c0:	6004      	str	r4, [r0, #0]
 80023c2:	462a      	mov	r2, r5
 80023c4:	684d      	ldr	r5, [r1, #4]
 80023c6:	1956      	adds	r6, r2, r5
 80023c8:	6046      	str	r6, [r0, #4]
 80023ca:	688a      	ldr	r2, [r1, #8]
 80023cc:	f04f 0300 	mov.w	r3, #0
 80023d0:	f143 0700 	adc.w	r7, r3, #0
 80023d4:	eb17 0802 	adds.w	r8, r7, r2
 80023d8:	f8c0 8008 	str.w	r8, [r0, #8]
 80023dc:	68ca      	ldr	r2, [r1, #12]
 80023de:	f143 0900 	adc.w	r9, r3, #0
 80023e2:	eb19 0602 	adds.w	r6, r9, r2
 80023e6:	60c6      	str	r6, [r0, #12]
 80023e8:	690a      	ldr	r2, [r1, #16]
 80023ea:	f143 0700 	adc.w	r7, r3, #0
 80023ee:	eb17 0802 	adds.w	r8, r7, r2
 80023f2:	f8c0 8010 	str.w	r8, [r0, #16]
 80023f6:	694a      	ldr	r2, [r1, #20]
 80023f8:	f143 0900 	adc.w	r9, r3, #0
 80023fc:	eb19 0602 	adds.w	r6, r9, r2
 8002400:	6146      	str	r6, [r0, #20]
 8002402:	698a      	ldr	r2, [r1, #24]
 8002404:	f143 0700 	adc.w	r7, r3, #0
 8002408:	eb17 0802 	adds.w	r8, r7, r2
 800240c:	f8c0 8018 	str.w	r8, [r0, #24]
 8002410:	69ca      	ldr	r2, [r1, #28]
 8002412:	f143 0900 	adc.w	r9, r3, #0
 8002416:	eb19 0602 	adds.w	r6, r9, r2
 800241a:	f143 0700 	adc.w	r7, r3, #0
 800241e:	fb0c 4407 	mla	r4, ip, r7, r4
 8002422:	61c6      	str	r6, [r0, #28]
 8002424:	6004      	str	r4, [r0, #0]
 8002426:	e8bd 83f0 	ldmia.w	sp!, {r4, r5, r6, r7, r8, r9, pc}
	...

0800242c <c25519_select>:
 800242c:	e92d 41f3 	stmdb	sp!, {r0, r1, r4, r5, r6, r7, r8, lr}
 8002430:	4e46      	ldr	r6, [pc, #280]	; (800254c <c25519_select+0x120>)
 8002432:	9d08      	ldr	r5, [sp, #32]
 8002434:	2701      	movs	r7, #1
 8002436:	2400      	movs	r4, #0
 8002438:	9401      	str	r4, [sp, #4]
 800243a:	6037      	str	r7, [r6, #0]
 800243c:	6836      	ldr	r6, [r6, #0]
 800243e:	9601      	str	r6, [sp, #4]
 8002440:	4e43      	ldr	r6, [pc, #268]	; (8002550 <c25519_select+0x124>)
 8002442:	6837      	ldr	r7, [r6, #0]
 8002444:	9701      	str	r7, [sp, #4]
 8002446:	9f01      	ldr	r7, [sp, #4]
 8002448:	3701      	adds	r7, #1
 800244a:	f105 35ff 	add.w	r5, r5, #4294967295
 800244e:	d154      	bne.n	80024fa <c25519_select+0xce>
 8002450:	9f01      	ldr	r7, [sp, #4]
 8002452:	6037      	str	r7, [r6, #0]
 8002454:	6836      	ldr	r6, [r6, #0]
 8002456:	9601      	str	r6, [sp, #4]
 8002458:	9e01      	ldr	r6, [sp, #4]
 800245a:	bb3e      	cbnz	r6, 80024ac <c25519_select+0x80>
 800245c:	4634      	mov	r4, r6
 800245e:	591f      	ldr	r7, [r3, r4]
 8002460:	5916      	ldr	r6, [r2, r4]
 8002462:	407e      	eors	r6, r7
 8002464:	402e      	ands	r6, r5
 8002466:	4077      	eors	r7, r6
 8002468:	5107      	str	r7, [r0, r4]
 800246a:	5917      	ldr	r7, [r2, r4]
 800246c:	407e      	eors	r6, r7
 800246e:	510e      	str	r6, [r1, r4]
 8002470:	3404      	adds	r4, #4
 8002472:	2c20      	cmp	r4, #32
 8002474:	d1f3      	bne.n	800245e <c25519_select+0x32>
 8002476:	2400      	movs	r4, #0
 8002478:	f102 0720 	add.w	r7, r2, #32
 800247c:	f103 0620 	add.w	r6, r3, #32
 8002480:	f100 0820 	add.w	r8, r0, #32
 8002484:	f856 c004 	ldr.w	ip, [r6, r4]
 8002488:	593e      	ldr	r6, [r7, r4]
 800248a:	ea8c 0606 	eor.w	r6, ip, r6
 800248e:	402e      	ands	r6, r5
 8002490:	ea86 0c0c 	eor.w	ip, r6, ip
 8002494:	f848 c004 	str.w	ip, [r8, r4]
 8002498:	593f      	ldr	r7, [r7, r4]
 800249a:	f101 0c20 	add.w	ip, r1, #32
 800249e:	407e      	eors	r6, r7
 80024a0:	f84c 6004 	str.w	r6, [ip, r4]
 80024a4:	3404      	adds	r4, #4
 80024a6:	2c20      	cmp	r4, #32
 80024a8:	d1e6      	bne.n	8002478 <c25519_select+0x4c>
 80024aa:	e04c      	b.n	8002546 <c25519_select+0x11a>
 80024ac:	591f      	ldr	r7, [r3, r4]
 80024ae:	5916      	ldr	r6, [r2, r4]
 80024b0:	403e      	ands	r6, r7
 80024b2:	402e      	ands	r6, r5
 80024b4:	4037      	ands	r7, r6
 80024b6:	5107      	str	r7, [r0, r4]
 80024b8:	5917      	ldr	r7, [r2, r4]
 80024ba:	403e      	ands	r6, r7
 80024bc:	510e      	str	r6, [r1, r4]
 80024be:	3404      	adds	r4, #4
 80024c0:	2c20      	cmp	r4, #32
 80024c2:	d1f3      	bne.n	80024ac <c25519_select+0x80>
 80024c4:	2400      	movs	r4, #0
 80024c6:	f102 0720 	add.w	r7, r2, #32
 80024ca:	f103 0620 	add.w	r6, r3, #32
 80024ce:	f100 0820 	add.w	r8, r0, #32
 80024d2:	f856 c004 	ldr.w	ip, [r6, r4]
 80024d6:	593e      	ldr	r6, [r7, r4]
 80024d8:	ea8c 0606 	eor.w	r6, ip, r6
 80024dc:	406e      	eors	r6, r5
 80024de:	ea06 0c0c 	and.w	ip, r6, ip
 80024e2:	f848 c004 	str.w	ip, [r8, r4]
 80024e6:	593f      	ldr	r7, [r7, r4]
 80024e8:	f101 0c20 	add.w	ip, r1, #32
 80024ec:	403e      	ands	r6, r7
 80024ee:	f84c 6004 	str.w	r6, [ip, r4]
 80024f2:	3404      	adds	r4, #4
 80024f4:	2c20      	cmp	r4, #32
 80024f6:	d1e6      	bne.n	80024c6 <c25519_select+0x9a>
 80024f8:	e025      	b.n	8002546 <c25519_select+0x11a>
 80024fa:	591f      	ldr	r7, [r3, r4]
 80024fc:	5916      	ldr	r6, [r2, r4]
 80024fe:	407e      	eors	r6, r7
 8002500:	402e      	ands	r6, r5
 8002502:	4037      	ands	r7, r6
 8002504:	5107      	str	r7, [r0, r4]
 8002506:	5917      	ldr	r7, [r2, r4]
 8002508:	403e      	ands	r6, r7
 800250a:	510e      	str	r6, [r1, r4]
 800250c:	3404      	adds	r4, #4
 800250e:	2c20      	cmp	r4, #32
 8002510:	d1f3      	bne.n	80024fa <c25519_select+0xce>
 8002512:	2400      	movs	r4, #0
 8002514:	f102 0720 	add.w	r7, r2, #32
 8002518:	f103 0620 	add.w	r6, r3, #32
 800251c:	f100 0820 	add.w	r8, r0, #32
 8002520:	f856 c004 	ldr.w	ip, [r6, r4]
 8002524:	593e      	ldr	r6, [r7, r4]
 8002526:	ea8c 0606 	eor.w	r6, ip, r6
 800252a:	406e      	eors	r6, r5
 800252c:	ea06 0c0c 	and.w	ip, r6, ip
 8002530:	f848 c004 	str.w	ip, [r8, r4]
 8002534:	593f      	ldr	r7, [r7, r4]
 8002536:	f101 0c20 	add.w	ip, r1, #32
 800253a:	403e      	ands	r6, r7
 800253c:	f84c 6004 	str.w	r6, [ip, r4]
 8002540:	3404      	adds	r4, #4
 8002542:	2c20      	cmp	r4, #32
 8002544:	d1e6      	bne.n	8002514 <c25519_select+0xe8>
 8002546:	b002      	add	sp, #8
 8002548:	e8bd 81f0 	ldmia.w	sp!, {r4, r5, r6, r7, r8, pc}
 800254c:	40023008 	.word	0x40023008
 8002550:	40023000 	.word	0x40023000

08002554 <SHA1Transform>:
 8002554:	e92d 4ff0 	stmdb	sp!, {r4, r5, r6, r7, r8, r9, sl, fp, lr}
 8002558:	4684      	mov	ip, r0
 800255a:	e890 0601 	ldmia.w	r0, {r0, r9, sl}
 800255e:	b0d5      	sub	sp, #340	; 0x154
 8002560:	2300      	movs	r3, #0
 8002562:	f8dc 200c 	ldr.w	r2, [ip, #12]
 8002566:	f8dc 6010 	ldr.w	r6, [ip, #16]
 800256a:	9303      	str	r3, [sp, #12]
 800256c:	9200      	str	r2, [sp, #0]
 800256e:	9601      	str	r6, [sp, #4]
 8002570:	58ca      	ldr	r2, [r1, r3]
 8002572:	af04      	add	r7, sp, #16
 8002574:	ba12      	rev	r2, r2
 8002576:	51da      	str	r2, [r3, r7]
 8002578:	3304      	adds	r3, #4
 800257a:	2b40      	cmp	r3, #64	; 0x40
 800257c:	d1f8      	bne.n	8002570 <SHA1Transform+0x1c>
 800257e:	463c      	mov	r4, r7
 8002580:	2500      	movs	r5, #0
 8002582:	6b62      	ldr	r2, [r4, #52]	; 0x34
 8002584:	6a23      	ldr	r3, [r4, #32]
 8002586:	5979      	ldr	r1, [r7, r5]
 8002588:	4053      	eors	r3, r2
 800258a:	404b      	eors	r3, r1
 800258c:	68a1      	ldr	r1, [r4, #8]
 800258e:	3504      	adds	r5, #4
 8002590:	4059      	eors	r1, r3
 8002592:	ea4f 71f1 	mov.w	r1, r1, ror #31
 8002596:	f5b5 7f80 	cmp.w	r5, #256	; 0x100
 800259a:	6421      	str	r1, [r4, #64]	; 0x40
 800259c:	f104 0404 	add.w	r4, r4, #4
 80025a0:	d1ef      	bne.n	8002582 <SHA1Transform+0x2e>
 80025a2:	e89d 000c 	ldmia.w	sp, {r2, r3}
 80025a6:	463e      	mov	r6, r7
 80025a8:	f10d 0860 	add.w	r8, sp, #96	; 0x60
 80025ac:	4651      	mov	r1, sl
 80025ae:	464c      	mov	r4, r9
 80025b0:	f8df b31c 	ldr.w	fp, [pc, #796]	; 80028d0 <SHA1Transform+0x37c>
 80025b4:	ea4f 65f0 	mov.w	r5, r0, ror #27
 80025b8:	44ab      	add	fp, r5
 80025ba:	6835      	ldr	r5, [r6, #0]
 80025bc:	445d      	add	r5, fp
 80025be:	ea82 0b01 	eor.w	fp, r2, r1
 80025c2:	ea0b 0b04 	and.w	fp, fp, r4
 80025c6:	ea8b 0b02 	eor.w	fp, fp, r2
 80025ca:	44ab      	add	fp, r5
 80025cc:	4dc0      	ldr	r5, [pc, #768]	; (80028d0 <SHA1Transform+0x37c>)
 80025ce:	4415      	add	r5, r2
 80025d0:	6872      	ldr	r2, [r6, #4]
 80025d2:	ea4f 04b4 	mov.w	r4, r4, ror #2
 80025d6:	445b      	add	r3, fp
 80025d8:	442a      	add	r2, r5
 80025da:	ea84 0b01 	eor.w	fp, r4, r1
 80025de:	4dbc      	ldr	r5, [pc, #752]	; (80028d0 <SHA1Transform+0x37c>)
 80025e0:	ea0b 0b00 	and.w	fp, fp, r0
 80025e4:	ea8b 0b01 	eor.w	fp, fp, r1
 80025e8:	440d      	add	r5, r1
 80025ea:	68b1      	ldr	r1, [r6, #8]
 80025ec:	ea4f 00b0 	mov.w	r0, r0, ror #2
 80025f0:	445a      	add	r2, fp
 80025f2:	4429      	add	r1, r5
 80025f4:	ea80 0b04 	eor.w	fp, r0, r4
 80025f8:	4db5      	ldr	r5, [pc, #724]	; (80028d0 <SHA1Transform+0x37c>)
 80025fa:	ea03 0b0b 	and.w	fp, r3, fp
 80025fe:	eb02 62f3 	add.w	r2, r2, r3, ror #27
 8002602:	ea8b 0b04 	eor.w	fp, fp, r4
 8002606:	ea4f 03b3 	mov.w	r3, r3, ror #2
 800260a:	4425      	add	r5, r4
 800260c:	68f4      	ldr	r4, [r6, #12]
 800260e:	4459      	add	r1, fp
 8002610:	ea83 0b00 	eor.w	fp, r3, r0
 8002614:	442c      	add	r4, r5
 8002616:	ea0b 0b02 	and.w	fp, fp, r2
 800261a:	4dad      	ldr	r5, [pc, #692]	; (80028d0 <SHA1Transform+0x37c>)
 800261c:	eb01 61f2 	add.w	r1, r1, r2, ror #27
 8002620:	ea8b 0b00 	eor.w	fp, fp, r0
 8002624:	ea4f 02b2 	mov.w	r2, r2, ror #2
 8002628:	445c      	add	r4, fp
 800262a:	4405      	add	r5, r0
 800262c:	ea82 0b03 	eor.w	fp, r2, r3
 8002630:	6930      	ldr	r0, [r6, #16]
 8002632:	ea0b 0b01 	and.w	fp, fp, r1
 8002636:	4428      	add	r0, r5
 8002638:	ea8b 0b03 	eor.w	fp, fp, r3
 800263c:	3614      	adds	r6, #20
 800263e:	eb04 64f1 	add.w	r4, r4, r1, ror #27
 8002642:	4458      	add	r0, fp
 8002644:	4546      	cmp	r6, r8
 8002646:	eb00 60f4 	add.w	r0, r0, r4, ror #27
 800264a:	ea4f 01b1 	mov.w	r1, r1, ror #2
 800264e:	d1af      	bne.n	80025b0 <SHA1Transform+0x5c>
 8002650:	463e      	mov	r6, r7
 8002652:	4da0      	ldr	r5, [pc, #640]	; (80028d4 <SHA1Transform+0x380>)
 8002654:	ea4f 6bf0 	mov.w	fp, r0, ror #27
 8002658:	445d      	add	r5, fp
 800265a:	ea81 0b04 	eor.w	fp, r1, r4
 800265e:	ea8b 0b02 	eor.w	fp, fp, r2
 8002662:	44ab      	add	fp, r5
 8002664:	6d35      	ldr	r5, [r6, #80]	; 0x50
 8002666:	445d      	add	r5, fp
 8002668:	442b      	add	r3, r5
 800266a:	4d9a      	ldr	r5, [pc, #616]	; (80028d4 <SHA1Transform+0x380>)
 800266c:	ea4f 04b4 	mov.w	r4, r4, ror #2
 8002670:	4415      	add	r5, r2
 8002672:	ea81 0200 	eor.w	r2, r1, r0
 8002676:	4062      	eors	r2, r4
 8002678:	442a      	add	r2, r5
 800267a:	6d75      	ldr	r5, [r6, #84]	; 0x54
 800267c:	442a      	add	r2, r5
 800267e:	4d95      	ldr	r5, [pc, #596]	; (80028d4 <SHA1Transform+0x380>)
 8002680:	440d      	add	r5, r1
 8002682:	6db1      	ldr	r1, [r6, #88]	; 0x58
 8002684:	4429      	add	r1, r5
 8002686:	4d93      	ldr	r5, [pc, #588]	; (80028d4 <SHA1Transform+0x380>)
 8002688:	ea4f 00b0 	mov.w	r0, r0, ror #2
 800268c:	ea80 0b04 	eor.w	fp, r0, r4
 8002690:	4425      	add	r5, r4
 8002692:	6df4      	ldr	r4, [r6, #92]	; 0x5c
 8002694:	eb02 62f3 	add.w	r2, r2, r3, ror #27
 8002698:	ea8b 0b03 	eor.w	fp, fp, r3
 800269c:	442c      	add	r4, r5
 800269e:	ea4f 03b3 	mov.w	r3, r3, ror #2
 80026a2:	4d8c      	ldr	r5, [pc, #560]	; (80028d4 <SHA1Transform+0x380>)
 80026a4:	4459      	add	r1, fp
 80026a6:	ea83 0b00 	eor.w	fp, r3, r0
 80026aa:	eb01 61f2 	add.w	r1, r1, r2, ror #27
 80026ae:	ea8b 0b02 	eor.w	fp, fp, r2
 80026b2:	4405      	add	r5, r0
 80026b4:	ea4f 02b2 	mov.w	r2, r2, ror #2
 80026b8:	6e30      	ldr	r0, [r6, #96]	; 0x60
 80026ba:	445c      	add	r4, fp
 80026bc:	ea82 0b03 	eor.w	fp, r2, r3
 80026c0:	ea8b 0b01 	eor.w	fp, fp, r1
 80026c4:	4428      	add	r0, r5
 80026c6:	3614      	adds	r6, #20
 80026c8:	eb04 64f1 	add.w	r4, r4, r1, ror #27
 80026cc:	4458      	add	r0, fp
 80026ce:	4546      	cmp	r6, r8
 80026d0:	eb00 60f4 	add.w	r0, r0, r4, ror #27
 80026d4:	ea4f 01b1 	mov.w	r1, r1, ror #2
 80026d8:	d1bb      	bne.n	8002652 <SHA1Transform+0xfe>
 80026da:	ad2c      	add	r5, sp, #176	; 0xb0
 80026dc:	f507 7882 	add.w	r8, r7, #260	; 0x104
 80026e0:	3514      	adds	r5, #20
 80026e2:	4545      	cmp	r5, r8
 80026e4:	d059      	beq.n	800279a <SHA1Transform+0x246>
 80026e6:	f855 6c14 	ldr.w	r6, [r5, #-20]
 80026ea:	f8df b1f8 	ldr.w	fp, [pc, #504]	; 80028e4 <SHA1Transform+0x390>
 80026ee:	44b3      	add	fp, r6
 80026f0:	449b      	add	fp, r3
 80026f2:	ea41 0304 	orr.w	r3, r1, r4
 80026f6:	ea01 0604 	and.w	r6, r1, r4
 80026fa:	4013      	ands	r3, r2
 80026fc:	eb0b 6bf0 	add.w	fp, fp, r0, ror #27
 8002700:	4333      	orrs	r3, r6
 8002702:	445b      	add	r3, fp
 8002704:	f855 6c10 	ldr.w	r6, [r5, #-16]
 8002708:	f8df b1d8 	ldr.w	fp, [pc, #472]	; 80028e4 <SHA1Transform+0x390>
 800270c:	ea4f 04b4 	mov.w	r4, r4, ror #2
 8002710:	44b3      	add	fp, r6
 8002712:	ea44 0600 	orr.w	r6, r4, r0
 8002716:	4493      	add	fp, r2
 8002718:	400e      	ands	r6, r1
 800271a:	ea04 0200 	and.w	r2, r4, r0
 800271e:	4332      	orrs	r2, r6
 8002720:	445a      	add	r2, fp
 8002722:	f855 6c0c 	ldr.w	r6, [r5, #-12]
 8002726:	f8df b1bc 	ldr.w	fp, [pc, #444]	; 80028e4 <SHA1Transform+0x390>
 800272a:	ea4f 00b0 	mov.w	r0, r0, ror #2
 800272e:	44b3      	add	fp, r6
 8002730:	ea43 0600 	orr.w	r6, r3, r0
 8002734:	448b      	add	fp, r1
 8002736:	4026      	ands	r6, r4
 8002738:	ea03 0100 	and.w	r1, r3, r0
 800273c:	4331      	orrs	r1, r6
 800273e:	4459      	add	r1, fp
 8002740:	f855 6c08 	ldr.w	r6, [r5, #-8]
 8002744:	f8df b19c 	ldr.w	fp, [pc, #412]	; 80028e4 <SHA1Transform+0x390>
 8002748:	eb02 62f3 	add.w	r2, r2, r3, ror #27
 800274c:	44b3      	add	fp, r6
 800274e:	ea4f 03b3 	mov.w	r3, r3, ror #2
 8002752:	445c      	add	r4, fp
 8002754:	ea42 0b03 	orr.w	fp, r2, r3
 8002758:	ea02 0603 	and.w	r6, r2, r3
 800275c:	ea0b 0b00 	and.w	fp, fp, r0
 8002760:	ea4b 0b06 	orr.w	fp, fp, r6
 8002764:	445c      	add	r4, fp
 8002766:	f855 6c04 	ldr.w	r6, [r5, #-4]
 800276a:	f8df b178 	ldr.w	fp, [pc, #376]	; 80028e4 <SHA1Transform+0x390>
 800276e:	eb01 61f2 	add.w	r1, r1, r2, ror #27
 8002772:	44b3      	add	fp, r6
 8002774:	ea4f 02b2 	mov.w	r2, r2, ror #2
 8002778:	4458      	add	r0, fp
 800277a:	ea41 0b02 	orr.w	fp, r1, r2
 800277e:	ea01 0602 	and.w	r6, r1, r2
 8002782:	ea0b 0b03 	and.w	fp, fp, r3
 8002786:	ea4b 0b06 	orr.w	fp, fp, r6
 800278a:	eb04 64f1 	add.w	r4, r4, r1, ror #27
 800278e:	4458      	add	r0, fp
 8002790:	eb00 60f4 	add.w	r0, r0, r4, ror #27
 8002794:	ea4f 01b1 	mov.w	r1, r1, ror #2
 8002798:	e7a2      	b.n	80026e0 <SHA1Transform+0x18c>
 800279a:	ad40      	add	r5, sp, #256	; 0x100
 800279c:	f507 78aa 	add.w	r8, r7, #340	; 0x154
 80027a0:	3514      	adds	r5, #20
 80027a2:	4545      	cmp	r5, r8
 80027a4:	d041      	beq.n	800282a <SHA1Transform+0x2d6>
 80027a6:	f855 7c14 	ldr.w	r7, [r5, #-20]
 80027aa:	4e4b      	ldr	r6, [pc, #300]	; (80028d8 <SHA1Transform+0x384>)
 80027ac:	443e      	add	r6, r7
 80027ae:	4433      	add	r3, r6
 80027b0:	ea81 0604 	eor.w	r6, r1, r4
 80027b4:	4056      	eors	r6, r2
 80027b6:	eb03 63f0 	add.w	r3, r3, r0, ror #27
 80027ba:	4433      	add	r3, r6
 80027bc:	f855 7c10 	ldr.w	r7, [r5, #-16]
 80027c0:	4e45      	ldr	r6, [pc, #276]	; (80028d8 <SHA1Transform+0x384>)
 80027c2:	443e      	add	r6, r7
 80027c4:	ea4f 04b4 	mov.w	r4, r4, ror #2
 80027c8:	4432      	add	r2, r6
 80027ca:	ea81 0600 	eor.w	r6, r1, r0
 80027ce:	4066      	eors	r6, r4
 80027d0:	4432      	add	r2, r6
 80027d2:	f855 7c0c 	ldr.w	r7, [r5, #-12]
 80027d6:	4e40      	ldr	r6, [pc, #256]	; (80028d8 <SHA1Transform+0x384>)
 80027d8:	ea4f 00b0 	mov.w	r0, r0, ror #2
 80027dc:	443e      	add	r6, r7
 80027de:	4431      	add	r1, r6
 80027e0:	ea80 0604 	eor.w	r6, r0, r4
 80027e4:	405e      	eors	r6, r3
 80027e6:	4431      	add	r1, r6
 80027e8:	f855 7c08 	ldr.w	r7, [r5, #-8]
 80027ec:	4e3a      	ldr	r6, [pc, #232]	; (80028d8 <SHA1Transform+0x384>)
 80027ee:	eb02 62f3 	add.w	r2, r2, r3, ror #27
 80027f2:	443e      	add	r6, r7
 80027f4:	ea4f 03b3 	mov.w	r3, r3, ror #2
 80027f8:	4434      	add	r4, r6
 80027fa:	ea83 0600 	eor.w	r6, r3, r0
 80027fe:	4056      	eors	r6, r2
 8002800:	4434      	add	r4, r6
 8002802:	f855 7c04 	ldr.w	r7, [r5, #-4]
 8002806:	4e34      	ldr	r6, [pc, #208]	; (80028d8 <SHA1Transform+0x384>)
 8002808:	eb01 61f2 	add.w	r1, r1, r2, ror #27
 800280c:	443e      	add	r6, r7
 800280e:	ea4f 02b2 	mov.w	r2, r2, ror #2
 8002812:	4430      	add	r0, r6
 8002814:	ea82 0603 	eor.w	r6, r2, r3
 8002818:	404e      	eors	r6, r1
 800281a:	eb04 64f1 	add.w	r4, r4, r1, ror #27
 800281e:	4430      	add	r0, r6
 8002820:	eb00 60f4 	add.w	r0, r0, r4, ror #27
 8002824:	ea4f 01b1 	mov.w	r1, r1, ror #2
 8002828:	e7ba      	b.n	80027a0 <SHA1Transform+0x24c>
 800282a:	4d2c      	ldr	r5, [pc, #176]	; (80028dc <SHA1Transform+0x388>)
 800282c:	2601      	movs	r6, #1
 800282e:	602e      	str	r6, [r5, #0]
 8002830:	682d      	ldr	r5, [r5, #0]
 8002832:	9503      	str	r5, [sp, #12]
 8002834:	4d2a      	ldr	r5, [pc, #168]	; (80028e0 <SHA1Transform+0x38c>)
 8002836:	682e      	ldr	r6, [r5, #0]
 8002838:	9603      	str	r6, [sp, #12]
 800283a:	9e03      	ldr	r6, [sp, #12]
 800283c:	3601      	adds	r6, #1
 800283e:	d12e      	bne.n	800289e <SHA1Transform+0x34a>
 8002840:	9e03      	ldr	r6, [sp, #12]
 8002842:	602e      	str	r6, [r5, #0]
 8002844:	682d      	ldr	r5, [r5, #0]
 8002846:	9503      	str	r5, [sp, #12]
 8002848:	9e03      	ldr	r6, [sp, #12]
 800284a:	f8dc 9004 	ldr.w	r9, [ip, #4]
 800284e:	f8dc 8008 	ldr.w	r8, [ip, #8]
 8002852:	f8dc 700c 	ldr.w	r7, [ip, #12]
 8002856:	f8dc 5010 	ldr.w	r5, [ip, #16]
 800285a:	b98e      	cbnz	r6, 8002880 <SHA1Transform+0x32c>
 800285c:	f8dc 6000 	ldr.w	r6, [ip]
 8002860:	444c      	add	r4, r9
 8002862:	4430      	add	r0, r6
 8002864:	4441      	add	r1, r8
 8002866:	443a      	add	r2, r7
 8002868:	442b      	add	r3, r5
 800286a:	f8cc 0000 	str.w	r0, [ip]
 800286e:	f8cc 4004 	str.w	r4, [ip, #4]
 8002872:	f8cc 1008 	str.w	r1, [ip, #8]
 8002876:	f8cc 200c 	str.w	r2, [ip, #12]
 800287a:	f8cc 3010 	str.w	r3, [ip, #16]
 800287e:	e024      	b.n	80028ca <SHA1Transform+0x376>
 8002880:	ea89 1444 	eor.w	r4, r9, r4, lsl #5
 8002884:	ea88 1141 	eor.w	r1, r8, r1, lsl #5
 8002888:	ea87 1242 	eor.w	r2, r7, r2, lsl #5
 800288c:	f8cc 4000 	str.w	r4, [ip]
 8002890:	f8cc 1004 	str.w	r1, [ip, #4]
 8002894:	f8cc 2008 	str.w	r2, [ip, #8]
 8002898:	ea85 1343 	eor.w	r3, r5, r3, lsl #5
 800289c:	e00f      	b.n	80028be <SHA1Transform+0x36a>
 800289e:	ea8a 1141 	eor.w	r1, sl, r1, lsl #5
 80028a2:	f8cc 1004 	str.w	r1, [ip, #4]
 80028a6:	9900      	ldr	r1, [sp, #0]
 80028a8:	ea81 1242 	eor.w	r2, r1, r2, lsl #5
 80028ac:	f8cc 2008 	str.w	r2, [ip, #8]
 80028b0:	9a01      	ldr	r2, [sp, #4]
 80028b2:	ea89 1444 	eor.w	r4, r9, r4, lsl #5
 80028b6:	f8cc 4000 	str.w	r4, [ip]
 80028ba:	ea82 1343 	eor.w	r3, r2, r3, lsl #5
 80028be:	ea84 1440 	eor.w	r4, r4, r0, lsl #5
 80028c2:	f8cc 300c 	str.w	r3, [ip, #12]
 80028c6:	f8cc 4010 	str.w	r4, [ip, #16]
 80028ca:	b055      	add	sp, #340	; 0x154
 80028cc:	e8bd 8ff0 	ldmia.w	sp!, {r4, r5, r6, r7, r8, r9, sl, fp, pc}
 80028d0:	5a827999 	.word	0x5a827999
 80028d4:	6ed9eba1 	.word	0x6ed9eba1
 80028d8:	ca62c1d6 	.word	0xca62c1d6
 80028dc:	40023008 	.word	0x40023008
 80028e0:	40023000 	.word	0x40023000
 80028e4:	8f1bbcdc 	.word	0x8f1bbcdc

080028e8 <SHA256Transform>:
 80028e8:	e92d 4ff0 	stmdb	sp!, {r4, r5, r6, r7, r8, r9, sl, fp, lr}
 80028ec:	b0c5      	sub	sp, #276	; 0x114
 80028ee:	2300      	movs	r3, #0
 80028f0:	9303      	str	r3, [sp, #12]
 80028f2:	680b      	ldr	r3, [r1, #0]
 80028f4:	ba1b      	rev	r3, r3
 80028f6:	9304      	str	r3, [sp, #16]
 80028f8:	684b      	ldr	r3, [r1, #4]
 80028fa:	ba1b      	rev	r3, r3
 80028fc:	9305      	str	r3, [sp, #20]
 80028fe:	688b      	ldr	r3, [r1, #8]
 8002900:	ba1b      	rev	r3, r3
 8002902:	9306      	str	r3, [sp, #24]
 8002904:	68cb      	ldr	r3, [r1, #12]
 8002906:	ba1b      	rev	r3, r3
 8002908:	9307      	str	r3, [sp, #28]
 800290a:	690b      	ldr	r3, [r1, #16]
 800290c:	ba1b      	rev	r3, r3
 800290e:	9308      	str	r3, [sp, #32]
 8002910:	694b      	ldr	r3, [r1, #20]
 8002912:	ba1b      	rev	r3, r3
 8002914:	9309      	str	r3, [sp, #36]	; 0x24
 8002916:	698b      	ldr	r3, [r1, #24]
 8002918:	ba1b      	rev	r3, r3
 800291a:	930a      	str	r3, [sp, #40]	; 0x28
 800291c:	69cb      	ldr	r3, [r1, #28]
 800291e:	ba1b      	rev	r3, r3
 8002920:	930b      	str	r3, [sp, #44]	; 0x2c
 8002922:	6a0b      	ldr	r3, [r1, #32]
 8002924:	ba1b      	rev	r3, r3
 8002926:	930c      	str	r3, [sp, #48]	; 0x30
 8002928:	6a4b      	ldr	r3, [r1, #36]	; 0x24
 800292a:	ba1b      	rev	r3, r3
 800292c:	930d      	str	r3, [sp, #52]	; 0x34
 800292e:	6a8b      	ldr	r3, [r1, #40]	; 0x28
 8002930:	ba1b      	rev	r3, r3
 8002932:	930e      	str	r3, [sp, #56]	; 0x38
 8002934:	6acb      	ldr	r3, [r1, #44]	; 0x2c
 8002936:	ba1b      	rev	r3, r3
 8002938:	930f      	str	r3, [sp, #60]	; 0x3c
 800293a:	6b0b      	ldr	r3, [r1, #48]	; 0x30
 800293c:	ba1b      	rev	r3, r3
 800293e:	9310      	str	r3, [sp, #64]	; 0x40
 8002940:	6b4b      	ldr	r3, [r1, #52]	; 0x34
 8002942:	ba1b      	rev	r3, r3
 8002944:	9311      	str	r3, [sp, #68]	; 0x44
 8002946:	6b8b      	ldr	r3, [r1, #56]	; 0x38
 8002948:	ba1b      	rev	r3, r3
 800294a:	9312      	str	r3, [sp, #72]	; 0x48
 800294c:	6bcb      	ldr	r3, [r1, #60]	; 0x3c
 800294e:	ba1b      	rev	r3, r3
 8002950:	9313      	str	r3, [sp, #76]	; 0x4c
 8002952:	ae42      	add	r6, sp, #264	; 0x108
 8002954:	ab12      	add	r3, sp, #72	; 0x48
 8002956:	6819      	ldr	r1, [r3, #0]
 8002958:	f853 5c38 	ldr.w	r5, [r3, #-56]
 800295c:	f853 4c14 	ldr.w	r4, [r3, #-20]
 8002960:	f853 2c34 	ldr.w	r2, [r3, #-52]
 8002964:	442c      	add	r4, r5
 8002966:	0a8d      	lsrs	r5, r1, #10
 8002968:	ea85 4571 	eor.w	r5, r5, r1, ror #17
 800296c:	ea85 41f1 	eor.w	r1, r5, r1, ror #19
 8002970:	08d7      	lsrs	r7, r2, #3
 8002972:	f853 5c10 	ldr.w	r5, [r3, #-16]
 8002976:	4421      	add	r1, r4
 8002978:	ea87 17f2 	eor.w	r7, r7, r2, ror #7
 800297c:	685c      	ldr	r4, [r3, #4]
 800297e:	ea87 47b2 	eor.w	r7, r7, r2, ror #18
 8002982:	4439      	add	r1, r7
 8002984:	442a      	add	r2, r5
 8002986:	0aa5      	lsrs	r5, r4, #10
 8002988:	6099      	str	r1, [r3, #8]
 800298a:	ea85 4574 	eor.w	r5, r5, r4, ror #17
 800298e:	f853 1c30 	ldr.w	r1, [r3, #-48]
 8002992:	ea85 44f4 	eor.w	r4, r5, r4, ror #19
 8002996:	4422      	add	r2, r4
 8002998:	08cc      	lsrs	r4, r1, #3
 800299a:	ea84 14f1 	eor.w	r4, r4, r1, ror #7
 800299e:	ea84 41b1 	eor.w	r1, r4, r1, ror #18
 80029a2:	4411      	add	r1, r2
 80029a4:	60d9      	str	r1, [r3, #12]
 80029a6:	3308      	adds	r3, #8
 80029a8:	42b3      	cmp	r3, r6
 80029aa:	d1d4      	bne.n	8002956 <SHA256Transform+0x6e>
 80029ac:	4e66      	ldr	r6, [pc, #408]	; (8002b48 <SHA256Transform+0x260>)
 80029ae:	6803      	ldr	r3, [r0, #0]
 80029b0:	6902      	ldr	r2, [r0, #16]
 80029b2:	6844      	ldr	r4, [r0, #4]
 80029b4:	6941      	ldr	r1, [r0, #20]
 80029b6:	f8d0 a008 	ldr.w	sl, [r0, #8]
 80029ba:	6985      	ldr	r5, [r0, #24]
 80029bc:	f8d0 800c 	ldr.w	r8, [r0, #12]
 80029c0:	f8d0 901c 	ldr.w	r9, [r0, #28]
 80029c4:	2701      	movs	r7, #1
 80029c6:	6037      	str	r7, [r6, #0]
 80029c8:	6836      	ldr	r6, [r6, #0]
 80029ca:	9603      	str	r6, [sp, #12]
 80029cc:	4e5f      	ldr	r6, [pc, #380]	; (8002b4c <SHA256Transform+0x264>)
 80029ce:	6837      	ldr	r7, [r6, #0]
 80029d0:	9703      	str	r7, [sp, #12]
 80029d2:	9f03      	ldr	r7, [sp, #12]
 80029d4:	3701      	adds	r7, #1
 80029d6:	d127      	bne.n	8002a28 <SHA256Transform+0x140>
 80029d8:	9f03      	ldr	r7, [sp, #12]
 80029da:	6037      	str	r7, [r6, #0]
 80029dc:	6836      	ldr	r6, [r6, #0]
 80029de:	9603      	str	r6, [sp, #12]
 80029e0:	9e03      	ldr	r6, [sp, #12]
 80029e2:	2e00      	cmp	r6, #0
 80029e4:	d038      	beq.n	8002a58 <SHA256Transform+0x170>
 80029e6:	6803      	ldr	r3, [r0, #0]
 80029e8:	4e59      	ldr	r6, [pc, #356]	; (8002b50 <SHA256Transform+0x268>)
 80029ea:	4f59      	ldr	r7, [pc, #356]	; (8002b50 <SHA256Transform+0x268>)
 80029ec:	69c1      	ldr	r1, [r0, #28]
 80029ee:	6985      	ldr	r5, [r0, #24]
 80029f0:	68c2      	ldr	r2, [r0, #12]
 80029f2:	f8d0 9014 	ldr.w	r9, [r0, #20]
 80029f6:	f8d0 b008 	ldr.w	fp, [r0, #8]
 80029fa:	f8d0 c004 	ldr.w	ip, [r0, #4]
 80029fe:	405e      	eors	r6, r3
 8002a00:	6903      	ldr	r3, [r0, #16]
 8002a02:	6006      	str	r6, [r0, #0]
 8002a04:	405f      	eors	r7, r3
 8002a06:	ea82 0405 	eor.w	r4, r2, r5
 8002a0a:	ea87 0301 	eor.w	r3, r7, r1
 8002a0e:	ea8b 0a09 	eor.w	sl, fp, r9
 8002a12:	6107      	str	r7, [r0, #16]
 8002a14:	ea87 080c 	eor.w	r8, r7, ip
 8002a18:	4072      	eors	r2, r6
 8002a1a:	ea8b 0101 	eor.w	r1, fp, r1
 8002a1e:	ea8c 0505 	eor.w	r5, ip, r5
 8002a22:	ea86 0909 	eor.w	r9, r6, r9
 8002a26:	e017      	b.n	8002a58 <SHA256Transform+0x170>
 8002a28:	4f49      	ldr	r7, [pc, #292]	; (8002b50 <SHA256Transform+0x268>)
 8002a2a:	4e49      	ldr	r6, [pc, #292]	; (8002b50 <SHA256Transform+0x268>)
 8002a2c:	405f      	eors	r7, r3
 8002a2e:	4056      	eors	r6, r2
 8002a30:	ea88 0c05 	eor.w	ip, r8, r5
 8002a34:	ea8a 0b01 	eor.w	fp, sl, r1
 8002a38:	ea89 0a0a 	eor.w	sl, r9, sl
 8002a3c:	ea86 0309 	eor.w	r3, r6, r9
 8002a40:	ea87 0208 	eor.w	r2, r7, r8
 8002a44:	4065      	eors	r5, r4
 8002a46:	ea87 0901 	eor.w	r9, r7, r1
 8002a4a:	ea86 0804 	eor.w	r8, r6, r4
 8002a4e:	4651      	mov	r1, sl
 8002a50:	6007      	str	r7, [r0, #0]
 8002a52:	6106      	str	r6, [r0, #16]
 8002a54:	46da      	mov	sl, fp
 8002a56:	4664      	mov	r4, ip
 8002a58:	f04f 0c00 	mov.w	ip, #0
 8002a5c:	f10c 0710 	add.w	r7, ip, #16
 8002a60:	f8df b0f0 	ldr.w	fp, [pc, #240]	; 8002b54 <SHA256Transform+0x26c>
 8002a64:	466e      	mov	r6, sp
 8002a66:	59be      	ldr	r6, [r7, r6]
 8002a68:	f85c 700b 	ldr.w	r7, [ip, fp]
 8002a6c:	4437      	add	r7, r6
 8002a6e:	ea4f 16b2 	mov.w	r6, r2, ror #6
 8002a72:	ea86 26f2 	eor.w	r6, r6, r2, ror #11
 8002a76:	ea86 6672 	eor.w	r6, r6, r2, ror #25
 8002a7a:	4437      	add	r7, r6
 8002a7c:	ea85 0601 	eor.w	r6, r5, r1
 8002a80:	4016      	ands	r6, r2
 8002a82:	406e      	eors	r6, r5
 8002a84:	443e      	add	r6, r7
 8002a86:	44b1      	add	r9, r6
 8002a88:	ea44 0603 	orr.w	r6, r4, r3
 8002a8c:	ea06 060a 	and.w	r6, r6, sl
 8002a90:	ea04 0703 	and.w	r7, r4, r3
 8002a94:	433e      	orrs	r6, r7
 8002a96:	ea4f 07b3 	mov.w	r7, r3, ror #2
 8002a9a:	ea87 3773 	eor.w	r7, r7, r3, ror #13
 8002a9e:	ea87 57b3 	eor.w	r7, r7, r3, ror #22
 8002aa2:	443e      	add	r6, r7
 8002aa4:	af04      	add	r7, sp, #16
 8002aa6:	44e3      	add	fp, ip
 8002aa8:	4467      	add	r7, ip
 8002aaa:	f8db b004 	ldr.w	fp, [fp, #4]
 8002aae:	687f      	ldr	r7, [r7, #4]
 8002ab0:	44c8      	add	r8, r9
 8002ab2:	44bb      	add	fp, r7
 8002ab4:	ea81 0702 	eor.w	r7, r1, r2
 8002ab8:	ea08 0707 	and.w	r7, r8, r7
 8002abc:	445d      	add	r5, fp
 8002abe:	404f      	eors	r7, r1
 8002ac0:	443d      	add	r5, r7
 8002ac2:	ea4f 17b8 	mov.w	r7, r8, ror #6
 8002ac6:	444e      	add	r6, r9
 8002ac8:	ea87 27f8 	eor.w	r7, r7, r8, ror #11
 8002acc:	ea87 6778 	eor.w	r7, r7, r8, ror #25
 8002ad0:	ea46 0b03 	orr.w	fp, r6, r3
 8002ad4:	443d      	add	r5, r7
 8002ad6:	ea0b 0b04 	and.w	fp, fp, r4
 8002ada:	ea06 0703 	and.w	r7, r6, r3
 8002ade:	ea4b 0b07 	orr.w	fp, fp, r7
 8002ae2:	ea4f 07b6 	mov.w	r7, r6, ror #2
 8002ae6:	ea87 3776 	eor.w	r7, r7, r6, ror #13
 8002aea:	ea87 57b6 	eor.w	r7, r7, r6, ror #22
 8002aee:	f10c 0c08 	add.w	ip, ip, #8
 8002af2:	44bb      	add	fp, r7
 8002af4:	f5bc 7f80 	cmp.w	ip, #256	; 0x100
 8002af8:	44aa      	add	sl, r5
 8002afa:	44ab      	add	fp, r5
 8002afc:	d008      	beq.n	8002b10 <SHA256Transform+0x228>
 8002afe:	4689      	mov	r9, r1
 8002b00:	4615      	mov	r5, r2
 8002b02:	4641      	mov	r1, r8
 8002b04:	4652      	mov	r2, sl
 8002b06:	46a0      	mov	r8, r4
 8002b08:	469a      	mov	sl, r3
 8002b0a:	4634      	mov	r4, r6
 8002b0c:	465b      	mov	r3, fp
 8002b0e:	e7a5      	b.n	8002a5c <SHA256Transform+0x174>
 8002b10:	6845      	ldr	r5, [r0, #4]
 8002b12:	6807      	ldr	r7, [r0, #0]
 8002b14:	442e      	add	r6, r5
 8002b16:	6885      	ldr	r5, [r0, #8]
 8002b18:	6046      	str	r6, [r0, #4]
 8002b1a:	442b      	add	r3, r5
 8002b1c:	6083      	str	r3, [r0, #8]
 8002b1e:	68c3      	ldr	r3, [r0, #12]
 8002b20:	441c      	add	r4, r3
 8002b22:	6903      	ldr	r3, [r0, #16]
 8002b24:	60c4      	str	r4, [r0, #12]
 8002b26:	4453      	add	r3, sl
 8002b28:	6103      	str	r3, [r0, #16]
 8002b2a:	6943      	ldr	r3, [r0, #20]
 8002b2c:	4443      	add	r3, r8
 8002b2e:	6143      	str	r3, [r0, #20]
 8002b30:	6983      	ldr	r3, [r0, #24]
 8002b32:	441a      	add	r2, r3
 8002b34:	69c3      	ldr	r3, [r0, #28]
 8002b36:	6182      	str	r2, [r0, #24]
 8002b38:	445f      	add	r7, fp
 8002b3a:	4419      	add	r1, r3
 8002b3c:	6007      	str	r7, [r0, #0]
 8002b3e:	61c1      	str	r1, [r0, #28]
 8002b40:	b045      	add	sp, #276	; 0x114
 8002b42:	e8bd 8ff0 	ldmia.w	sp!, {r4, r5, r6, r7, r8, r9, sl, fp, pc}
 8002b46:	bf00      	nop
 8002b48:	40023008 	.word	0x40023008
 8002b4c:	40023000 	.word	0x40023000
 8002b50:	a5a5f0f0 	.word	0xa5a5f0f0
 8002b54:	0800f418 	.word	0x0800f418

08002b58 <SHA512Transform>:
 8002b58:	e92d 4ff0 	stmdb	sp!, {r4, r5, r6, r7, r8, r9, sl, fp, lr}
 8002b5c:	f5ad 7d49 	sub.w	sp, sp, #804	; 0x324
 8002b60:	2600      	movs	r6, #0
 8002b62:	9627      	str	r6, [sp, #156]	; 0x9c
 8002b64:	198d      	adds	r5, r1, r6
 8002b66:	598c      	ldr	r4, [r1, r6]
 8002b68:	686d      	ldr	r5, [r5, #4]
 8002b6a:	af28      	add	r7, sp, #160	; 0xa0
 8002b6c:	fa95 fc85 	rev.w	ip, r5
 8002b70:	4437      	add	r7, r6
 8002b72:	ba23      	rev	r3, r4
 8002b74:	2200      	movs	r2, #0
 8002b76:	3608      	adds	r6, #8
 8002b78:	ea42 040c 	orr.w	r4, r2, ip
 8002b7c:	461d      	mov	r5, r3
 8002b7e:	2e80      	cmp	r6, #128	; 0x80
 8002b80:	e9c7 4500 	strd	r4, r5, [r7]
 8002b84:	d1ee      	bne.n	8002b64 <SHA512Transform+0xc>
 8002b86:	a928      	add	r1, sp, #160	; 0xa0
 8002b88:	f04f 0c10 	mov.w	ip, #16
 8002b8c:	e9d1 2312 	ldrd	r2, r3, [r1, #72]	; 0x48
 8002b90:	e9d1 4500 	ldrd	r4, r5, [r1]
 8002b94:	e9d1 891c 	ldrd	r8, r9, [r1, #112]	; 0x70
 8002b98:	18a4      	adds	r4, r4, r2
 8002b9a:	eb45 0503 	adc.w	r5, r5, r3
 8002b9e:	ea4f 03c8 	mov.w	r3, r8, lsl #3
 8002ba2:	ea43 7359 	orr.w	r3, r3, r9, lsr #29
 8002ba6:	9304      	str	r3, [sp, #16]
 8002ba8:	ea4f 03c9 	mov.w	r3, r9, lsl #3
 8002bac:	ea43 7358 	orr.w	r3, r3, r8, lsr #29
 8002bb0:	9305      	str	r3, [sp, #20]
 8002bb2:	ea4f 43d8 	mov.w	r3, r8, lsr #19
 8002bb6:	ea43 3349 	orr.w	r3, r3, r9, lsl #13
 8002bba:	9306      	str	r3, [sp, #24]
 8002bbc:	ea4f 43d9 	mov.w	r3, r9, lsr #19
 8002bc0:	ea43 3348 	orr.w	r3, r3, r8, lsl #13
 8002bc4:	9307      	str	r3, [sp, #28]
 8002bc6:	e9dd ab06 	ldrd	sl, fp, [sp, #24]
 8002bca:	e9dd 2304 	ldrd	r2, r3, [sp, #16]
 8002bce:	ea83 030b 	eor.w	r3, r3, fp
 8002bd2:	ea4f 1b98 	mov.w	fp, r8, lsr #6
 8002bd6:	ea82 020a 	eor.w	r2, r2, sl
 8002bda:	ea4b 6a89 	orr.w	sl, fp, r9, lsl #26
 8002bde:	ea4f 1b99 	mov.w	fp, r9, lsr #6
 8002be2:	f8cd a008 	str.w	sl, [sp, #8]
 8002be6:	f8cd b00c 	str.w	fp, [sp, #12]
 8002bea:	e9dd 8902 	ldrd	r8, r9, [sp, #8]
 8002bee:	e9d1 6702 	ldrd	r6, r7, [r1, #8]
 8002bf2:	ea82 0208 	eor.w	r2, r2, r8
 8002bf6:	18a4      	adds	r4, r4, r2
 8002bf8:	ea83 0309 	eor.w	r3, r3, r9
 8002bfc:	eb45 0503 	adc.w	r5, r5, r3
 8002c00:	0a33      	lsrs	r3, r6, #8
 8002c02:	ea43 6307 	orr.w	r3, r3, r7, lsl #24
 8002c06:	9308      	str	r3, [sp, #32]
 8002c08:	0a3b      	lsrs	r3, r7, #8
 8002c0a:	ea43 6306 	orr.w	r3, r3, r6, lsl #24
 8002c0e:	9309      	str	r3, [sp, #36]	; 0x24
 8002c10:	0873      	lsrs	r3, r6, #1
 8002c12:	ea43 73c7 	orr.w	r3, r3, r7, lsl #31
 8002c16:	930a      	str	r3, [sp, #40]	; 0x28
 8002c18:	087b      	lsrs	r3, r7, #1
 8002c1a:	ea43 73c6 	orr.w	r3, r3, r6, lsl #31
 8002c1e:	930b      	str	r3, [sp, #44]	; 0x2c
 8002c20:	e9dd ab0a 	ldrd	sl, fp, [sp, #40]	; 0x28
 8002c24:	e9dd 2308 	ldrd	r2, r3, [sp, #32]
 8002c28:	ea82 020a 	eor.w	r2, r2, sl
 8002c2c:	ea4f 1ad6 	mov.w	sl, r6, lsr #7
 8002c30:	ea4a 6a47 	orr.w	sl, sl, r7, lsl #25
 8002c34:	ea83 030b 	eor.w	r3, r3, fp
 8002c38:	ea82 020a 	eor.w	r2, r2, sl
 8002c3c:	ea4f 1bd7 	mov.w	fp, r7, lsr #7
 8002c40:	1912      	adds	r2, r2, r4
 8002c42:	ea83 030b 	eor.w	r3, r3, fp
 8002c46:	f10c 0c01 	add.w	ip, ip, #1
 8002c4a:	eb43 0305 	adc.w	r3, r3, r5
 8002c4e:	f1bc 0f50 	cmp.w	ip, #80	; 0x50
 8002c52:	e9c1 2320 	strd	r2, r3, [r1, #128]	; 0x80
 8002c56:	f101 0108 	add.w	r1, r1, #8
 8002c5a:	d197      	bne.n	8002b8c <SHA512Transform+0x34>
 8002c5c:	e9d0 4502 	ldrd	r4, r5, [r0, #8]
 8002c60:	e9d0 6704 	ldrd	r6, r7, [r0, #16]
 8002c64:	e9cd 4508 	strd	r4, r5, [sp, #32]
 8002c68:	e9d0 450c 	ldrd	r4, r5, [r0, #48]	; 0x30
 8002c6c:	e9d0 8906 	ldrd	r8, r9, [r0, #24]
 8002c70:	e9cd 670a 	strd	r6, r7, [sp, #40]	; 0x28
 8002c74:	e9d0 ab0a 	ldrd	sl, fp, [r0, #40]	; 0x28
 8002c78:	e9d0 670e 	ldrd	r6, r7, [r0, #56]	; 0x38
 8002c7c:	4944      	ldr	r1, [pc, #272]	; (8002d90 <SHA512Transform+0x238>)
 8002c7e:	e9cd 4510 	strd	r4, r5, [sp, #64]	; 0x40
 8002c82:	2401      	movs	r4, #1
 8002c84:	e9cd 890c 	strd	r8, r9, [sp, #48]	; 0x30
 8002c88:	e9d0 2300 	ldrd	r2, r3, [r0]
 8002c8c:	e9d0 8908 	ldrd	r8, r9, [r0, #32]
 8002c90:	e9cd ab0e 	strd	sl, fp, [sp, #56]	; 0x38
 8002c94:	e9cd 6712 	strd	r6, r7, [sp, #72]	; 0x48
 8002c98:	600c      	str	r4, [r1, #0]
 8002c9a:	6809      	ldr	r1, [r1, #0]
 8002c9c:	9127      	str	r1, [sp, #156]	; 0x9c
 8002c9e:	493d      	ldr	r1, [pc, #244]	; (8002d94 <SHA512Transform+0x23c>)
 8002ca0:	680c      	ldr	r4, [r1, #0]
 8002ca2:	9427      	str	r4, [sp, #156]	; 0x9c
 8002ca4:	9c27      	ldr	r4, [sp, #156]	; 0x9c
 8002ca6:	3401      	adds	r4, #1
 8002ca8:	d11c      	bne.n	8002ce4 <SHA512Transform+0x18c>
 8002caa:	9c27      	ldr	r4, [sp, #156]	; 0x9c
 8002cac:	600c      	str	r4, [r1, #0]
 8002cae:	6809      	ldr	r1, [r1, #0]
 8002cb0:	9127      	str	r1, [sp, #156]	; 0x9c
 8002cb2:	9927      	ldr	r1, [sp, #156]	; 0x9c
 8002cb4:	2900      	cmp	r1, #0
 8002cb6:	d06f      	beq.n	8002d98 <SHA512Transform+0x240>
 8002cb8:	f20f 0bc4 	addw	fp, pc, #196	; 0xc4
 8002cbc:	e9db ab00 	ldrd	sl, fp, [fp]
 8002cc0:	ea8a 0a02 	eor.w	sl, sl, r2
 8002cc4:	ea8b 0b03 	eor.w	fp, fp, r3
 8002cc8:	a32f      	add	r3, pc, #188	; (adr r3, 8002d88 <SHA512Transform+0x230>)
 8002cca:	e9d3 2300 	ldrd	r2, r3, [r3]
 8002cce:	ea88 0802 	eor.w	r8, r8, r2
 8002cd2:	ea89 0903 	eor.w	r9, r9, r3
 8002cd6:	e9c0 ab00 	strd	sl, fp, [r0]
 8002cda:	e9c0 8908 	strd	r8, r9, [r0, #32]
 8002cde:	4632      	mov	r2, r6
 8002ce0:	463b      	mov	r3, r7
 8002ce2:	e014      	b.n	8002d0e <SHA512Transform+0x1b6>
 8002ce4:	f20f 0b98 	addw	fp, pc, #152	; 0x98
 8002ce8:	e9db ab00 	ldrd	sl, fp, [fp]
 8002cec:	ea8a 0a02 	eor.w	sl, sl, r2
 8002cf0:	ea8b 0b03 	eor.w	fp, fp, r3
 8002cf4:	a324      	add	r3, pc, #144	; (adr r3, 8002d88 <SHA512Transform+0x230>)
 8002cf6:	e9d3 2300 	ldrd	r2, r3, [r3]
 8002cfa:	ea88 0802 	eor.w	r8, r8, r2
 8002cfe:	ea89 0903 	eor.w	r9, r9, r3
 8002d02:	e9c0 ab00 	strd	sl, fp, [r0]
 8002d06:	e9c0 8908 	strd	r8, r9, [r0, #32]
 8002d0a:	e9dd 2312 	ldrd	r2, r3, [sp, #72]	; 0x48
 8002d0e:	e9dd 670c 	ldrd	r6, r7, [sp, #48]	; 0x30
 8002d12:	e9dd 4510 	ldrd	r4, r5, [sp, #64]	; 0x40
 8002d16:	4074      	eors	r4, r6
 8002d18:	407d      	eors	r5, r7
 8002d1a:	e9cd 4502 	strd	r4, r5, [sp, #8]
 8002d1e:	e9dd 670a 	ldrd	r6, r7, [sp, #40]	; 0x28
 8002d22:	e9dd 450e 	ldrd	r4, r5, [sp, #56]	; 0x38
 8002d26:	4074      	eors	r4, r6
 8002d28:	407d      	eors	r5, r7
 8002d2a:	e9cd 4504 	strd	r4, r5, [sp, #16]
 8002d2e:	e9dd 4508 	ldrd	r4, r5, [sp, #32]
 8002d32:	ea84 0408 	eor.w	r4, r4, r8
 8002d36:	ea85 0509 	eor.w	r5, r5, r9
 8002d3a:	e9cd 4516 	strd	r4, r5, [sp, #88]	; 0x58
 8002d3e:	e9dd 4512 	ldrd	r4, r5, [sp, #72]	; 0x48
 8002d42:	4074      	eors	r4, r6
 8002d44:	407d      	eors	r5, r7
 8002d46:	e9cd 4514 	strd	r4, r5, [sp, #80]	; 0x50
 8002d4a:	e9dd 6710 	ldrd	r6, r7, [sp, #64]	; 0x40
 8002d4e:	e9dd 4508 	ldrd	r4, r5, [sp, #32]
 8002d52:	4066      	eors	r6, r4
 8002d54:	406f      	eors	r7, r5
 8002d56:	ea82 0208 	eor.w	r2, r2, r8
 8002d5a:	ea83 0309 	eor.w	r3, r3, r9
 8002d5e:	e9cd 6706 	strd	r6, r7, [sp, #24]
 8002d62:	e9dd 890c 	ldrd	r8, r9, [sp, #48]	; 0x30
 8002d66:	e9dd 670e 	ldrd	r6, r7, [sp, #56]	; 0x38
 8002d6a:	ea88 080a 	eor.w	r8, r8, sl
 8002d6e:	ea89 090b 	eor.w	r9, r9, fp
 8002d72:	ea8a 0a06 	eor.w	sl, sl, r6
 8002d76:	ea8b 0b07 	eor.w	fp, fp, r7
 8002d7a:	e023      	b.n	8002dc4 <SHA512Transform+0x26c>
 8002d7c:	f3af 8000 	nop.w
 8002d80:	34705604 	.word	0x34705604
 8002d84:	00000000 	.word	0x00000000
 8002d88:	89563478 	.word	0x89563478
 8002d8c:	00000000 	.word	0x00000000
 8002d90:	40023008 	.word	0x40023008
 8002d94:	40023000 	.word	0x40023000
 8002d98:	e9dd 4510 	ldrd	r4, r5, [sp, #64]	; 0x40
 8002d9c:	e9dd 670e 	ldrd	r6, r7, [sp, #56]	; 0x38
 8002da0:	e9cd 4506 	strd	r4, r5, [sp, #24]
 8002da4:	e9dd 450c 	ldrd	r4, r5, [sp, #48]	; 0x30
 8002da8:	e9cd 6714 	strd	r6, r7, [sp, #80]	; 0x50
 8002dac:	e9cd 4516 	strd	r4, r5, [sp, #88]	; 0x58
 8002db0:	e9dd 670a 	ldrd	r6, r7, [sp, #40]	; 0x28
 8002db4:	e9dd 4508 	ldrd	r4, r5, [sp, #32]
 8002db8:	e9dd ab12 	ldrd	sl, fp, [sp, #72]	; 0x48
 8002dbc:	e9cd 6704 	strd	r6, r7, [sp, #16]
 8002dc0:	e9cd 4502 	strd	r4, r5, [sp, #8]
 8002dc4:	2100      	movs	r1, #0
 8002dc6:	4c84      	ldr	r4, [pc, #528]	; (8002fd8 <SHA512Transform+0x480>)
 8002dc8:	ad28      	add	r5, sp, #160	; 0xa0
 8002dca:	440d      	add	r5, r1
 8002dcc:	440c      	add	r4, r1
 8002dce:	e9d5 6700 	ldrd	r6, r7, [r5]
 8002dd2:	e9d4 4500 	ldrd	r4, r5, [r4]
 8002dd6:	1936      	adds	r6, r6, r4
 8002dd8:	eb47 0705 	adc.w	r7, r7, r5
 8002ddc:	e9cd 6718 	strd	r6, r7, [sp, #96]	; 0x60
 8002de0:	ea4f 4698 	mov.w	r6, r8, lsr #18
 8002de4:	ea46 3689 	orr.w	r6, r6, r9, lsl #14
 8002de8:	961a      	str	r6, [sp, #104]	; 0x68
 8002dea:	ea4f 4699 	mov.w	r6, r9, lsr #18
 8002dee:	ea46 3688 	orr.w	r6, r6, r8, lsl #14
 8002df2:	961b      	str	r6, [sp, #108]	; 0x6c
 8002df4:	ea4f 3698 	mov.w	r6, r8, lsr #14
 8002df8:	ea46 4689 	orr.w	r6, r6, r9, lsl #18
 8002dfc:	961c      	str	r6, [sp, #112]	; 0x70
 8002dfe:	ea4f 3699 	mov.w	r6, r9, lsr #14
 8002e02:	ea46 4688 	orr.w	r6, r6, r8, lsl #18
 8002e06:	ea4f 5cc8 	mov.w	ip, r8, lsl #23
 8002e0a:	961d      	str	r6, [sp, #116]	; 0x74
 8002e0c:	ea4c 2c59 	orr.w	ip, ip, r9, lsr #9
 8002e10:	e9dd 451c 	ldrd	r4, r5, [sp, #112]	; 0x70
 8002e14:	e9dd 671a 	ldrd	r6, r7, [sp, #104]	; 0x68
 8002e18:	f8cd c078 	str.w	ip, [sp, #120]	; 0x78
 8002e1c:	ea4f 5cc9 	mov.w	ip, r9, lsl #23
 8002e20:	ea4c 2c58 	orr.w	ip, ip, r8, lsr #9
 8002e24:	f8cd c07c 	str.w	ip, [sp, #124]	; 0x7c
 8002e28:	4066      	eors	r6, r4
 8002e2a:	406f      	eors	r7, r5
 8002e2c:	e9dd 451e 	ldrd	r4, r5, [sp, #120]	; 0x78
 8002e30:	4066      	eors	r6, r4
 8002e32:	406f      	eors	r7, r5
 8002e34:	e9dd 4518 	ldrd	r4, r5, [sp, #96]	; 0x60
 8002e38:	19a4      	adds	r4, r4, r6
 8002e3a:	eb45 0507 	adc.w	r5, r5, r7
 8002e3e:	e9cd 4500 	strd	r4, r5, [sp]
 8002e42:	e9dd 6714 	ldrd	r6, r7, [sp, #80]	; 0x50
 8002e46:	e9dd 4506 	ldrd	r4, r5, [sp, #24]
 8002e4a:	ea06 0608 	and.w	r6, r6, r8
 8002e4e:	ea24 0408 	bic.w	r4, r4, r8
 8002e52:	ea25 0509 	bic.w	r5, r5, r9
 8002e56:	ea07 0709 	and.w	r7, r7, r9
 8002e5a:	4066      	eors	r6, r4
 8002e5c:	406f      	eors	r7, r5
 8002e5e:	e9dd 4500 	ldrd	r4, r5, [sp]
 8002e62:	1936      	adds	r6, r6, r4
 8002e64:	eb47 0705 	adc.w	r7, r7, r5
 8002e68:	eb1a 0a06 	adds.w	sl, sl, r6
 8002e6c:	e9dd 4502 	ldrd	r4, r5, [sp, #8]
 8002e70:	eb4b 0b07 	adc.w	fp, fp, r7
 8002e74:	e9dd 6704 	ldrd	r6, r7, [sp, #16]
 8002e78:	4066      	eors	r6, r4
 8002e7a:	406f      	eors	r7, r5
 8002e7c:	ea06 0402 	and.w	r4, r6, r2
 8002e80:	ea07 0503 	and.w	r5, r7, r3
 8002e84:	e9cd 4518 	strd	r4, r5, [sp, #96]	; 0x60
 8002e88:	e9dd 6702 	ldrd	r6, r7, [sp, #8]
 8002e8c:	e9dd 4504 	ldrd	r4, r5, [sp, #16]
 8002e90:	4034      	ands	r4, r6
 8002e92:	403d      	ands	r5, r7
 8002e94:	e9dd 6718 	ldrd	r6, r7, [sp, #96]	; 0x60
 8002e98:	4066      	eors	r6, r4
 8002e9a:	0794      	lsls	r4, r2, #30
 8002e9c:	ea44 0493 	orr.w	r4, r4, r3, lsr #2
 8002ea0:	9420      	str	r4, [sp, #128]	; 0x80
 8002ea2:	079c      	lsls	r4, r3, #30
 8002ea4:	ea44 0492 	orr.w	r4, r4, r2, lsr #2
 8002ea8:	9421      	str	r4, [sp, #132]	; 0x84
 8002eaa:	0f14      	lsrs	r4, r2, #28
 8002eac:	ea44 1403 	orr.w	r4, r4, r3, lsl #4
 8002eb0:	9422      	str	r4, [sp, #136]	; 0x88
 8002eb2:	0f1c      	lsrs	r4, r3, #28
 8002eb4:	ea44 1402 	orr.w	r4, r4, r2, lsl #4
 8002eb8:	ea4f 6c42 	mov.w	ip, r2, lsl #25
 8002ebc:	406f      	eors	r7, r5
 8002ebe:	9423      	str	r4, [sp, #140]	; 0x8c
 8002ec0:	ea4c 1cd3 	orr.w	ip, ip, r3, lsr #7
 8002ec4:	e9cd 6718 	strd	r6, r7, [sp, #96]	; 0x60
 8002ec8:	e9dd 4520 	ldrd	r4, r5, [sp, #128]	; 0x80
 8002ecc:	e9dd 6722 	ldrd	r6, r7, [sp, #136]	; 0x88
 8002ed0:	f8cd c090 	str.w	ip, [sp, #144]	; 0x90
 8002ed4:	ea4f 6c43 	mov.w	ip, r3, lsl #25
 8002ed8:	ea4c 1cd2 	orr.w	ip, ip, r2, lsr #7
 8002edc:	f8cd c094 	str.w	ip, [sp, #148]	; 0x94
 8002ee0:	4074      	eors	r4, r6
 8002ee2:	407d      	eors	r5, r7
 8002ee4:	e9dd 6724 	ldrd	r6, r7, [sp, #144]	; 0x90
 8002ee8:	4074      	eors	r4, r6
 8002eea:	407d      	eors	r5, r7
 8002eec:	e9dd 6718 	ldrd	r6, r7, [sp, #96]	; 0x60
 8002ef0:	1936      	adds	r6, r6, r4
 8002ef2:	eb47 0705 	adc.w	r7, r7, r5
 8002ef6:	e9dd 4516 	ldrd	r4, r5, [sp, #88]	; 0x58
 8002efa:	eb14 040a 	adds.w	r4, r4, sl
 8002efe:	eb45 050b 	adc.w	r5, r5, fp
 8002f02:	3108      	adds	r1, #8
 8002f04:	eb16 060a 	adds.w	r6, r6, sl
 8002f08:	eb47 070b 	adc.w	r7, r7, fp
 8002f0c:	f5b1 7f20 	cmp.w	r1, #640	; 0x280
 8002f10:	e9cd 4516 	strd	r4, r5, [sp, #88]	; 0x58
 8002f14:	d016      	beq.n	8002f44 <SHA512Transform+0x3ec>
 8002f16:	e9dd 4514 	ldrd	r4, r5, [sp, #80]	; 0x50
 8002f1a:	e9dd ab06 	ldrd	sl, fp, [sp, #24]
 8002f1e:	e9cd 4506 	strd	r4, r5, [sp, #24]
 8002f22:	e9dd 4504 	ldrd	r4, r5, [sp, #16]
 8002f26:	e9cd 8914 	strd	r8, r9, [sp, #80]	; 0x50
 8002f2a:	e9dd 8916 	ldrd	r8, r9, [sp, #88]	; 0x58
 8002f2e:	e9cd 4516 	strd	r4, r5, [sp, #88]	; 0x58
 8002f32:	e9dd 4502 	ldrd	r4, r5, [sp, #8]
 8002f36:	e9cd 2302 	strd	r2, r3, [sp, #8]
 8002f3a:	e9cd 4504 	strd	r4, r5, [sp, #16]
 8002f3e:	4632      	mov	r2, r6
 8002f40:	463b      	mov	r3, r7
 8002f42:	e740      	b.n	8002dc6 <SHA512Transform+0x26e>
 8002f44:	e9d0 ab00 	ldrd	sl, fp, [r0]
 8002f48:	eb16 060a 	adds.w	r6, r6, sl
 8002f4c:	eb47 070b 	adc.w	r7, r7, fp
 8002f50:	e9c0 6700 	strd	r6, r7, [r0]
 8002f54:	e9dd 6708 	ldrd	r6, r7, [sp, #32]
 8002f58:	1992      	adds	r2, r2, r6
 8002f5a:	eb43 0307 	adc.w	r3, r3, r7
 8002f5e:	e9dd ab0a 	ldrd	sl, fp, [sp, #40]	; 0x28
 8002f62:	e9c0 2302 	strd	r2, r3, [r0, #8]
 8002f66:	e9dd 2302 	ldrd	r2, r3, [sp, #8]
 8002f6a:	eb12 020a 	adds.w	r2, r2, sl
 8002f6e:	eb43 030b 	adc.w	r3, r3, fp
 8002f72:	e9dd 450c 	ldrd	r4, r5, [sp, #48]	; 0x30
 8002f76:	e9c0 2304 	strd	r2, r3, [r0, #16]
 8002f7a:	e9dd 2304 	ldrd	r2, r3, [sp, #16]
 8002f7e:	1912      	adds	r2, r2, r4
 8002f80:	eb43 0305 	adc.w	r3, r3, r5
 8002f84:	e9dd 6716 	ldrd	r6, r7, [sp, #88]	; 0x58
 8002f88:	e9c0 2306 	strd	r2, r3, [r0, #24]
 8002f8c:	e9d0 2308 	ldrd	r2, r3, [r0, #32]
 8002f90:	1992      	adds	r2, r2, r6
 8002f92:	eb43 0307 	adc.w	r3, r3, r7
 8002f96:	e9dd ab0e 	ldrd	sl, fp, [sp, #56]	; 0x38
 8002f9a:	e9dd 4510 	ldrd	r4, r5, [sp, #64]	; 0x40
 8002f9e:	e9c0 2308 	strd	r2, r3, [r0, #32]
 8002fa2:	e9dd 2314 	ldrd	r2, r3, [sp, #80]	; 0x50
 8002fa6:	eb18 080a 	adds.w	r8, r8, sl
 8002faa:	eb49 090b 	adc.w	r9, r9, fp
 8002fae:	1912      	adds	r2, r2, r4
 8002fb0:	eb43 0305 	adc.w	r3, r3, r5
 8002fb4:	e9dd 6712 	ldrd	r6, r7, [sp, #72]	; 0x48
 8002fb8:	e9c0 230c 	strd	r2, r3, [r0, #48]	; 0x30
 8002fbc:	e9dd 2306 	ldrd	r2, r3, [sp, #24]
 8002fc0:	1992      	adds	r2, r2, r6
 8002fc2:	eb43 0307 	adc.w	r3, r3, r7
 8002fc6:	e9c0 890a 	strd	r8, r9, [r0, #40]	; 0x28
 8002fca:	e9c0 230e 	strd	r2, r3, [r0, #56]	; 0x38
 8002fce:	f50d 7d49 	add.w	sp, sp, #804	; 0x324
 8002fd2:	e8bd 8ff0 	ldmia.w	sp!, {r4, r5, r6, r7, r8, r9, sl, fp, pc}
 8002fd6:	bf00      	nop
 8002fd8:	0800ed80 	.word	0x0800ed80
 8002fdc:	f3af 8000 	nop.w

08002fe0 <md5_process>:
 8002fe0:	e92d 4ff0 	stmdb	sp!, {r4, r5, r6, r7, r8, r9, sl, fp, lr}
 8002fe4:	b0a1      	sub	sp, #132	; 0x84
 8002fe6:	2200      	movs	r2, #0
 8002fe8:	920f      	str	r2, [sp, #60]	; 0x3c
 8002fea:	078a      	lsls	r2, r1, #30
 8002fec:	4603      	mov	r3, r0
 8002fee:	f8d0 8054 	ldr.w	r8, [r0, #84]	; 0x54
 8002ff2:	6d87      	ldr	r7, [r0, #88]	; 0x58
 8002ff4:	6dc6      	ldr	r6, [r0, #92]	; 0x5c
 8002ff6:	f8d0 c060 	ldr.w	ip, [r0, #96]	; 0x60
 8002ffa:	d00c      	beq.n	8003016 <md5_process+0x36>
 8002ffc:	460a      	mov	r2, r1
 8002ffe:	ad10      	add	r5, sp, #64	; 0x40
 8003000:	f101 0940 	add.w	r9, r1, #64	; 0x40
 8003004:	6810      	ldr	r0, [r2, #0]
 8003006:	6851      	ldr	r1, [r2, #4]
 8003008:	462c      	mov	r4, r5
 800300a:	c403      	stmia	r4!, {r0, r1}
 800300c:	3208      	adds	r2, #8
 800300e:	454a      	cmp	r2, r9
 8003010:	4625      	mov	r5, r4
 8003012:	d1f7      	bne.n	8003004 <md5_process+0x24>
 8003014:	a910      	add	r1, sp, #64	; 0x40
 8003016:	6808      	ldr	r0, [r1, #0]
 8003018:	9002      	str	r0, [sp, #8]
 800301a:	48da      	ldr	r0, [pc, #872]	; (8003384 <md5_process+0x3a4>)
 800301c:	684d      	ldr	r5, [r1, #4]
 800301e:	9503      	str	r5, [sp, #12]
 8003020:	ea2c 0407 	bic.w	r4, ip, r7
 8003024:	ea06 0207 	and.w	r2, r6, r7
 8003028:	4440      	add	r0, r8
 800302a:	4322      	orrs	r2, r4
 800302c:	9c02      	ldr	r4, [sp, #8]
 800302e:	4dd6      	ldr	r5, [pc, #856]	; (8003388 <md5_process+0x3a8>)
 8003030:	4402      	add	r2, r0
 8003032:	4422      	add	r2, r4
 8003034:	9803      	ldr	r0, [sp, #12]
 8003036:	eb07 6272 	add.w	r2, r7, r2, ror #25
 800303a:	4465      	add	r5, ip
 800303c:	ea26 0402 	bic.w	r4, r6, r2
 8003040:	4405      	add	r5, r0
 8003042:	ea02 0007 	and.w	r0, r2, r7
 8003046:	4320      	orrs	r0, r4
 8003048:	688c      	ldr	r4, [r1, #8]
 800304a:	9404      	str	r4, [sp, #16]
 800304c:	4ccf      	ldr	r4, [pc, #828]	; (800338c <md5_process+0x3ac>)
 800304e:	4405      	add	r5, r0
 8003050:	4434      	add	r4, r6
 8003052:	9e04      	ldr	r6, [sp, #16]
 8003054:	eb02 5535 	add.w	r5, r2, r5, ror #20
 8003058:	ea05 0002 	and.w	r0, r5, r2
 800305c:	4434      	add	r4, r6
 800305e:	ea27 0605 	bic.w	r6, r7, r5
 8003062:	4330      	orrs	r0, r6
 8003064:	4404      	add	r4, r0
 8003066:	68c8      	ldr	r0, [r1, #12]
 8003068:	9005      	str	r0, [sp, #20]
 800306a:	48c9      	ldr	r0, [pc, #804]	; (8003390 <md5_process+0x3b0>)
 800306c:	9e05      	ldr	r6, [sp, #20]
 800306e:	eb05 34f4 	add.w	r4, r5, r4, ror #15
 8003072:	4438      	add	r0, r7
 8003074:	4430      	add	r0, r6
 8003076:	ea22 0704 	bic.w	r7, r2, r4
 800307a:	ea04 0605 	and.w	r6, r4, r5
 800307e:	433e      	orrs	r6, r7
 8003080:	4430      	add	r0, r6
 8003082:	690f      	ldr	r7, [r1, #16]
 8003084:	4ec3      	ldr	r6, [pc, #780]	; (8003394 <md5_process+0x3b4>)
 8003086:	9706      	str	r7, [sp, #24]
 8003088:	eb04 20b0 	add.w	r0, r4, r0, ror #10
 800308c:	443e      	add	r6, r7
 800308e:	4432      	add	r2, r6
 8003090:	ea25 0700 	bic.w	r7, r5, r0
 8003094:	ea00 0604 	and.w	r6, r0, r4
 8003098:	4337      	orrs	r7, r6
 800309a:	694e      	ldr	r6, [r1, #20]
 800309c:	9607      	str	r6, [sp, #28]
 800309e:	443a      	add	r2, r7
 80030a0:	4ebd      	ldr	r6, [pc, #756]	; (8003398 <md5_process+0x3b8>)
 80030a2:	9f07      	ldr	r7, [sp, #28]
 80030a4:	eb00 6272 	add.w	r2, r0, r2, ror #25
 80030a8:	443e      	add	r6, r7
 80030aa:	4435      	add	r5, r6
 80030ac:	ea24 0702 	bic.w	r7, r4, r2
 80030b0:	ea02 0600 	and.w	r6, r2, r0
 80030b4:	433e      	orrs	r6, r7
 80030b6:	442e      	add	r6, r5
 80030b8:	698d      	ldr	r5, [r1, #24]
 80030ba:	9508      	str	r5, [sp, #32]
 80030bc:	9f08      	ldr	r7, [sp, #32]
 80030be:	4db7      	ldr	r5, [pc, #732]	; (800339c <md5_process+0x3bc>)
 80030c0:	eb02 5636 	add.w	r6, r2, r6, ror #20
 80030c4:	443d      	add	r5, r7
 80030c6:	442c      	add	r4, r5
 80030c8:	ea20 0706 	bic.w	r7, r0, r6
 80030cc:	ea06 0502 	and.w	r5, r6, r2
 80030d0:	433d      	orrs	r5, r7
 80030d2:	4425      	add	r5, r4
 80030d4:	69cc      	ldr	r4, [r1, #28]
 80030d6:	9409      	str	r4, [sp, #36]	; 0x24
 80030d8:	9f09      	ldr	r7, [sp, #36]	; 0x24
 80030da:	4cb1      	ldr	r4, [pc, #708]	; (80033a0 <md5_process+0x3c0>)
 80030dc:	eb06 35f5 	add.w	r5, r6, r5, ror #15
 80030e0:	443c      	add	r4, r7
 80030e2:	4420      	add	r0, r4
 80030e4:	ea22 0705 	bic.w	r7, r2, r5
 80030e8:	ea05 0406 	and.w	r4, r5, r6
 80030ec:	433c      	orrs	r4, r7
 80030ee:	4404      	add	r4, r0
 80030f0:	6a08      	ldr	r0, [r1, #32]
 80030f2:	900a      	str	r0, [sp, #40]	; 0x28
 80030f4:	9f0a      	ldr	r7, [sp, #40]	; 0x28
 80030f6:	48ab      	ldr	r0, [pc, #684]	; (80033a4 <md5_process+0x3c4>)
 80030f8:	eb05 24b4 	add.w	r4, r5, r4, ror #10
 80030fc:	4438      	add	r0, r7
 80030fe:	4402      	add	r2, r0
 8003100:	ea26 0704 	bic.w	r7, r6, r4
 8003104:	ea04 0005 	and.w	r0, r4, r5
 8003108:	4338      	orrs	r0, r7
 800310a:	4410      	add	r0, r2
 800310c:	6a4a      	ldr	r2, [r1, #36]	; 0x24
 800310e:	920b      	str	r2, [sp, #44]	; 0x2c
 8003110:	9f0b      	ldr	r7, [sp, #44]	; 0x2c
 8003112:	4aa5      	ldr	r2, [pc, #660]	; (80033a8 <md5_process+0x3c8>)
 8003114:	eb04 6070 	add.w	r0, r4, r0, ror #25
 8003118:	443a      	add	r2, r7
 800311a:	4416      	add	r6, r2
 800311c:	ea25 0700 	bic.w	r7, r5, r0
 8003120:	ea00 0204 	and.w	r2, r0, r4
 8003124:	433a      	orrs	r2, r7
 8003126:	4432      	add	r2, r6
 8003128:	6a8e      	ldr	r6, [r1, #40]	; 0x28
 800312a:	960c      	str	r6, [sp, #48]	; 0x30
 800312c:	f5a6 4c24 	sub.w	ip, r6, #41984	; 0xa400
 8003130:	eb00 5232 	add.w	r2, r0, r2, ror #20
 8003134:	f1ac 0c4f 	sub.w	ip, ip, #79	; 0x4f
 8003138:	ea02 0600 	and.w	r6, r2, r0
 800313c:	4465      	add	r5, ip
 800313e:	ea24 0c02 	bic.w	ip, r4, r2
 8003142:	ea4c 0c06 	orr.w	ip, ip, r6
 8003146:	6acf      	ldr	r7, [r1, #44]	; 0x2c
 8003148:	6b0e      	ldr	r6, [r1, #48]	; 0x30
 800314a:	970d      	str	r7, [sp, #52]	; 0x34
 800314c:	44ac      	add	ip, r5
 800314e:	4d97      	ldr	r5, [pc, #604]	; (80033ac <md5_process+0x3cc>)
 8003150:	eb02 3cfc 	add.w	ip, r2, ip, ror #15
 8003154:	443d      	add	r5, r7
 8003156:	442c      	add	r4, r5
 8003158:	ea20 090c 	bic.w	r9, r0, ip
 800315c:	ea0c 0502 	and.w	r5, ip, r2
 8003160:	ea49 0905 	orr.w	r9, r9, r5
 8003164:	44a1      	add	r9, r4
 8003166:	4c92      	ldr	r4, [pc, #584]	; (80033b0 <md5_process+0x3d0>)
 8003168:	eb0c 29b9 	add.w	r9, ip, r9, ror #10
 800316c:	4434      	add	r4, r6
 800316e:	ea22 0509 	bic.w	r5, r2, r9
 8003172:	4420      	add	r0, r4
 8003174:	ea09 040c 	and.w	r4, r9, ip
 8003178:	432c      	orrs	r4, r5
 800317a:	4404      	add	r4, r0
 800317c:	6b48      	ldr	r0, [r1, #52]	; 0x34
 800317e:	9001      	str	r0, [sp, #4]
 8003180:	9d01      	ldr	r5, [sp, #4]
 8003182:	488c      	ldr	r0, [pc, #560]	; (80033b4 <md5_process+0x3d4>)
 8003184:	eb09 6474 	add.w	r4, r9, r4, ror #25
 8003188:	4428      	add	r0, r5
 800318a:	ea2c 0704 	bic.w	r7, ip, r4
 800318e:	4402      	add	r2, r0
 8003190:	ea04 0009 	and.w	r0, r4, r9
 8003194:	4338      	orrs	r0, r7
 8003196:	4410      	add	r0, r2
 8003198:	6b8f      	ldr	r7, [r1, #56]	; 0x38
 800319a:	4a87      	ldr	r2, [pc, #540]	; (80033b8 <md5_process+0x3d8>)
 800319c:	6bc9      	ldr	r1, [r1, #60]	; 0x3c
 800319e:	9d03      	ldr	r5, [sp, #12]
 80031a0:	eb04 5030 	add.w	r0, r4, r0, ror #20
 80031a4:	ea6f 0800 	mvn.w	r8, r0
 80031a8:	443a      	add	r2, r7
 80031aa:	ea08 0a09 	and.w	sl, r8, r9
 80031ae:	4494      	add	ip, r2
 80031b0:	ea00 0204 	and.w	r2, r0, r4
 80031b4:	ea4a 0202 	orr.w	r2, sl, r2
 80031b8:	4462      	add	r2, ip
 80031ba:	f8df a21c 	ldr.w	sl, [pc, #540]	; 80033d8 <md5_process+0x3f8>
 80031be:	eb00 32f2 	add.w	r2, r0, r2, ror #15
 80031c2:	ea6f 0c02 	mvn.w	ip, r2
 80031c6:	448a      	add	sl, r1
 80031c8:	ea0c 0b04 	and.w	fp, ip, r4
 80031cc:	44d1      	add	r9, sl
 80031ce:	ea02 0a00 	and.w	sl, r2, r0
 80031d2:	ea4b 0a0a 	orr.w	sl, fp, sl
 80031d6:	44d1      	add	r9, sl
 80031d8:	f8df a200 	ldr.w	sl, [pc, #512]	; 80033dc <md5_process+0x3fc>
 80031dc:	eb02 29b9 	add.w	r9, r2, r9, ror #10
 80031e0:	44aa      	add	sl, r5
 80031e2:	4454      	add	r4, sl
 80031e4:	ea02 0808 	and.w	r8, r2, r8
 80031e8:	ea09 0a00 	and.w	sl, r9, r0
 80031ec:	ea4a 0808 	orr.w	r8, sl, r8
 80031f0:	9d08      	ldr	r5, [sp, #32]
 80031f2:	4444      	add	r4, r8
 80031f4:	f8df 81e8 	ldr.w	r8, [pc, #488]	; 80033e0 <md5_process+0x400>
 80031f8:	eb09 64f4 	add.w	r4, r9, r4, ror #27
 80031fc:	44a8      	add	r8, r5
 80031fe:	4480      	add	r8, r0
 8003200:	ea09 0c0c 	and.w	ip, r9, ip
 8003204:	ea04 0002 	and.w	r0, r4, r2
 8003208:	9d0d      	ldr	r5, [sp, #52]	; 0x34
 800320a:	ea40 000c 	orr.w	r0, r0, ip
 800320e:	f8df c1d4 	ldr.w	ip, [pc, #468]	; 80033e4 <md5_process+0x404>
 8003212:	4440      	add	r0, r8
 8003214:	eb04 50f0 	add.w	r0, r4, r0, ror #23
 8003218:	44ac      	add	ip, r5
 800321a:	ea00 0809 	and.w	r8, r0, r9
 800321e:	4462      	add	r2, ip
 8003220:	ea24 0c09 	bic.w	ip, r4, r9
 8003224:	ea48 0c0c 	orr.w	ip, r8, ip
 8003228:	9d02      	ldr	r5, [sp, #8]
 800322a:	4462      	add	r2, ip
 800322c:	f8df c1b8 	ldr.w	ip, [pc, #440]	; 80033e8 <md5_process+0x408>
 8003230:	eb00 42b2 	add.w	r2, r0, r2, ror #18
 8003234:	44ac      	add	ip, r5
 8003236:	ea02 0804 	and.w	r8, r2, r4
 800323a:	44e1      	add	r9, ip
 800323c:	ea20 0c04 	bic.w	ip, r0, r4
 8003240:	ea48 0c0c 	orr.w	ip, r8, ip
 8003244:	9d07      	ldr	r5, [sp, #28]
 8003246:	f8df 81a4 	ldr.w	r8, [pc, #420]	; 80033ec <md5_process+0x40c>
 800324a:	44e1      	add	r9, ip
 800324c:	eb02 3939 	add.w	r9, r2, r9, ror #12
 8003250:	44a8      	add	r8, r5
 8003252:	ea22 0c00 	bic.w	ip, r2, r0
 8003256:	4444      	add	r4, r8
 8003258:	ea09 0800 	and.w	r8, r9, r0
 800325c:	ea48 080c 	orr.w	r8, r8, ip
 8003260:	9d0c      	ldr	r5, [sp, #48]	; 0x30
 8003262:	44a0      	add	r8, r4
 8003264:	4c55      	ldr	r4, [pc, #340]	; (80033bc <md5_process+0x3dc>)
 8003266:	eb09 68f8 	add.w	r8, r9, r8, ror #27
 800326a:	442c      	add	r4, r5
 800326c:	ea08 0c02 	and.w	ip, r8, r2
 8003270:	4420      	add	r0, r4
 8003272:	ea29 0402 	bic.w	r4, r9, r2
 8003276:	ea4c 0404 	orr.w	r4, ip, r4
 800327a:	4404      	add	r4, r0
 800327c:	4850      	ldr	r0, [pc, #320]	; (80033c0 <md5_process+0x3e0>)
 800327e:	9d0b      	ldr	r5, [sp, #44]	; 0x2c
 8003280:	eb08 54f4 	add.w	r4, r8, r4, ror #23
 8003284:	4408      	add	r0, r1
 8003286:	4402      	add	r2, r0
 8003288:	ea04 0c09 	and.w	ip, r4, r9
 800328c:	ea28 0009 	bic.w	r0, r8, r9
 8003290:	ea4c 0c00 	orr.w	ip, ip, r0
 8003294:	4494      	add	ip, r2
 8003296:	9806      	ldr	r0, [sp, #24]
 8003298:	4a4a      	ldr	r2, [pc, #296]	; (80033c4 <md5_process+0x3e4>)
 800329a:	eb04 4cbc 	add.w	ip, r4, ip, ror #18
 800329e:	4402      	add	r2, r0
 80032a0:	4491      	add	r9, r2
 80032a2:	ea0c 0008 	and.w	r0, ip, r8
 80032a6:	ea24 0208 	bic.w	r2, r4, r8
 80032aa:	4302      	orrs	r2, r0
 80032ac:	4491      	add	r9, r2
 80032ae:	4a46      	ldr	r2, [pc, #280]	; (80033c8 <md5_process+0x3e8>)
 80032b0:	eb0c 3939 	add.w	r9, ip, r9, ror #12
 80032b4:	442a      	add	r2, r5
 80032b6:	ea09 0004 	and.w	r0, r9, r4
 80032ba:	4490      	add	r8, r2
 80032bc:	ea2c 0204 	bic.w	r2, ip, r4
 80032c0:	4302      	orrs	r2, r0
 80032c2:	4842      	ldr	r0, [pc, #264]	; (80033cc <md5_process+0x3ec>)
 80032c4:	9d05      	ldr	r5, [sp, #20]
 80032c6:	4442      	add	r2, r8
 80032c8:	eb09 62f2 	add.w	r2, r9, r2, ror #27
 80032cc:	4438      	add	r0, r7
 80032ce:	ea02 080c 	and.w	r8, r2, ip
 80032d2:	4404      	add	r4, r0
 80032d4:	ea29 000c 	bic.w	r0, r9, ip
 80032d8:	ea48 0000 	orr.w	r0, r8, r0
 80032dc:	4404      	add	r4, r0
 80032de:	483c      	ldr	r0, [pc, #240]	; (80033d0 <md5_process+0x3f0>)
 80032e0:	eb02 54f4 	add.w	r4, r2, r4, ror #23
 80032e4:	4428      	add	r0, r5
 80032e6:	ea04 0809 	and.w	r8, r4, r9
 80032ea:	4484      	add	ip, r0
 80032ec:	ea22 0009 	bic.w	r0, r2, r9
 80032f0:	ea48 0000 	orr.w	r0, r8, r0
 80032f4:	9d0a      	ldr	r5, [sp, #40]	; 0x28
 80032f6:	4484      	add	ip, r0
 80032f8:	4836      	ldr	r0, [pc, #216]	; (80033d4 <md5_process+0x3f4>)
 80032fa:	eb04 4cbc 	add.w	ip, r4, ip, ror #18
 80032fe:	4428      	add	r0, r5
 8003300:	ea0c 0802 	and.w	r8, ip, r2
 8003304:	4481      	add	r9, r0
 8003306:	ea24 0002 	bic.w	r0, r4, r2
 800330a:	9d01      	ldr	r5, [sp, #4]
 800330c:	ea48 0000 	orr.w	r0, r8, r0
 8003310:	f8df 80dc 	ldr.w	r8, [pc, #220]	; 80033f0 <md5_process+0x410>
 8003314:	4448      	add	r0, r9
 8003316:	eb0c 3030 	add.w	r0, ip, r0, ror #12
 800331a:	44a8      	add	r8, r5
 800331c:	ea00 0904 	and.w	r9, r0, r4
 8003320:	4442      	add	r2, r8
 8003322:	ea2c 0804 	bic.w	r8, ip, r4
 8003326:	ea49 0808 	orr.w	r8, r9, r8
 800332a:	9d04      	ldr	r5, [sp, #16]
 800332c:	4442      	add	r2, r8
 800332e:	f8df 80c4 	ldr.w	r8, [pc, #196]	; 80033f4 <md5_process+0x414>
 8003332:	eb00 62f2 	add.w	r2, r0, r2, ror #27
 8003336:	44a8      	add	r8, r5
 8003338:	ea02 090c 	and.w	r9, r2, ip
 800333c:	4444      	add	r4, r8
 800333e:	ea20 080c 	bic.w	r8, r0, ip
 8003342:	ea49 0808 	orr.w	r8, r9, r8
 8003346:	9d09      	ldr	r5, [sp, #36]	; 0x24
 8003348:	4444      	add	r4, r8
 800334a:	f8df 80ac 	ldr.w	r8, [pc, #172]	; 80033f8 <md5_process+0x418>
 800334e:	eb02 54f4 	add.w	r4, r2, r4, ror #23
 8003352:	44a8      	add	r8, r5
 8003354:	ea04 0900 	and.w	r9, r4, r0
 8003358:	44c4      	add	ip, r8
 800335a:	ea22 0800 	bic.w	r8, r2, r0
 800335e:	ea49 0808 	orr.w	r8, r9, r8
 8003362:	44c4      	add	ip, r8
 8003364:	f8df 8094 	ldr.w	r8, [pc, #148]	; 80033fc <md5_process+0x41c>
 8003368:	9d07      	ldr	r5, [sp, #28]
 800336a:	eb04 4cbc 	add.w	ip, r4, ip, ror #18
 800336e:	44b0      	add	r8, r6
 8003370:	ea0c 0902 	and.w	r9, ip, r2
 8003374:	4440      	add	r0, r8
 8003376:	ea24 0802 	bic.w	r8, r4, r2
 800337a:	ea49 0808 	orr.w	r8, r9, r8
 800337e:	4440      	add	r0, r8
 8003380:	e03e      	b.n	8003400 <md5_process+0x420>
 8003382:	bf00      	nop
 8003384:	d76aa478 	.word	0xd76aa478
 8003388:	e8c7b756 	.word	0xe8c7b756
 800338c:	242070db 	.word	0x242070db
 8003390:	c1bdceee 	.word	0xc1bdceee
 8003394:	f57c0faf 	.word	0xf57c0faf
 8003398:	4787c62a 	.word	0x4787c62a
 800339c:	a8304613 	.word	0xa8304613
 80033a0:	fd469501 	.word	0xfd469501
 80033a4:	698098d8 	.word	0x698098d8
 80033a8:	8b44f7af 	.word	0x8b44f7af
 80033ac:	895cd7be 	.word	0x895cd7be
 80033b0:	6b901122 	.word	0x6b901122
 80033b4:	fd987193 	.word	0xfd987193
 80033b8:	a679438e 	.word	0xa679438e
 80033bc:	02441453 	.word	0x02441453
 80033c0:	d8a1e681 	.word	0xd8a1e681
 80033c4:	e7d3fbc8 	.word	0xe7d3fbc8
 80033c8:	21e1cde6 	.word	0x21e1cde6
 80033cc:	c33707d6 	.word	0xc33707d6
 80033d0:	f4d50d87 	.word	0xf4d50d87
 80033d4:	455a14ed 	.word	0x455a14ed
 80033d8:	49b40821 	.word	0x49b40821
 80033dc:	f61e2562 	.word	0xf61e2562
 80033e0:	c040b340 	.word	0xc040b340
 80033e4:	265e5a51 	.word	0x265e5a51
 80033e8:	e9b6c7aa 	.word	0xe9b6c7aa
 80033ec:	d62f105d 	.word	0xd62f105d
 80033f0:	a9e3e905 	.word	0xa9e3e905
 80033f4:	fcefa3f8 	.word	0xfcefa3f8
 80033f8:	676f02d9 	.word	0x676f02d9
 80033fc:	8d2a4c8a 	.word	0x8d2a4c8a
 8003400:	f5a5 2ab8 	sub.w	sl, r5, #376832	; 0x5c000
 8003404:	eb0c 3030 	add.w	r0, ip, r0, ror #12
 8003408:	ea8c 0804 	eor.w	r8, ip, r4
 800340c:	f2aa 6abe 	subw	sl, sl, #1726	; 0x6be
 8003410:	ea88 0800 	eor.w	r8, r8, r0
 8003414:	9d0a      	ldr	r5, [sp, #40]	; 0x28
 8003416:	4492      	add	sl, r2
 8003418:	4aba      	ldr	r2, [pc, #744]	; (8003704 <md5_process+0x724>)
 800341a:	44c2      	add	sl, r8
 800341c:	eb00 7a3a 	add.w	sl, r0, sl, ror #28
 8003420:	442a      	add	r2, r5
 8003422:	ea80 080c 	eor.w	r8, r0, ip
 8003426:	ea88 080a 	eor.w	r8, r8, sl
 800342a:	9d0d      	ldr	r5, [sp, #52]	; 0x34
 800342c:	4414      	add	r4, r2
 800342e:	4ab6      	ldr	r2, [pc, #728]	; (8003708 <md5_process+0x728>)
 8003430:	4444      	add	r4, r8
 8003432:	eb0a 5474 	add.w	r4, sl, r4, ror #21
 8003436:	442a      	add	r2, r5
 8003438:	ea8a 0800 	eor.w	r8, sl, r0
 800343c:	ea88 0804 	eor.w	r8, r8, r4
 8003440:	4494      	add	ip, r2
 8003442:	4ab2      	ldr	r2, [pc, #712]	; (800370c <md5_process+0x72c>)
 8003444:	9d03      	ldr	r5, [sp, #12]
 8003446:	44c4      	add	ip, r8
 8003448:	eb04 4c3c 	add.w	ip, r4, ip, ror #16
 800344c:	443a      	add	r2, r7
 800344e:	ea84 0b0a 	eor.w	fp, r4, sl
 8003452:	4410      	add	r0, r2
 8003454:	ea8b 0b0c 	eor.w	fp, fp, ip
 8003458:	4aad      	ldr	r2, [pc, #692]	; (8003710 <md5_process+0x730>)
 800345a:	4458      	add	r0, fp
 800345c:	eb0c 2070 	add.w	r0, ip, r0, ror #9
 8003460:	442a      	add	r2, r5
 8003462:	ea8c 0804 	eor.w	r8, ip, r4
 8003466:	ea88 0800 	eor.w	r8, r8, r0
 800346a:	9d06      	ldr	r5, [sp, #24]
 800346c:	4492      	add	sl, r2
 800346e:	4aa9      	ldr	r2, [pc, #676]	; (8003714 <md5_process+0x734>)
 8003470:	44c2      	add	sl, r8
 8003472:	eb00 7a3a 	add.w	sl, r0, sl, ror #28
 8003476:	442a      	add	r2, r5
 8003478:	ea80 080c 	eor.w	r8, r0, ip
 800347c:	ea88 080a 	eor.w	r8, r8, sl
 8003480:	9d09      	ldr	r5, [sp, #36]	; 0x24
 8003482:	4414      	add	r4, r2
 8003484:	4aa4      	ldr	r2, [pc, #656]	; (8003718 <md5_process+0x738>)
 8003486:	4444      	add	r4, r8
 8003488:	eb0a 5474 	add.w	r4, sl, r4, ror #21
 800348c:	ea8a 0800 	eor.w	r8, sl, r0
 8003490:	442a      	add	r2, r5
 8003492:	ea88 0804 	eor.w	r8, r8, r4
 8003496:	9d0c      	ldr	r5, [sp, #48]	; 0x30
 8003498:	4462      	add	r2, ip
 800349a:	f8df c2d8 	ldr.w	ip, [pc, #728]	; 8003774 <md5_process+0x794>
 800349e:	4442      	add	r2, r8
 80034a0:	eb04 4232 	add.w	r2, r4, r2, ror #16
 80034a4:	ea84 080a 	eor.w	r8, r4, sl
 80034a8:	44ac      	add	ip, r5
 80034aa:	ea88 0802 	eor.w	r8, r8, r2
 80034ae:	9d01      	ldr	r5, [sp, #4]
 80034b0:	4484      	add	ip, r0
 80034b2:	489a      	ldr	r0, [pc, #616]	; (800371c <md5_process+0x73c>)
 80034b4:	44c4      	add	ip, r8
 80034b6:	eb02 2c7c 	add.w	ip, r2, ip, ror #9
 80034ba:	4428      	add	r0, r5
 80034bc:	ea82 0804 	eor.w	r8, r2, r4
 80034c0:	ea88 080c 	eor.w	r8, r8, ip
 80034c4:	9d02      	ldr	r5, [sp, #8]
 80034c6:	4482      	add	sl, r0
 80034c8:	4895      	ldr	r0, [pc, #596]	; (8003720 <md5_process+0x740>)
 80034ca:	44c2      	add	sl, r8
 80034cc:	eb0c 7a3a 	add.w	sl, ip, sl, ror #28
 80034d0:	4428      	add	r0, r5
 80034d2:	ea8c 0802 	eor.w	r8, ip, r2
 80034d6:	9d05      	ldr	r5, [sp, #20]
 80034d8:	4404      	add	r4, r0
 80034da:	ea88 080a 	eor.w	r8, r8, sl
 80034de:	4891      	ldr	r0, [pc, #580]	; (8003724 <md5_process+0x744>)
 80034e0:	4444      	add	r4, r8
 80034e2:	eb0a 5474 	add.w	r4, sl, r4, ror #21
 80034e6:	4428      	add	r0, r5
 80034e8:	ea8a 080c 	eor.w	r8, sl, ip
 80034ec:	4402      	add	r2, r0
 80034ee:	ea88 0804 	eor.w	r8, r8, r4
 80034f2:	9808      	ldr	r0, [sp, #32]
 80034f4:	9d04      	ldr	r5, [sp, #16]
 80034f6:	4490      	add	r8, r2
 80034f8:	4a8b      	ldr	r2, [pc, #556]	; (8003728 <md5_process+0x748>)
 80034fa:	eb04 4838 	add.w	r8, r4, r8, ror #16
 80034fe:	4402      	add	r2, r0
 8003500:	ea84 090a 	eor.w	r9, r4, sl
 8003504:	ea89 0908 	eor.w	r9, r9, r8
 8003508:	4494      	add	ip, r2
 800350a:	4888      	ldr	r0, [pc, #544]	; (800372c <md5_process+0x74c>)
 800350c:	9a0b      	ldr	r2, [sp, #44]	; 0x2c
 800350e:	44cc      	add	ip, r9
 8003510:	eb08 2c7c 	add.w	ip, r8, ip, ror #9
 8003514:	4410      	add	r0, r2
 8003516:	ea88 0204 	eor.w	r2, r8, r4
 800351a:	ea82 020c 	eor.w	r2, r2, ip
 800351e:	4450      	add	r0, sl
 8003520:	4410      	add	r0, r2
 8003522:	4a83      	ldr	r2, [pc, #524]	; (8003730 <md5_process+0x750>)
 8003524:	eb0c 7030 	add.w	r0, ip, r0, ror #28
 8003528:	4432      	add	r2, r6
 800352a:	ea8c 0908 	eor.w	r9, ip, r8
 800352e:	ea89 0900 	eor.w	r9, r9, r0
 8003532:	4414      	add	r4, r2
 8003534:	4a7f      	ldr	r2, [pc, #508]	; (8003734 <md5_process+0x754>)
 8003536:	444c      	add	r4, r9
 8003538:	eb00 5474 	add.w	r4, r0, r4, ror #21
 800353c:	440a      	add	r2, r1
 800353e:	ea80 090c 	eor.w	r9, r0, ip
 8003542:	ea89 0904 	eor.w	r9, r9, r4
 8003546:	4490      	add	r8, r2
 8003548:	4a7b      	ldr	r2, [pc, #492]	; (8003738 <md5_process+0x758>)
 800354a:	44c8      	add	r8, r9
 800354c:	eb04 4838 	add.w	r8, r4, r8, ror #16
 8003550:	ea84 0900 	eor.w	r9, r4, r0
 8003554:	442a      	add	r2, r5
 8003556:	ea89 0908 	eor.w	r9, r9, r8
 800355a:	4462      	add	r2, ip
 800355c:	9d02      	ldr	r5, [sp, #8]
 800355e:	f8df c218 	ldr.w	ip, [pc, #536]	; 8003778 <md5_process+0x798>
 8003562:	444a      	add	r2, r9
 8003564:	eb08 2272 	add.w	r2, r8, r2, ror #9
 8003568:	44ac      	add	ip, r5
 800356a:	ea62 0904 	orn	r9, r2, r4
 800356e:	ea89 0908 	eor.w	r9, r9, r8
 8003572:	4460      	add	r0, ip
 8003574:	9d09      	ldr	r5, [sp, #36]	; 0x24
 8003576:	f8df c204 	ldr.w	ip, [pc, #516]	; 800377c <md5_process+0x79c>
 800357a:	4448      	add	r0, r9
 800357c:	eb02 60b0 	add.w	r0, r2, r0, ror #26
 8003580:	44ac      	add	ip, r5
 8003582:	ea60 0908 	orn	r9, r0, r8
 8003586:	4464      	add	r4, ip
 8003588:	ea89 0902 	eor.w	r9, r9, r2
 800358c:	444c      	add	r4, r9
 800358e:	f8df c1f0 	ldr.w	ip, [pc, #496]	; 8003780 <md5_process+0x7a0>
 8003592:	9d07      	ldr	r5, [sp, #28]
 8003594:	eb00 54b4 	add.w	r4, r0, r4, ror #22
 8003598:	44bc      	add	ip, r7
 800359a:	ea64 0702 	orn	r7, r4, r2
 800359e:	4047      	eors	r7, r0
 80035a0:	44e0      	add	r8, ip
 80035a2:	44b8      	add	r8, r7
 80035a4:	4f65      	ldr	r7, [pc, #404]	; (800373c <md5_process+0x75c>)
 80035a6:	eb04 4878 	add.w	r8, r4, r8, ror #17
 80035aa:	442f      	add	r7, r5
 80035ac:	ea68 0c00 	orn	ip, r8, r0
 80035b0:	ea8c 0c04 	eor.w	ip, ip, r4
 80035b4:	443a      	add	r2, r7
 80035b6:	4462      	add	r2, ip
 80035b8:	4f61      	ldr	r7, [pc, #388]	; (8003740 <md5_process+0x760>)
 80035ba:	9d0c      	ldr	r5, [sp, #48]	; 0x30
 80035bc:	eb08 22f2 	add.w	r2, r8, r2, ror #11
 80035c0:	4437      	add	r7, r6
 80035c2:	ea62 0604 	orn	r6, r2, r4
 80035c6:	ea86 0608 	eor.w	r6, r6, r8
 80035ca:	4438      	add	r0, r7
 80035cc:	4430      	add	r0, r6
 80035ce:	9f05      	ldr	r7, [sp, #20]
 80035d0:	4e5c      	ldr	r6, [pc, #368]	; (8003744 <md5_process+0x764>)
 80035d2:	eb02 60b0 	add.w	r0, r2, r0, ror #26
 80035d6:	443e      	add	r6, r7
 80035d8:	ea60 0708 	orn	r7, r0, r8
 80035dc:	4057      	eors	r7, r2
 80035de:	4434      	add	r4, r6
 80035e0:	443c      	add	r4, r7
 80035e2:	eb00 54b4 	add.w	r4, r0, r4, ror #22
 80035e6:	f5a5 1680 	sub.w	r6, r5, #1048576	; 0x100000
 80035ea:	ea64 0702 	orn	r7, r4, r2
 80035ee:	f6a6 3683 	subw	r6, r6, #2947	; 0xb83
 80035f2:	4047      	eors	r7, r0
 80035f4:	44b0      	add	r8, r6
 80035f6:	44b8      	add	r8, r7
 80035f8:	4e53      	ldr	r6, [pc, #332]	; (8003748 <md5_process+0x768>)
 80035fa:	9f03      	ldr	r7, [sp, #12]
 80035fc:	9d0a      	ldr	r5, [sp, #40]	; 0x28
 80035fe:	eb04 4878 	add.w	r8, r4, r8, ror #17
 8003602:	443e      	add	r6, r7
 8003604:	ea68 0c00 	orn	ip, r8, r0
 8003608:	ea8c 0c04 	eor.w	ip, ip, r4
 800360c:	4432      	add	r2, r6
 800360e:	4462      	add	r2, ip
 8003610:	4e4e      	ldr	r6, [pc, #312]	; (800374c <md5_process+0x76c>)
 8003612:	4f4f      	ldr	r7, [pc, #316]	; (8003750 <md5_process+0x770>)
 8003614:	eb08 22f2 	add.w	r2, r8, r2, ror #11
 8003618:	442e      	add	r6, r5
 800361a:	ea62 0c04 	orn	ip, r2, r4
 800361e:	4430      	add	r0, r6
 8003620:	ea8c 0c08 	eor.w	ip, ip, r8
 8003624:	4460      	add	r0, ip
 8003626:	eb02 60b0 	add.w	r0, r2, r0, ror #26
 800362a:	440f      	add	r7, r1
 800362c:	ea60 0108 	orn	r1, r0, r8
 8003630:	443c      	add	r4, r7
 8003632:	4051      	eors	r1, r2
 8003634:	9e08      	ldr	r6, [sp, #32]
 8003636:	9f01      	ldr	r7, [sp, #4]
 8003638:	4421      	add	r1, r4
 800363a:	4c46      	ldr	r4, [pc, #280]	; (8003754 <md5_process+0x774>)
 800363c:	eb00 51b1 	add.w	r1, r0, r1, ror #22
 8003640:	4434      	add	r4, r6
 8003642:	ea61 0602 	orn	r6, r1, r2
 8003646:	4046      	eors	r6, r0
 8003648:	44a0      	add	r8, r4
 800364a:	44b0      	add	r8, r6
 800364c:	4c42      	ldr	r4, [pc, #264]	; (8003758 <md5_process+0x778>)
 800364e:	9e0d      	ldr	r6, [sp, #52]	; 0x34
 8003650:	eb01 4878 	add.w	r8, r1, r8, ror #17
 8003654:	443c      	add	r4, r7
 8003656:	ea68 0500 	orn	r5, r8, r0
 800365a:	404d      	eors	r5, r1
 800365c:	4422      	add	r2, r4
 800365e:	442a      	add	r2, r5
 8003660:	4c3e      	ldr	r4, [pc, #248]	; (800375c <md5_process+0x77c>)
 8003662:	9d06      	ldr	r5, [sp, #24]
 8003664:	9f04      	ldr	r7, [sp, #16]
 8003666:	eb08 22f2 	add.w	r2, r8, r2, ror #11
 800366a:	442c      	add	r4, r5
 800366c:	ea62 0501 	orn	r5, r2, r1
 8003670:	4420      	add	r0, r4
 8003672:	ea85 0508 	eor.w	r5, r5, r8
 8003676:	4428      	add	r0, r5
 8003678:	4c39      	ldr	r4, [pc, #228]	; (8003760 <md5_process+0x780>)
 800367a:	eb02 60b0 	add.w	r0, r2, r0, ror #26
 800367e:	4434      	add	r4, r6
 8003680:	ea60 0508 	orn	r5, r0, r8
 8003684:	4055      	eors	r5, r2
 8003686:	4421      	add	r1, r4
 8003688:	4429      	add	r1, r5
 800368a:	4c36      	ldr	r4, [pc, #216]	; (8003764 <md5_process+0x784>)
 800368c:	9e0b      	ldr	r6, [sp, #44]	; 0x2c
 800368e:	eb00 51b1 	add.w	r1, r0, r1, ror #22
 8003692:	ea61 0502 	orn	r5, r1, r2
 8003696:	443c      	add	r4, r7
 8003698:	4045      	eors	r5, r0
 800369a:	4444      	add	r4, r8
 800369c:	442c      	add	r4, r5
 800369e:	4d32      	ldr	r5, [pc, #200]	; (8003768 <md5_process+0x788>)
 80036a0:	eb01 4474 	add.w	r4, r1, r4, ror #17
 80036a4:	4435      	add	r5, r6
 80036a6:	ea64 0600 	orn	r6, r4, r0
 80036aa:	442a      	add	r2, r5
 80036ac:	404e      	eors	r6, r1
 80036ae:	4d2f      	ldr	r5, [pc, #188]	; (800376c <md5_process+0x78c>)
 80036b0:	4432      	add	r2, r6
 80036b2:	2601      	movs	r6, #1
 80036b4:	602e      	str	r6, [r5, #0]
 80036b6:	682d      	ldr	r5, [r5, #0]
 80036b8:	950f      	str	r5, [sp, #60]	; 0x3c
 80036ba:	4d2d      	ldr	r5, [pc, #180]	; (8003770 <md5_process+0x790>)
 80036bc:	682e      	ldr	r6, [r5, #0]
 80036be:	960f      	str	r6, [sp, #60]	; 0x3c
 80036c0:	9e0f      	ldr	r6, [sp, #60]	; 0x3c
 80036c2:	3601      	adds	r6, #1
 80036c4:	eb04 22f2 	add.w	r2, r4, r2, ror #11
 80036c8:	d105      	bne.n	80036d6 <md5_process+0x6f6>
 80036ca:	9e0f      	ldr	r6, [sp, #60]	; 0x3c
 80036cc:	602e      	str	r6, [r5, #0]
 80036ce:	682d      	ldr	r5, [r5, #0]
 80036d0:	950f      	str	r5, [sp, #60]	; 0x3c
 80036d2:	9d0f      	ldr	r5, [sp, #60]	; 0x3c
 80036d4:	b13d      	cbz	r5, 80036e6 <md5_process+0x706>
 80036d6:	fa02 f001 	lsl.w	r0, r2, r1
 80036da:	fa04 f201 	lsl.w	r2, r4, r1
 80036de:	fa01 f400 	lsl.w	r4, r1, r0
 80036e2:	fa00 f102 	lsl.w	r1, r0, r2
 80036e6:	6d5d      	ldr	r5, [r3, #84]	; 0x54
 80036e8:	4428      	add	r0, r5
 80036ea:	6558      	str	r0, [r3, #84]	; 0x54
 80036ec:	6d98      	ldr	r0, [r3, #88]	; 0x58
 80036ee:	4402      	add	r2, r0
 80036f0:	659a      	str	r2, [r3, #88]	; 0x58
 80036f2:	6dda      	ldr	r2, [r3, #92]	; 0x5c
 80036f4:	4414      	add	r4, r2
 80036f6:	6e1a      	ldr	r2, [r3, #96]	; 0x60
 80036f8:	65dc      	str	r4, [r3, #92]	; 0x5c
 80036fa:	4411      	add	r1, r2
 80036fc:	6619      	str	r1, [r3, #96]	; 0x60
 80036fe:	b021      	add	sp, #132	; 0x84
 8003700:	e8bd 8ff0 	ldmia.w	sp!, {r4, r5, r6, r7, r8, r9, sl, fp, pc}
 8003704:	8771f681 	.word	0x8771f681
 8003708:	6d9d6122 	.word	0x6d9d6122
 800370c:	fde5380c 	.word	0xfde5380c
 8003710:	a4beea44 	.word	0xa4beea44
 8003714:	4bdecfa9 	.word	0x4bdecfa9
 8003718:	f6bb4b60 	.word	0xf6bb4b60
 800371c:	289b7ec6 	.word	0x289b7ec6
 8003720:	eaa127fa 	.word	0xeaa127fa
 8003724:	d4ef3085 	.word	0xd4ef3085
 8003728:	04881d05 	.word	0x04881d05
 800372c:	d9d4d039 	.word	0xd9d4d039
 8003730:	e6db99e5 	.word	0xe6db99e5
 8003734:	1fa27cf8 	.word	0x1fa27cf8
 8003738:	c4ac5665 	.word	0xc4ac5665
 800373c:	fc93a039 	.word	0xfc93a039
 8003740:	655b59c3 	.word	0x655b59c3
 8003744:	8f0ccc92 	.word	0x8f0ccc92
 8003748:	85845dd1 	.word	0x85845dd1
 800374c:	6fa87e4f 	.word	0x6fa87e4f
 8003750:	fe2ce6e0 	.word	0xfe2ce6e0
 8003754:	a3014314 	.word	0xa3014314
 8003758:	4e0811a1 	.word	0x4e0811a1
 800375c:	f7537e82 	.word	0xf7537e82
 8003760:	bd3af235 	.word	0xbd3af235
 8003764:	2ad7d2bb 	.word	0x2ad7d2bb
 8003768:	eb86d391 	.word	0xeb86d391
 800376c:	40023008 	.word	0x40023008
 8003770:	40023000 	.word	0x40023000
 8003774:	bebfbc70 	.word	0xbebfbc70
 8003778:	f4292244 	.word	0xf4292244
 800377c:	432aff97 	.word	0x432aff97
 8003780:	ab9423a7 	.word	0xab9423a7

08003784 <DESstdInit>:
 8003784:	e92d 41f0 	stmdb	sp!, {r4, r5, r6, r7, r8, lr}
 8003788:	4604      	mov	r4, r0
 800378a:	2800      	cmp	r0, #0
 800378c:	d03d      	beq.n	800380a <DESstdInit+0x86>
 800378e:	2900      	cmp	r1, #0
 8003790:	d03b      	beq.n	800380a <DESstdInit+0x86>
 8003792:	f003 0506 	and.w	r5, r3, #6
 8003796:	b90a      	cbnz	r2, 800379c <DESstdInit+0x18>
 8003798:	2d02      	cmp	r5, #2
 800379a:	d136      	bne.n	800380a <DESstdInit+0x86>
 800379c:	7920      	ldrb	r0, [r4, #4]
 800379e:	60e2      	str	r2, [r4, #12]
 80037a0:	f020 0606 	bic.w	r6, r0, #6
 80037a4:	2d02      	cmp	r5, #2
 80037a6:	7126      	strb	r6, [r4, #4]
 80037a8:	d105      	bne.n	80037b6 <DESstdInit+0x32>
 80037aa:	f010 0501 	ands.w	r5, r0, #1
 80037ae:	d01f      	beq.n	80037f0 <DESstdInit+0x6c>
 80037b0:	2000      	movs	r0, #0
 80037b2:	e8bd 81f0 	ldmia.w	sp!, {r4, r5, r6, r7, r8, pc}
 80037b6:	6926      	ldr	r6, [r4, #16]
 80037b8:	1e75      	subs	r5, r6, #1
 80037ba:	2d0f      	cmp	r5, #15
 80037bc:	d821      	bhi.n	8003802 <DESstdInit+0x7e>
 80037be:	2500      	movs	r5, #0
 80037c0:	6165      	str	r5, [r4, #20]
 80037c2:	61a5      	str	r5, [r4, #24]
 80037c4:	f025 0c03 	bic.w	ip, r5, #3
 80037c8:	f005 0803 	and.w	r8, r5, #3
 80037cc:	5d57      	ldrb	r7, [r2, r5]
 80037ce:	44a4      	add	ip, r4
 80037d0:	f1c8 0803 	rsb	r8, r8, #3
 80037d4:	ea4f 08c8 	mov.w	r8, r8, lsl #3
 80037d8:	fa07 f808 	lsl.w	r8, r7, r8
 80037dc:	f8dc 7014 	ldr.w	r7, [ip, #20]
 80037e0:	3501      	adds	r5, #1
 80037e2:	ea47 0708 	orr.w	r7, r7, r8
 80037e6:	42b5      	cmp	r5, r6
 80037e8:	f8cc 7014 	str.w	r7, [ip, #20]
 80037ec:	d1ea      	bne.n	80037c4 <DESstdInit+0x40>
 80037ee:	e7dc      	b.n	80037aa <DESstdInit+0x26>
 80037f0:	60a1      	str	r1, [r4, #8]
 80037f2:	4608      	mov	r0, r1
 80037f4:	f104 021c 	add.w	r2, r4, #28
 80037f8:	f003 0101 	and.w	r1, r3, #1
 80037fc:	f7fe fbec 	bl	8001fd8 <deskey>
 8003800:	e7d6      	b.n	80037b0 <DESstdInit+0x2c>
 8003802:	f640 40e7 	movw	r0, #3303	; 0xce7
 8003806:	e8bd 81f0 	ldmia.w	sp!, {r4, r5, r6, r7, r8, pc}
 800380a:	f640 40e8 	movw	r0, #3304	; 0xce8
 800380e:	e8bd 81f0 	ldmia.w	sp!, {r4, r5, r6, r7, r8, pc}

08003812 <TDESstdInit>:
 8003812:	e92d 41f0 	stmdb	sp!, {r4, r5, r6, r7, r8, lr}
 8003816:	460e      	mov	r6, r1
 8003818:	4604      	mov	r4, r0
 800381a:	2800      	cmp	r0, #0
 800381c:	d056      	beq.n	80038cc <TDESstdInit+0xba>
 800381e:	2900      	cmp	r1, #0
 8003820:	d054      	beq.n	80038cc <TDESstdInit+0xba>
 8003822:	f003 0106 	and.w	r1, r3, #6
 8003826:	b90a      	cbnz	r2, 800382c <TDESstdInit+0x1a>
 8003828:	2902      	cmp	r1, #2
 800382a:	d14f      	bne.n	80038cc <TDESstdInit+0xba>
 800382c:	7920      	ldrb	r0, [r4, #4]
 800382e:	60e2      	str	r2, [r4, #12]
 8003830:	f020 0506 	bic.w	r5, r0, #6
 8003834:	2902      	cmp	r1, #2
 8003836:	7125      	strb	r5, [r4, #4]
 8003838:	d105      	bne.n	8003846 <TDESstdInit+0x34>
 800383a:	f010 0801 	ands.w	r8, r0, #1
 800383e:	d01f      	beq.n	8003880 <TDESstdInit+0x6e>
 8003840:	2000      	movs	r0, #0
 8003842:	e8bd 81f0 	ldmia.w	sp!, {r4, r5, r6, r7, r8, pc}
 8003846:	6921      	ldr	r1, [r4, #16]
 8003848:	1e4d      	subs	r5, r1, #1
 800384a:	2d0f      	cmp	r5, #15
 800384c:	d83a      	bhi.n	80038c4 <TDESstdInit+0xb2>
 800384e:	2500      	movs	r5, #0
 8003850:	6165      	str	r5, [r4, #20]
 8003852:	61a5      	str	r5, [r4, #24]
 8003854:	f025 0c03 	bic.w	ip, r5, #3
 8003858:	f005 0803 	and.w	r8, r5, #3
 800385c:	5d57      	ldrb	r7, [r2, r5]
 800385e:	44a4      	add	ip, r4
 8003860:	f1c8 0803 	rsb	r8, r8, #3
 8003864:	ea4f 08c8 	mov.w	r8, r8, lsl #3
 8003868:	fa07 f808 	lsl.w	r8, r7, r8
 800386c:	f8dc 7014 	ldr.w	r7, [ip, #20]
 8003870:	3501      	adds	r5, #1
 8003872:	ea47 0708 	orr.w	r7, r7, r8
 8003876:	428d      	cmp	r5, r1
 8003878:	f8cc 7014 	str.w	r7, [ip, #20]
 800387c:	d1ea      	bne.n	8003854 <TDESstdInit+0x42>
 800387e:	e7dc      	b.n	800383a <TDESstdInit+0x28>
 8003880:	f003 0701 	and.w	r7, r3, #1
 8003884:	01ba      	lsls	r2, r7, #6
 8003886:	3206      	adds	r2, #6
 8003888:	b2bd      	uxth	r5, r7
 800388a:	eb04 0282 	add.w	r2, r4, r2, lsl #2
 800388e:	4630      	mov	r0, r6
 8003890:	4629      	mov	r1, r5
 8003892:	60a6      	str	r6, [r4, #8]
 8003894:	3204      	adds	r2, #4
 8003896:	f7fe fb9f 	bl	8001fd8 <deskey>
 800389a:	f106 0008 	add.w	r0, r6, #8
 800389e:	f085 0101 	eor.w	r1, r5, #1
 80038a2:	f104 029c 	add.w	r2, r4, #156	; 0x9c
 80038a6:	f7fe fb97 	bl	8001fd8 <deskey>
 80038aa:	2f00      	cmp	r7, #0
 80038ac:	bf14      	ite	ne
 80038ae:	2318      	movne	r3, #24
 80038b0:	f44f 738c 	moveq.w	r3, #280	; 0x118
 80038b4:	18e2      	adds	r2, r4, r3
 80038b6:	f106 0010 	add.w	r0, r6, #16
 80038ba:	4629      	mov	r1, r5
 80038bc:	3204      	adds	r2, #4
 80038be:	f7fe fb8b 	bl	8001fd8 <deskey>
 80038c2:	e7bd      	b.n	8003840 <TDESstdInit+0x2e>
 80038c4:	f640 40f1 	movw	r0, #3313	; 0xcf1
 80038c8:	e8bd 81f0 	ldmia.w	sp!, {r4, r5, r6, r7, r8, pc}
 80038cc:	f640 40f2 	movw	r0, #3314	; 0xcf2
 80038d0:	e8bd 81f0 	ldmia.w	sp!, {r4, r5, r6, r7, r8, pc}

080038d4 <DRBG_AES128_Increment_v>:
 80038d4:	68c3      	ldr	r3, [r0, #12]
 80038d6:	3301      	adds	r3, #1
 80038d8:	60c3      	str	r3, [r0, #12]
 80038da:	b953      	cbnz	r3, 80038f2 <DRBG_AES128_Increment_v+0x1e>
 80038dc:	6883      	ldr	r3, [r0, #8]
 80038de:	3301      	adds	r3, #1
 80038e0:	6083      	str	r3, [r0, #8]
 80038e2:	b933      	cbnz	r3, 80038f2 <DRBG_AES128_Increment_v+0x1e>
 80038e4:	6843      	ldr	r3, [r0, #4]
 80038e6:	3301      	adds	r3, #1
 80038e8:	6043      	str	r3, [r0, #4]
 80038ea:	b913      	cbnz	r3, 80038f2 <DRBG_AES128_Increment_v+0x1e>
 80038ec:	6803      	ldr	r3, [r0, #0]
 80038ee:	3301      	adds	r3, #1
 80038f0:	6003      	str	r3, [r0, #0]
 80038f2:	4770      	bx	lr

080038f4 <gfmul>:
 80038f4:	e92d 4ff0 	stmdb	sp!, {r4, r5, r6, r7, r8, r9, sl, fp, lr}
 80038f8:	b093      	sub	sp, #76	; 0x4c
 80038fa:	ab02      	add	r3, sp, #8
 80038fc:	4615      	mov	r5, r2
 80038fe:	4683      	mov	fp, r0
 8003900:	4699      	mov	r9, r3
 8003902:	aa12      	add	r2, sp, #72	; 0x48
 8003904:	2400      	movs	r4, #0
 8003906:	601c      	str	r4, [r3, #0]
 8003908:	605c      	str	r4, [r3, #4]
 800390a:	609c      	str	r4, [r3, #8]
 800390c:	60dc      	str	r4, [r3, #12]
 800390e:	3310      	adds	r3, #16
 8003910:	4293      	cmp	r3, r2
 8003912:	d1f7      	bne.n	8003904 <gfmul+0x10>
 8003914:	f501 6680 	add.w	r6, r1, #1024	; 0x400
 8003918:	4627      	mov	r7, r4
 800391a:	f5a6 6a80 	sub.w	sl, r6, #1024	; 0x400
 800391e:	2418      	movs	r4, #24
 8003920:	f85b 3007 	ldr.w	r3, [fp, r7]
 8003924:	f109 0830 	add.w	r8, r9, #48	; 0x30
 8003928:	40e3      	lsrs	r3, r4
 800392a:	eba8 0844 	sub.w	r8, r8, r4, lsl #1
 800392e:	f003 010f 	and.w	r1, r3, #15
 8003932:	4640      	mov	r0, r8
 8003934:	eb06 1101 	add.w	r1, r6, r1, lsl #4
 8003938:	4642      	mov	r2, r8
 800393a:	9301      	str	r3, [sp, #4]
 800393c:	f7fe f9e6 	bl	8001d0c <poly_xor>
 8003940:	9b01      	ldr	r3, [sp, #4]
 8003942:	f003 01f0 	and.w	r1, r3, #240	; 0xf0
 8003946:	4640      	mov	r0, r8
 8003948:	4451      	add	r1, sl
 800394a:	4642      	mov	r2, r8
 800394c:	3c08      	subs	r4, #8
 800394e:	f7fe f9dd 	bl	8001d0c <poly_xor>
 8003952:	f114 0f08 	cmn.w	r4, #8
 8003956:	d1e3      	bne.n	8003920 <gfmul+0x2c>
 8003958:	3704      	adds	r7, #4
 800395a:	2f10      	cmp	r7, #16
 800395c:	f506 7680 	add.w	r6, r6, #256	; 0x100
 8003960:	d1db      	bne.n	800391a <gfmul+0x26>
 8003962:	ac0a      	add	r4, sp, #40	; 0x28
 8003964:	f1a9 0910 	sub.w	r9, r9, #16
 8003968:	f104 0610 	add.w	r6, r4, #16
 800396c:	4630      	mov	r0, r6
 800396e:	4631      	mov	r1, r6
 8003970:	f7fe f9de 	bl	8001d30 <gfmul_x8>
 8003974:	4620      	mov	r0, r4
 8003976:	4622      	mov	r2, r4
 8003978:	4631      	mov	r1, r6
 800397a:	3c10      	subs	r4, #16
 800397c:	f7fe f9c6 	bl	8001d0c <poly_xor>
 8003980:	454c      	cmp	r4, r9
 8003982:	d1f1      	bne.n	8003968 <gfmul+0x74>
 8003984:	9b02      	ldr	r3, [sp, #8]
 8003986:	602b      	str	r3, [r5, #0]
 8003988:	9b03      	ldr	r3, [sp, #12]
 800398a:	606b      	str	r3, [r5, #4]
 800398c:	9b04      	ldr	r3, [sp, #16]
 800398e:	60ab      	str	r3, [r5, #8]
 8003990:	9b05      	ldr	r3, [sp, #20]
 8003992:	60eb      	str	r3, [r5, #12]
 8003994:	b013      	add	sp, #76	; 0x4c
 8003996:	e8bd 8ff0 	ldmia.w	sp!, {r4, r5, r6, r7, r8, r9, sl, fp, pc}

0800399a <AES_keyschedule_enc>:
 800399a:	b530      	push	{r4, r5, lr}
 800399c:	2300      	movs	r3, #0
 800399e:	1095      	asrs	r5, r2, #2
 80039a0:	42ab      	cmp	r3, r5
 80039a2:	da06      	bge.n	80039b2 <AES_keyschedule_enc+0x18>
 80039a4:	f850 4023 	ldr.w	r4, [r0, r3, lsl #2]
 80039a8:	ba24      	rev	r4, r4
 80039aa:	f841 4023 	str.w	r4, [r1, r3, lsl #2]
 80039ae:	3301      	adds	r3, #1
 80039b0:	e7f6      	b.n	80039a0 <AES_keyschedule_enc+0x6>
 80039b2:	4608      	mov	r0, r1
 80039b4:	e8bd 4030 	ldmia.w	sp!, {r4, r5, lr}
 80039b8:	f7fe b8ee 	b.w	8001b98 <AES_keyschedule_enc_LL>

080039bc <AES_general_SW_enc>:
 80039bc:	e92d 4ff7 	stmdb	sp!, {r0, r1, r2, r4, r5, r6, r7, r8, r9, sl, fp, lr}
 80039c0:	10db      	asrs	r3, r3, #3
 80039c2:	f103 0903 	add.w	r9, r3, #3
 80039c6:	2300      	movs	r3, #0
 80039c8:	9301      	str	r3, [sp, #4]
 80039ca:	4ba5      	ldr	r3, [pc, #660]	; (8003c60 <AES_general_SW_enc+0x2a4>)
 80039cc:	2401      	movs	r4, #1
 80039ce:	601c      	str	r4, [r3, #0]
 80039d0:	681b      	ldr	r3, [r3, #0]
 80039d2:	9301      	str	r3, [sp, #4]
 80039d4:	4ba3      	ldr	r3, [pc, #652]	; (8003c64 <AES_general_SW_enc+0x2a8>)
 80039d6:	681c      	ldr	r4, [r3, #0]
 80039d8:	9401      	str	r4, [sp, #4]
 80039da:	9c01      	ldr	r4, [sp, #4]
 80039dc:	3401      	adds	r4, #1
 80039de:	468b      	mov	fp, r1
 80039e0:	d117      	bne.n	8003a12 <AES_general_SW_enc+0x56>
 80039e2:	9c01      	ldr	r4, [sp, #4]
 80039e4:	601c      	str	r4, [r3, #0]
 80039e6:	681b      	ldr	r3, [r3, #0]
 80039e8:	9301      	str	r3, [sp, #4]
 80039ea:	9e01      	ldr	r6, [sp, #4]
 80039ec:	6814      	ldr	r4, [r2, #0]
 80039ee:	6803      	ldr	r3, [r0, #0]
 80039f0:	6857      	ldr	r7, [r2, #4]
 80039f2:	6845      	ldr	r5, [r0, #4]
 80039f4:	b956      	cbnz	r6, 8003a0c <AES_general_SW_enc+0x50>
 80039f6:	ea84 0c03 	eor.w	ip, r4, r3
 80039fa:	6883      	ldr	r3, [r0, #8]
 80039fc:	6894      	ldr	r4, [r2, #8]
 80039fe:	68c0      	ldr	r0, [r0, #12]
 8003a00:	405c      	eors	r4, r3
 8003a02:	68d3      	ldr	r3, [r2, #12]
 8003a04:	406f      	eors	r7, r5
 8003a06:	ea83 0800 	eor.w	r8, r3, r0
 8003a0a:	e00b      	b.n	8003a24 <AES_general_SW_enc+0x68>
 8003a0c:	ea87 0c05 	eor.w	ip, r7, r5
 8003a10:	e005      	b.n	8003a1e <AES_general_SW_enc+0x62>
 8003a12:	6854      	ldr	r4, [r2, #4]
 8003a14:	6843      	ldr	r3, [r0, #4]
 8003a16:	ea84 0c03 	eor.w	ip, r4, r3
 8003a1a:	6813      	ldr	r3, [r2, #0]
 8003a1c:	6804      	ldr	r4, [r0, #0]
 8003a1e:	405c      	eors	r4, r3
 8003a20:	46a0      	mov	r8, r4
 8003a22:	4627      	mov	r7, r4
 8003a24:	4b90      	ldr	r3, [pc, #576]	; (8003c68 <AES_general_SW_enc+0x2ac>)
 8003a26:	ea4f 601c 	mov.w	r0, ip, lsr #24
 8003a2a:	fa5f f588 	uxtb.w	r5, r8
 8003a2e:	f853 6020 	ldr.w	r6, [r3, r0, lsl #2]
 8003a32:	6910      	ldr	r0, [r2, #16]
 8003a34:	4070      	eors	r0, r6
 8003a36:	f853 6025 	ldr.w	r6, [r3, r5, lsl #2]
 8003a3a:	f3c7 4507 	ubfx	r5, r7, #16, #8
 8003a3e:	ea80 6036 	eor.w	r0, r0, r6, ror #24
 8003a42:	f853 6025 	ldr.w	r6, [r3, r5, lsl #2]
 8003a46:	ea80 2636 	eor.w	r6, r0, r6, ror #8
 8003a4a:	f3c4 2007 	ubfx	r0, r4, #8, #8
 8003a4e:	fa5f fa87 	uxtb.w	sl, r7
 8003a52:	f853 0020 	ldr.w	r0, [r3, r0, lsl #2]
 8003a56:	f853 a02a 	ldr.w	sl, [r3, sl, lsl #2]
 8003a5a:	ea86 4630 	eor.w	r6, r6, r0, ror #16
 8003a5e:	0e38      	lsrs	r0, r7, #24
 8003a60:	f3c7 2707 	ubfx	r7, r7, #8, #8
 8003a64:	f853 5020 	ldr.w	r5, [r3, r0, lsl #2]
 8003a68:	6950      	ldr	r0, [r2, #20]
 8003a6a:	4068      	eors	r0, r5
 8003a6c:	fa5f f58c 	uxtb.w	r5, ip
 8003a70:	f109 39ff 	add.w	r9, r9, #4294967295
 8003a74:	f853 5025 	ldr.w	r5, [r3, r5, lsl #2]
 8003a78:	ea80 6035 	eor.w	r0, r0, r5, ror #24
 8003a7c:	f3c4 4507 	ubfx	r5, r4, #16, #8
 8003a80:	f1b9 0f00 	cmp.w	r9, #0
 8003a84:	f853 5025 	ldr.w	r5, [r3, r5, lsl #2]
 8003a88:	ea80 2035 	eor.w	r0, r0, r5, ror #8
 8003a8c:	f3c8 2507 	ubfx	r5, r8, #8, #8
 8003a90:	f102 0220 	add.w	r2, r2, #32
 8003a94:	f853 5025 	ldr.w	r5, [r3, r5, lsl #2]
 8003a98:	ea80 4035 	eor.w	r0, r0, r5, ror #16
 8003a9c:	ea4f 6514 	mov.w	r5, r4, lsr #24
 8003aa0:	b2e4      	uxtb	r4, r4
 8003aa2:	f853 1025 	ldr.w	r1, [r3, r5, lsl #2]
 8003aa6:	f852 5c08 	ldr.w	r5, [r2, #-8]
 8003aaa:	f853 4024 	ldr.w	r4, [r3, r4, lsl #2]
 8003aae:	ea81 0105 	eor.w	r1, r1, r5
 8003ab2:	ea81 653a 	eor.w	r5, r1, sl, ror #24
 8003ab6:	f3c8 4a07 	ubfx	sl, r8, #16, #8
 8003aba:	ea4f 6818 	mov.w	r8, r8, lsr #24
 8003abe:	f853 a02a 	ldr.w	sl, [r3, sl, lsl #2]
 8003ac2:	f852 1c04 	ldr.w	r1, [r2, #-4]
 8003ac6:	f853 8028 	ldr.w	r8, [r3, r8, lsl #2]
 8003aca:	ea85 253a 	eor.w	r5, r5, sl, ror #8
 8003ace:	f3cc 2a07 	ubfx	sl, ip, #8, #8
 8003ad2:	f3cc 4c07 	ubfx	ip, ip, #16, #8
 8003ad6:	ea88 0801 	eor.w	r8, r8, r1
 8003ada:	ea88 6834 	eor.w	r8, r8, r4, ror #24
 8003ade:	f853 402c 	ldr.w	r4, [r3, ip, lsl #2]
 8003ae2:	f853 a02a 	ldr.w	sl, [r3, sl, lsl #2]
 8003ae6:	ea88 2834 	eor.w	r8, r8, r4, ror #8
 8003aea:	f853 4027 	ldr.w	r4, [r3, r7, lsl #2]
 8003aee:	ea85 453a 	eor.w	r5, r5, sl, ror #16
 8003af2:	ea88 4834 	eor.w	r8, r8, r4, ror #16
 8003af6:	ea4f 6416 	mov.w	r4, r6, lsr #24
 8003afa:	dd5b      	ble.n	8003bb4 <AES_general_SW_enc+0x1f8>
 8003afc:	f853 7024 	ldr.w	r7, [r3, r4, lsl #2]
 8003b00:	6814      	ldr	r4, [r2, #0]
 8003b02:	6891      	ldr	r1, [r2, #8]
 8003b04:	407c      	eors	r4, r7
 8003b06:	fa5f f788 	uxtb.w	r7, r8
 8003b0a:	fa5f fa80 	uxtb.w	sl, r0
 8003b0e:	f853 7027 	ldr.w	r7, [r3, r7, lsl #2]
 8003b12:	f853 a02a 	ldr.w	sl, [r3, sl, lsl #2]
 8003b16:	ea84 6437 	eor.w	r4, r4, r7, ror #24
 8003b1a:	f3c0 4707 	ubfx	r7, r0, #16, #8
 8003b1e:	f853 7027 	ldr.w	r7, [r3, r7, lsl #2]
 8003b22:	ea84 2c37 	eor.w	ip, r4, r7, ror #8
 8003b26:	f3c5 2407 	ubfx	r4, r5, #8, #8
 8003b2a:	f853 4024 	ldr.w	r4, [r3, r4, lsl #2]
 8003b2e:	ea8c 4c34 	eor.w	ip, ip, r4, ror #16
 8003b32:	0e04      	lsrs	r4, r0, #24
 8003b34:	f3c0 2007 	ubfx	r0, r0, #8, #8
 8003b38:	f853 7024 	ldr.w	r7, [r3, r4, lsl #2]
 8003b3c:	6854      	ldr	r4, [r2, #4]
 8003b3e:	407c      	eors	r4, r7
 8003b40:	b2f7      	uxtb	r7, r6
 8003b42:	f853 7027 	ldr.w	r7, [r3, r7, lsl #2]
 8003b46:	ea84 6437 	eor.w	r4, r4, r7, ror #24
 8003b4a:	f3c5 4707 	ubfx	r7, r5, #16, #8
 8003b4e:	f853 7027 	ldr.w	r7, [r3, r7, lsl #2]
 8003b52:	ea84 2737 	eor.w	r7, r4, r7, ror #8
 8003b56:	f3c8 2407 	ubfx	r4, r8, #8, #8
 8003b5a:	f853 4024 	ldr.w	r4, [r3, r4, lsl #2]
 8003b5e:	ea87 4734 	eor.w	r7, r7, r4, ror #16
 8003b62:	0e2c      	lsrs	r4, r5, #24
 8003b64:	b2ed      	uxtb	r5, r5
 8003b66:	f853 4024 	ldr.w	r4, [r3, r4, lsl #2]
 8003b6a:	f853 5025 	ldr.w	r5, [r3, r5, lsl #2]
 8003b6e:	404c      	eors	r4, r1
 8003b70:	ea84 643a 	eor.w	r4, r4, sl, ror #24
 8003b74:	f3c8 4a07 	ubfx	sl, r8, #16, #8
 8003b78:	ea4f 6818 	mov.w	r8, r8, lsr #24
 8003b7c:	f853 a02a 	ldr.w	sl, [r3, sl, lsl #2]
 8003b80:	f853 8028 	ldr.w	r8, [r3, r8, lsl #2]
 8003b84:	68d1      	ldr	r1, [r2, #12]
 8003b86:	ea84 243a 	eor.w	r4, r4, sl, ror #8
 8003b8a:	f3c6 2a07 	ubfx	sl, r6, #8, #8
 8003b8e:	f3c6 4607 	ubfx	r6, r6, #16, #8
 8003b92:	ea88 0801 	eor.w	r8, r8, r1
 8003b96:	ea88 6835 	eor.w	r8, r8, r5, ror #24
 8003b9a:	f853 5026 	ldr.w	r5, [r3, r6, lsl #2]
 8003b9e:	f853 a02a 	ldr.w	sl, [r3, sl, lsl #2]
 8003ba2:	f853 3020 	ldr.w	r3, [r3, r0, lsl #2]
 8003ba6:	ea88 2835 	eor.w	r8, r8, r5, ror #8
 8003baa:	ea84 443a 	eor.w	r4, r4, sl, ror #16
 8003bae:	ea88 4833 	eor.w	r8, r8, r3, ror #16
 8003bb2:	e737      	b.n	8003a24 <AES_general_SW_enc+0x68>
 8003bb4:	4b2d      	ldr	r3, [pc, #180]	; (8003c6c <AES_general_SW_enc+0x2b0>)
 8003bb6:	5d1f      	ldrb	r7, [r3, r4]
 8003bb8:	fa5f f488 	uxtb.w	r4, r8
 8003bbc:	5d1c      	ldrb	r4, [r3, r4]
 8003bbe:	ea44 6707 	orr.w	r7, r4, r7, lsl #24
 8003bc2:	f3c0 4407 	ubfx	r4, r0, #16, #8
 8003bc6:	5d1c      	ldrb	r4, [r3, r4]
 8003bc8:	ea47 4704 	orr.w	r7, r7, r4, lsl #16
 8003bcc:	f3c5 2407 	ubfx	r4, r5, #8, #8
 8003bd0:	5d1c      	ldrb	r4, [r3, r4]
 8003bd2:	ea47 2704 	orr.w	r7, r7, r4, lsl #8
 8003bd6:	6814      	ldr	r4, [r2, #0]
 8003bd8:	407c      	eors	r4, r7
 8003bda:	f8cb 4000 	str.w	r4, [fp]
 8003bde:	0e04      	lsrs	r4, r0, #24
 8003be0:	5d1f      	ldrb	r7, [r3, r4]
 8003be2:	b2f4      	uxtb	r4, r6
 8003be4:	5d1c      	ldrb	r4, [r3, r4]
 8003be6:	ea44 6707 	orr.w	r7, r4, r7, lsl #24
 8003bea:	f3c5 4407 	ubfx	r4, r5, #16, #8
 8003bee:	5d1c      	ldrb	r4, [r3, r4]
 8003bf0:	ea47 4704 	orr.w	r7, r7, r4, lsl #16
 8003bf4:	f3c8 2407 	ubfx	r4, r8, #8, #8
 8003bf8:	5d1c      	ldrb	r4, [r3, r4]
 8003bfa:	ea47 2704 	orr.w	r7, r7, r4, lsl #8
 8003bfe:	6854      	ldr	r4, [r2, #4]
 8003c00:	407c      	eors	r4, r7
 8003c02:	f8cb 4004 	str.w	r4, [fp, #4]
 8003c06:	0e2c      	lsrs	r4, r5, #24
 8003c08:	b2ed      	uxtb	r5, r5
 8003c0a:	5d1f      	ldrb	r7, [r3, r4]
 8003c0c:	b2c4      	uxtb	r4, r0
 8003c0e:	f3c0 2007 	ubfx	r0, r0, #8, #8
 8003c12:	5d1c      	ldrb	r4, [r3, r4]
 8003c14:	ea44 6707 	orr.w	r7, r4, r7, lsl #24
 8003c18:	f3c8 4407 	ubfx	r4, r8, #16, #8
 8003c1c:	ea4f 6818 	mov.w	r8, r8, lsr #24
 8003c20:	5d1c      	ldrb	r4, [r3, r4]
 8003c22:	ea47 4704 	orr.w	r7, r7, r4, lsl #16
 8003c26:	f3c6 2407 	ubfx	r4, r6, #8, #8
 8003c2a:	f3c6 4607 	ubfx	r6, r6, #16, #8
 8003c2e:	5d1c      	ldrb	r4, [r3, r4]
 8003c30:	ea47 2704 	orr.w	r7, r7, r4, lsl #8
 8003c34:	6894      	ldr	r4, [r2, #8]
 8003c36:	407c      	eors	r4, r7
 8003c38:	f8cb 4008 	str.w	r4, [fp, #8]
 8003c3c:	f813 7008 	ldrb.w	r7, [r3, r8]
 8003c40:	5d5c      	ldrb	r4, [r3, r5]
 8003c42:	5d9d      	ldrb	r5, [r3, r6]
 8003c44:	5c1b      	ldrb	r3, [r3, r0]
 8003c46:	68d2      	ldr	r2, [r2, #12]
 8003c48:	ea44 6407 	orr.w	r4, r4, r7, lsl #24
 8003c4c:	ea44 4405 	orr.w	r4, r4, r5, lsl #16
 8003c50:	ea44 2303 	orr.w	r3, r4, r3, lsl #8
 8003c54:	4053      	eors	r3, r2
 8003c56:	f8cb 300c 	str.w	r3, [fp, #12]
 8003c5a:	b003      	add	sp, #12
 8003c5c:	e8bd 8ff0 	ldmia.w	sp!, {r4, r5, r6, r7, r8, r9, sl, fp, pc}
 8003c60:	40023008 	.word	0x40023008
 8003c64:	40023000 	.word	0x40023000
 8003c68:	0800f538 	.word	0x0800f538
 8003c6c:	0800ffc4 	.word	0x0800ffc4

08003c70 <AESgcmAppend>:
 8003c70:	e92d 4ff0 	stmdb	sp!, {r4, r5, r6, r7, r8, r9, sl, fp, lr}
 8003c74:	b08d      	sub	sp, #52	; 0x34
 8003c76:	f10d 0920 	add.w	r9, sp, #32
 8003c7a:	4604      	mov	r4, r0
 8003c7c:	468b      	mov	fp, r1
 8003c7e:	4617      	mov	r7, r2
 8003c80:	4648      	mov	r0, r9
 8003c82:	2100      	movs	r1, #0
 8003c84:	2210      	movs	r2, #16
 8003c86:	4698      	mov	r8, r3
 8003c88:	9e17      	ldr	r6, [sp, #92]	; 0x5c
 8003c8a:	f00a fe5a 	bl	800e942 <memset>
 8003c8e:	2300      	movs	r3, #0
 8003c90:	9303      	str	r3, [sp, #12]
 8003c92:	2c00      	cmp	r4, #0
 8003c94:	f000 81ac 	beq.w	8003ff0 <AESgcmAppend+0x380>
 8003c98:	f1bb 0f00 	cmp.w	fp, #0
 8003c9c:	f000 81a8 	beq.w	8003ff0 <AESgcmAppend+0x380>
 8003ca0:	f1b8 0f00 	cmp.w	r8, #0
 8003ca4:	f000 81a4 	beq.w	8003ff0 <AESgcmAppend+0x380>
 8003ca8:	9916      	ldr	r1, [sp, #88]	; 0x58
 8003caa:	2900      	cmp	r1, #0
 8003cac:	f000 81a0 	beq.w	8003ff0 <AESgcmAppend+0x380>
 8003cb0:	7923      	ldrb	r3, [r4, #4]
 8003cb2:	f013 0506 	ands.w	r5, r3, #6
 8003cb6:	f040 819e 	bne.w	8003ff6 <AESgcmAppend+0x386>
 8003cba:	f043 0310 	orr.w	r3, r3, #16
 8003cbe:	7123      	strb	r3, [r4, #4]
 8003cc0:	4bc9      	ldr	r3, [pc, #804]	; (8003fe8 <AESgcmAppend+0x378>)
 8003cc2:	2201      	movs	r2, #1
 8003cc4:	601a      	str	r2, [r3, #0]
 8003cc6:	681b      	ldr	r3, [r3, #0]
 8003cc8:	9303      	str	r3, [sp, #12]
 8003cca:	4bc8      	ldr	r3, [pc, #800]	; (8003fec <AESgcmAppend+0x37c>)
 8003ccc:	681a      	ldr	r2, [r3, #0]
 8003cce:	9203      	str	r2, [sp, #12]
 8003cd0:	9a03      	ldr	r2, [sp, #12]
 8003cd2:	3201      	adds	r2, #1
 8003cd4:	f040 80dd 	bne.w	8003e92 <AESgcmAppend+0x222>
 8003cd8:	9a03      	ldr	r2, [sp, #12]
 8003cda:	601a      	str	r2, [r3, #0]
 8003cdc:	681b      	ldr	r3, [r3, #0]
 8003cde:	9303      	str	r3, [sp, #12]
 8003ce0:	9b03      	ldr	r3, [sp, #12]
 8003ce2:	2b00      	cmp	r3, #0
 8003ce4:	f040 808b 	bne.w	8003dfe <AESgcmAppend+0x18e>
 8003ce8:	461d      	mov	r5, r3
 8003cea:	f105 030f 	add.w	r3, r5, #15
 8003cee:	42bb      	cmp	r3, r7
 8003cf0:	f280 80d7 	bge.w	8003ea2 <AESgcmAppend+0x232>
 8003cf4:	2300      	movs	r3, #0
 8003cf6:	eb0b 0205 	add.w	r2, fp, r5
 8003cfa:	f10d 0a10 	add.w	sl, sp, #16
 8003cfe:	58d2      	ldr	r2, [r2, r3]
 8003d00:	2e01      	cmp	r6, #1
 8003d02:	ba12      	rev	r2, r2
 8003d04:	f843 200a 	str.w	r2, [r3, sl]
 8003d08:	d104      	bne.n	8003d14 <AESgcmAppend+0xa4>
 8003d0a:	18e1      	adds	r1, r4, r3
 8003d0c:	6b89      	ldr	r1, [r1, #56]	; 0x38
 8003d0e:	404a      	eors	r2, r1
 8003d10:	f849 2003 	str.w	r2, [r9, r3]
 8003d14:	3304      	adds	r3, #4
 8003d16:	2b10      	cmp	r3, #16
 8003d18:	d1ed      	bne.n	8003cf6 <AESgcmAppend+0x86>
 8003d1a:	2e01      	cmp	r6, #1
 8003d1c:	d106      	bne.n	8003d2c <AESgcmAppend+0xbc>
 8003d1e:	4648      	mov	r0, r9
 8003d20:	f504 719c 	add.w	r1, r4, #312	; 0x138
 8003d24:	f104 0238 	add.w	r2, r4, #56	; 0x38
 8003d28:	f7ff fde4 	bl	80038f4 <gfmul>
 8003d2c:	6a63      	ldr	r3, [r4, #36]	; 0x24
 8003d2e:	f104 0014 	add.w	r0, r4, #20
 8003d32:	4649      	mov	r1, r9
 8003d34:	f104 0248 	add.w	r2, r4, #72	; 0x48
 8003d38:	f7ff fe40 	bl	80039bc <AES_general_SW_enc>
 8003d3c:	6a23      	ldr	r3, [r4, #32]
 8003d3e:	3301      	adds	r3, #1
 8003d40:	6223      	str	r3, [r4, #32]
 8003d42:	2300      	movs	r3, #0
 8003d44:	f85a 1003 	ldr.w	r1, [sl, r3]
 8003d48:	f859 2003 	ldr.w	r2, [r9, r3]
 8003d4c:	404a      	eors	r2, r1
 8003d4e:	eb08 0105 	add.w	r1, r8, r5
 8003d52:	ba10      	rev	r0, r2
 8003d54:	50c8      	str	r0, [r1, r3]
 8003d56:	18e1      	adds	r1, r4, r3
 8003d58:	6b89      	ldr	r1, [r1, #56]	; 0x38
 8003d5a:	404a      	eors	r2, r1
 8003d5c:	f849 2003 	str.w	r2, [r9, r3]
 8003d60:	3304      	adds	r3, #4
 8003d62:	2b10      	cmp	r3, #16
 8003d64:	d1ee      	bne.n	8003d44 <AESgcmAppend+0xd4>
 8003d66:	b936      	cbnz	r6, 8003d76 <AESgcmAppend+0x106>
 8003d68:	4648      	mov	r0, r9
 8003d6a:	f504 719c 	add.w	r1, r4, #312	; 0x138
 8003d6e:	f104 0238 	add.w	r2, r4, #56	; 0x38
 8003d72:	f7ff fdbf 	bl	80038f4 <gfmul>
 8003d76:	3510      	adds	r5, #16
 8003d78:	e7b7      	b.n	8003cea <AESgcmAppend+0x7a>
 8003d7a:	6811      	ldr	r1, [r2, #0]
 8003d7c:	f10d 0a10 	add.w	sl, sp, #16
 8003d80:	ba09      	rev	r1, r1
 8003d82:	2e01      	cmp	r6, #1
 8003d84:	f843 100a 	str.w	r1, [r3, sl]
 8003d88:	d104      	bne.n	8003d94 <AESgcmAppend+0x124>
 8003d8a:	18e0      	adds	r0, r4, r3
 8003d8c:	6b80      	ldr	r0, [r0, #56]	; 0x38
 8003d8e:	4301      	orrs	r1, r0
 8003d90:	f849 1003 	str.w	r1, [r9, r3]
 8003d94:	3304      	adds	r3, #4
 8003d96:	2b10      	cmp	r3, #16
 8003d98:	f102 0201 	add.w	r2, r2, #1
 8003d9c:	d1ed      	bne.n	8003d7a <AESgcmAppend+0x10a>
 8003d9e:	2e01      	cmp	r6, #1
 8003da0:	d106      	bne.n	8003db0 <AESgcmAppend+0x140>
 8003da2:	4648      	mov	r0, r9
 8003da4:	f504 719c 	add.w	r1, r4, #312	; 0x138
 8003da8:	f104 0238 	add.w	r2, r4, #56	; 0x38
 8003dac:	f7ff fda2 	bl	80038f4 <gfmul>
 8003db0:	4649      	mov	r1, r9
 8003db2:	6a63      	ldr	r3, [r4, #36]	; 0x24
 8003db4:	f104 0014 	add.w	r0, r4, #20
 8003db8:	f104 0248 	add.w	r2, r4, #72	; 0x48
 8003dbc:	f7ff fdfe 	bl	80039bc <AES_general_SW_enc>
 8003dc0:	6a23      	ldr	r3, [r4, #32]
 8003dc2:	3301      	adds	r3, #1
 8003dc4:	6223      	str	r3, [r4, #32]
 8003dc6:	eb08 0105 	add.w	r1, r8, r5
 8003dca:	2300      	movs	r3, #0
 8003dcc:	f85a 0003 	ldr.w	r0, [sl, r3]
 8003dd0:	f859 2003 	ldr.w	r2, [r9, r3]
 8003dd4:	4302      	orrs	r2, r0
 8003dd6:	ba10      	rev	r0, r2
 8003dd8:	f841 0b01 	str.w	r0, [r1], #1
 8003ddc:	18e0      	adds	r0, r4, r3
 8003dde:	6b80      	ldr	r0, [r0, #56]	; 0x38
 8003de0:	4002      	ands	r2, r0
 8003de2:	f849 2003 	str.w	r2, [r9, r3]
 8003de6:	3304      	adds	r3, #4
 8003de8:	2b10      	cmp	r3, #16
 8003dea:	d1ef      	bne.n	8003dcc <AESgcmAppend+0x15c>
 8003dec:	b936      	cbnz	r6, 8003dfc <AESgcmAppend+0x18c>
 8003dee:	4648      	mov	r0, r9
 8003df0:	f504 719c 	add.w	r1, r4, #312	; 0x138
 8003df4:	f104 0238 	add.w	r2, r4, #56	; 0x38
 8003df8:	f7ff fd7c 	bl	80038f4 <gfmul>
 8003dfc:	3510      	adds	r5, #16
 8003dfe:	f105 030f 	add.w	r3, r5, #15
 8003e02:	42bb      	cmp	r3, r7
 8003e04:	da4d      	bge.n	8003ea2 <AESgcmAppend+0x232>
 8003e06:	eb0b 0205 	add.w	r2, fp, r5
 8003e0a:	2300      	movs	r3, #0
 8003e0c:	e7b5      	b.n	8003d7a <AESgcmAppend+0x10a>
 8003e0e:	6811      	ldr	r1, [r2, #0]
 8003e10:	f10d 0a10 	add.w	sl, sp, #16
 8003e14:	ba09      	rev	r1, r1
 8003e16:	2e01      	cmp	r6, #1
 8003e18:	f843 100a 	str.w	r1, [r3, sl]
 8003e1c:	d104      	bne.n	8003e28 <AESgcmAppend+0x1b8>
 8003e1e:	18e0      	adds	r0, r4, r3
 8003e20:	6b80      	ldr	r0, [r0, #56]	; 0x38
 8003e22:	4301      	orrs	r1, r0
 8003e24:	f849 1003 	str.w	r1, [r9, r3]
 8003e28:	3304      	adds	r3, #4
 8003e2a:	2b10      	cmp	r3, #16
 8003e2c:	f102 0201 	add.w	r2, r2, #1
 8003e30:	d1ed      	bne.n	8003e0e <AESgcmAppend+0x19e>
 8003e32:	2e01      	cmp	r6, #1
 8003e34:	d106      	bne.n	8003e44 <AESgcmAppend+0x1d4>
 8003e36:	4648      	mov	r0, r9
 8003e38:	f504 719c 	add.w	r1, r4, #312	; 0x138
 8003e3c:	f104 0238 	add.w	r2, r4, #56	; 0x38
 8003e40:	f7ff fd58 	bl	80038f4 <gfmul>
 8003e44:	4649      	mov	r1, r9
 8003e46:	6a63      	ldr	r3, [r4, #36]	; 0x24
 8003e48:	f104 0014 	add.w	r0, r4, #20
 8003e4c:	f104 0248 	add.w	r2, r4, #72	; 0x48
 8003e50:	f7ff fdb4 	bl	80039bc <AES_general_SW_enc>
 8003e54:	6a23      	ldr	r3, [r4, #32]
 8003e56:	3301      	adds	r3, #1
 8003e58:	6223      	str	r3, [r4, #32]
 8003e5a:	eb08 0105 	add.w	r1, r8, r5
 8003e5e:	2300      	movs	r3, #0
 8003e60:	f85a 0003 	ldr.w	r0, [sl, r3]
 8003e64:	f859 2003 	ldr.w	r2, [r9, r3]
 8003e68:	4302      	orrs	r2, r0
 8003e6a:	ba10      	rev	r0, r2
 8003e6c:	f841 0b01 	str.w	r0, [r1], #1
 8003e70:	18e0      	adds	r0, r4, r3
 8003e72:	6b80      	ldr	r0, [r0, #56]	; 0x38
 8003e74:	4002      	ands	r2, r0
 8003e76:	f849 2003 	str.w	r2, [r9, r3]
 8003e7a:	3304      	adds	r3, #4
 8003e7c:	2b10      	cmp	r3, #16
 8003e7e:	d1ef      	bne.n	8003e60 <AESgcmAppend+0x1f0>
 8003e80:	b936      	cbnz	r6, 8003e90 <AESgcmAppend+0x220>
 8003e82:	4648      	mov	r0, r9
 8003e84:	f504 719c 	add.w	r1, r4, #312	; 0x138
 8003e88:	f104 0238 	add.w	r2, r4, #56	; 0x38
 8003e8c:	f7ff fd32 	bl	80038f4 <gfmul>
 8003e90:	3510      	adds	r5, #16
 8003e92:	f105 030f 	add.w	r3, r5, #15
 8003e96:	42bb      	cmp	r3, r7
 8003e98:	da03      	bge.n	8003ea2 <AESgcmAppend+0x232>
 8003e9a:	eb0b 0205 	add.w	r2, fp, r5
 8003e9e:	2300      	movs	r3, #0
 8003ea0:	e7b5      	b.n	8003e0e <AESgcmAppend+0x19e>
 8003ea2:	42bd      	cmp	r5, r7
 8003ea4:	f280 8099 	bge.w	8003fda <AESgcmAppend+0x36a>
 8003ea8:	7923      	ldrb	r3, [r4, #4]
 8003eaa:	f043 0304 	orr.w	r3, r3, #4
 8003eae:	4649      	mov	r1, r9
 8003eb0:	7123      	strb	r3, [r4, #4]
 8003eb2:	f104 0014 	add.w	r0, r4, #20
 8003eb6:	f104 0248 	add.w	r2, r4, #72	; 0x48
 8003eba:	6a63      	ldr	r3, [r4, #36]	; 0x24
 8003ebc:	f7ff fd7e 	bl	80039bc <AES_general_SW_enc>
 8003ec0:	f04f 0904 	mov.w	r9, #4
 8003ec4:	ebc5 0c07 	rsb	ip, r5, r7
 8003ec8:	2100      	movs	r1, #0
 8003eca:	fb9c f9f9 	sdiv	r9, ip, r9
 8003ece:	9100      	str	r1, [sp, #0]
 8003ed0:	9b00      	ldr	r3, [sp, #0]
 8003ed2:	454b      	cmp	r3, r9
 8003ed4:	da27      	bge.n	8003f26 <AESgcmAppend+0x2b6>
 8003ed6:	eb0b 0205 	add.w	r2, fp, r5
 8003eda:	f10d 0a20 	add.w	sl, sp, #32
 8003ede:	5852      	ldr	r2, [r2, r1]
 8003ee0:	f851 000a 	ldr.w	r0, [r1, sl]
 8003ee4:	fa92 fe82 	rev.w	lr, r2
 8003ee8:	ea8e 0000 	eor.w	r0, lr, r0
 8003eec:	f841 000a 	str.w	r0, [r1, sl]
 8003ef0:	aa04      	add	r2, sp, #16
 8003ef2:	eb08 0a05 	add.w	sl, r8, r5
 8003ef6:	ba03      	rev	r3, r0
 8003ef8:	f84a 3001 	str.w	r3, [sl, r1]
 8003efc:	f841 e002 	str.w	lr, [r1, r2]
 8003f00:	eb04 0a01 	add.w	sl, r4, r1
 8003f04:	b916      	cbnz	r6, 8003f0c <AESgcmAppend+0x29c>
 8003f06:	f8da e038 	ldr.w	lr, [sl, #56]	; 0x38
 8003f0a:	e001      	b.n	8003f10 <AESgcmAppend+0x2a0>
 8003f0c:	f8da 0038 	ldr.w	r0, [sl, #56]	; 0x38
 8003f10:	f8dd a000 	ldr.w	sl, [sp]
 8003f14:	ea8e 0000 	eor.w	r0, lr, r0
 8003f18:	f10a 0a01 	add.w	sl, sl, #1
 8003f1c:	5088      	str	r0, [r1, r2]
 8003f1e:	f8cd a000 	str.w	sl, [sp]
 8003f22:	3104      	adds	r1, #4
 8003f24:	e7d4      	b.n	8003ed0 <AESgcmAppend+0x260>
 8003f26:	ea29 79e9 	bic.w	r9, r9, r9, asr #31
 8003f2a:	ea4f 0289 	mov.w	r2, r9, lsl #2
 8003f2e:	a90c      	add	r1, sp, #48	; 0x30
 8003f30:	f109 030e 	add.w	r3, r9, #14
 8003f34:	4411      	add	r1, r2
 8003f36:	f854 3023 	ldr.w	r3, [r4, r3, lsl #2]
 8003f3a:	f841 3c20 	str.w	r3, [r1, #-32]
 8003f3e:	ebac 0c89 	sub.w	ip, ip, r9, lsl #2
 8003f42:	f8cd c004 	str.w	ip, [sp, #4]
 8003f46:	eb02 0e05 	add.w	lr, r2, r5
 8003f4a:	2300      	movs	r3, #0
 8003f4c:	9901      	ldr	r1, [sp, #4]
 8003f4e:	428b      	cmp	r3, r1
 8003f50:	da2b      	bge.n	8003faa <AESgcmAppend+0x33a>
 8003f52:	eb0b 010e 	add.w	r1, fp, lr
 8003f56:	00d8      	lsls	r0, r3, #3
 8003f58:	f811 c003 	ldrb.w	ip, [r1, r3]
 8003f5c:	a90c      	add	r1, sp, #48	; 0x30
 8003f5e:	eb01 0589 	add.w	r5, r1, r9, lsl #2
 8003f62:	f1c0 0018 	rsb	r0, r0, #24
 8003f66:	f855 1c20 	ldr.w	r1, [r5, #-32]
 8003f6a:	fa0c fa00 	lsl.w	sl, ip, r0
 8003f6e:	ea8a 0a01 	eor.w	sl, sl, r1
 8003f72:	f845 ac20 	str.w	sl, [r5, #-32]
 8003f76:	b946      	cbnz	r6, 8003f8a <AESgcmAppend+0x31a>
 8003f78:	f855 1c10 	ldr.w	r1, [r5, #-16]
 8003f7c:	40c1      	lsrs	r1, r0
 8003f7e:	b2c9      	uxtb	r1, r1
 8003f80:	4081      	lsls	r1, r0
 8003f82:	ea81 010a 	eor.w	r1, r1, sl
 8003f86:	f845 1c20 	str.w	r1, [r5, #-32]
 8003f8a:	f10d 0a30 	add.w	sl, sp, #48	; 0x30
 8003f8e:	eb0a 0589 	add.w	r5, sl, r9, lsl #2
 8003f92:	eb08 010e 	add.w	r1, r8, lr
 8003f96:	f855 5c10 	ldr.w	r5, [r5, #-16]
 8003f9a:	fa25 f000 	lsr.w	r0, r5, r0
 8003f9e:	ea80 0c0c 	eor.w	ip, r0, ip
 8003fa2:	f801 c003 	strb.w	ip, [r1, r3]
 8003fa6:	3301      	adds	r3, #1
 8003fa8:	e7d0      	b.n	8003f4c <AESgcmAppend+0x2dc>
 8003faa:	ab04      	add	r3, sp, #16
 8003fac:	18a0      	adds	r0, r4, r2
 8003fae:	f109 0901 	add.w	r9, r9, #1
 8003fb2:	441a      	add	r2, r3
 8003fb4:	2300      	movs	r3, #0
 8003fb6:	f1b9 0f03 	cmp.w	r9, #3
 8003fba:	f103 0304 	add.w	r3, r3, #4
 8003fbe:	dc05      	bgt.n	8003fcc <AESgcmAppend+0x35c>
 8003fc0:	18c1      	adds	r1, r0, r3
 8003fc2:	f109 0901 	add.w	r9, r9, #1
 8003fc6:	6b89      	ldr	r1, [r1, #56]	; 0x38
 8003fc8:	50d1      	str	r1, [r2, r3]
 8003fca:	e7f4      	b.n	8003fb6 <AESgcmAppend+0x346>
 8003fcc:	a804      	add	r0, sp, #16
 8003fce:	f504 719c 	add.w	r1, r4, #312	; 0x138
 8003fd2:	f104 0238 	add.w	r2, r4, #56	; 0x38
 8003fd6:	f7ff fc8d 	bl	80038f4 <gfmul>
 8003fda:	6b63      	ldr	r3, [r4, #52]	; 0x34
 8003fdc:	9916      	ldr	r1, [sp, #88]	; 0x58
 8003fde:	443b      	add	r3, r7
 8003fe0:	6363      	str	r3, [r4, #52]	; 0x34
 8003fe2:	2000      	movs	r0, #0
 8003fe4:	600f      	str	r7, [r1, #0]
 8003fe6:	e008      	b.n	8003ffa <AESgcmAppend+0x38a>
 8003fe8:	40023008 	.word	0x40023008
 8003fec:	40023000 	.word	0x40023000
 8003ff0:	f44f 6042 	mov.w	r0, #3104	; 0xc20
 8003ff4:	e001      	b.n	8003ffa <AESgcmAppend+0x38a>
 8003ff6:	f640 401e 	movw	r0, #3102	; 0xc1e
 8003ffa:	b00d      	add	sp, #52	; 0x34
 8003ffc:	e8bd 8ff0 	ldmia.w	sp!, {r4, r5, r6, r7, r8, r9, sl, fp, pc}

08004000 <AESgcmFinal>:
 8004000:	e92d 41f0 	stmdb	sp!, {r4, r5, r6, r7, r8, lr}
 8004004:	b088      	sub	sp, #32
 8004006:	4604      	mov	r4, r0
 8004008:	460e      	mov	r6, r1
 800400a:	4617      	mov	r7, r2
 800400c:	4668      	mov	r0, sp
 800400e:	2100      	movs	r1, #0
 8004010:	2210      	movs	r2, #16
 8004012:	461d      	mov	r5, r3
 8004014:	f00a fc95 	bl	800e942 <memset>
 8004018:	2c00      	cmp	r4, #0
 800401a:	f000 80a0 	beq.w	800415e <AESgcmFinal+0x15e>
 800401e:	b916      	cbnz	r6, 8004026 <AESgcmFinal+0x26>
 8004020:	2d00      	cmp	r5, #0
 8004022:	f000 809c 	beq.w	800415e <AESgcmFinal+0x15e>
 8004026:	2f00      	cmp	r7, #0
 8004028:	f000 8099 	beq.w	800415e <AESgcmFinal+0x15e>
 800402c:	6ae3      	ldr	r3, [r4, #44]	; 0x2c
 800402e:	3b01      	subs	r3, #1
 8004030:	2b0f      	cmp	r3, #15
 8004032:	f200 8091 	bhi.w	8004158 <AESgcmFinal+0x158>
 8004036:	6aa3      	ldr	r3, [r4, #40]	; 0x28
 8004038:	b913      	cbnz	r3, 8004040 <AESgcmFinal+0x40>
 800403a:	2d01      	cmp	r5, #1
 800403c:	f000 808c 	beq.w	8004158 <AESgcmFinal+0x158>
 8004040:	7923      	ldrb	r3, [r4, #4]
 8004042:	6b22      	ldr	r2, [r4, #48]	; 0x30
 8004044:	f043 0302 	orr.w	r3, r3, #2
 8004048:	7123      	strb	r3, [r4, #4]
 800404a:	6be3      	ldr	r3, [r4, #60]	; 0x3c
 800404c:	ea83 03c2 	eor.w	r3, r3, r2, lsl #3
 8004050:	63e3      	str	r3, [r4, #60]	; 0x3c
 8004052:	6b62      	ldr	r2, [r4, #52]	; 0x34
 8004054:	6c63      	ldr	r3, [r4, #68]	; 0x44
 8004056:	f10d 0810 	add.w	r8, sp, #16
 800405a:	ea83 03c2 	eor.w	r3, r3, r2, lsl #3
 800405e:	6463      	str	r3, [r4, #68]	; 0x44
 8004060:	f104 0038 	add.w	r0, r4, #56	; 0x38
 8004064:	f504 719c 	add.w	r1, r4, #312	; 0x138
 8004068:	4642      	mov	r2, r8
 800406a:	f7ff fc43 	bl	80038f4 <gfmul>
 800406e:	2301      	movs	r3, #1
 8004070:	6223      	str	r3, [r4, #32]
 8004072:	f104 0014 	add.w	r0, r4, #20
 8004076:	4669      	mov	r1, sp
 8004078:	f104 0248 	add.w	r2, r4, #72	; 0x48
 800407c:	6a63      	ldr	r3, [r4, #36]	; 0x24
 800407e:	f7ff fc9d 	bl	80039bc <AES_general_SW_enc>
 8004082:	2000      	movs	r0, #0
 8004084:	f85d 3000 	ldr.w	r3, [sp, r0]
 8004088:	f858 2000 	ldr.w	r2, [r8, r0]
 800408c:	4053      	eors	r3, r2
 800408e:	f84d 3000 	str.w	r3, [sp, r0]
 8004092:	3004      	adds	r0, #4
 8004094:	2810      	cmp	r0, #16
 8004096:	d1f5      	bne.n	8004084 <AESgcmFinal+0x84>
 8004098:	b145      	cbz	r5, 80040ac <AESgcmFinal+0xac>
 800409a:	2d01      	cmp	r5, #1
 800409c:	d15f      	bne.n	800415e <AESgcmFinal+0x15e>
 800409e:	6ae0      	ldr	r0, [r4, #44]	; 0x2c
 80040a0:	2104      	movs	r1, #4
 80040a2:	2300      	movs	r3, #0
 80040a4:	fb90 f1f1 	sdiv	r1, r0, r1
 80040a8:	461a      	mov	r2, r3
 80040aa:	e028      	b.n	80040fe <AESgcmFinal+0xfe>
 80040ac:	462b      	mov	r3, r5
 80040ae:	6ae2      	ldr	r2, [r4, #44]	; 0x2c
 80040b0:	2104      	movs	r1, #4
 80040b2:	fb92 f2f1 	sdiv	r2, r2, r1
 80040b6:	4293      	cmp	r3, r2
 80040b8:	ea4f 0183 	mov.w	r1, r3, lsl #2
 80040bc:	da06      	bge.n	80040cc <AESgcmFinal+0xcc>
 80040be:	f85d 2023 	ldr.w	r2, [sp, r3, lsl #2]
 80040c2:	ba12      	rev	r2, r2
 80040c4:	f846 2023 	str.w	r2, [r6, r3, lsl #2]
 80040c8:	3301      	adds	r3, #1
 80040ca:	e7f0      	b.n	80040ae <AESgcmFinal+0xae>
 80040cc:	f06f 0203 	mvn.w	r2, #3
 80040d0:	4353      	muls	r3, r2
 80040d2:	2000      	movs	r0, #0
 80040d4:	6ae2      	ldr	r2, [r4, #44]	; 0x2c
 80040d6:	18d5      	adds	r5, r2, r3
 80040d8:	42a8      	cmp	r0, r5
 80040da:	da0d      	bge.n	80040f8 <AESgcmFinal+0xf8>
 80040dc:	f10d 0c20 	add.w	ip, sp, #32
 80040e0:	448c      	add	ip, r1
 80040e2:	00c5      	lsls	r5, r0, #3
 80040e4:	f85c cc20 	ldr.w	ip, [ip, #-32]
 80040e8:	1872      	adds	r2, r6, r1
 80040ea:	f1c5 0518 	rsb	r5, r5, #24
 80040ee:	fa2c f505 	lsr.w	r5, ip, r5
 80040f2:	5415      	strb	r5, [r2, r0]
 80040f4:	3001      	adds	r0, #1
 80040f6:	e7ed      	b.n	80040d4 <AESgcmFinal+0xd4>
 80040f8:	603a      	str	r2, [r7, #0]
 80040fa:	2000      	movs	r0, #0
 80040fc:	e031      	b.n	8004162 <AESgcmFinal+0x162>
 80040fe:	428a      	cmp	r2, r1
 8004100:	da09      	bge.n	8004116 <AESgcmFinal+0x116>
 8004102:	6aa5      	ldr	r5, [r4, #40]	; 0x28
 8004104:	f855 6022 	ldr.w	r6, [r5, r2, lsl #2]
 8004108:	f85d 5022 	ldr.w	r5, [sp, r2, lsl #2]
 800410c:	ba36      	rev	r6, r6
 800410e:	4075      	eors	r5, r6
 8004110:	432b      	orrs	r3, r5
 8004112:	3201      	adds	r2, #1
 8004114:	e7f3      	b.n	80040fe <AESgcmFinal+0xfe>
 8004116:	ea21 71e1 	bic.w	r1, r1, r1, asr #31
 800411a:	eba0 0081 	sub.w	r0, r0, r1, lsl #2
 800411e:	2200      	movs	r2, #0
 8004120:	0089      	lsls	r1, r1, #2
 8004122:	4282      	cmp	r2, r0
 8004124:	da11      	bge.n	800414a <AESgcmFinal+0x14a>
 8004126:	ad08      	add	r5, sp, #32
 8004128:	440d      	add	r5, r1
 800412a:	00d7      	lsls	r7, r2, #3
 800412c:	f855 5c20 	ldr.w	r5, [r5, #-32]
 8004130:	f1c7 0718 	rsb	r7, r7, #24
 8004134:	fa25 f707 	lsr.w	r7, r5, r7
 8004138:	6aa5      	ldr	r5, [r4, #40]	; 0x28
 800413a:	440d      	add	r5, r1
 800413c:	5cae      	ldrb	r6, [r5, r2]
 800413e:	ea87 0506 	eor.w	r5, r7, r6
 8004142:	b2ed      	uxtb	r5, r5
 8004144:	432b      	orrs	r3, r5
 8004146:	3201      	adds	r2, #1
 8004148:	e7eb      	b.n	8004122 <AESgcmFinal+0x122>
 800414a:	2b00      	cmp	r3, #0
 800414c:	f240 30eb 	movw	r0, #1003	; 0x3eb
 8004150:	bf18      	it	ne
 8004152:	f44f 707b 	movne.w	r0, #1004	; 0x3ec
 8004156:	e004      	b.n	8004162 <AESgcmFinal+0x162>
 8004158:	f640 401f 	movw	r0, #3103	; 0xc1f
 800415c:	e001      	b.n	8004162 <AESgcmFinal+0x162>
 800415e:	f44f 6042 	mov.w	r0, #3104	; 0xc20
 8004162:	b008      	add	sp, #32
 8004164:	e8bd 81f0 	ldmia.w	sp!, {r4, r5, r6, r7, r8, pc}

08004168 <AESccmFinal>:
 8004168:	6902      	ldr	r2, [r0, #16]
 800416a:	2a0b      	cmp	r2, #11
 800416c:	4603      	mov	r3, r0
 800416e:	dd0a      	ble.n	8004186 <AESccmFinal+0x1e>
 8004170:	f1c2 020f 	rsb	r2, r2, #15
 8004174:	f04f 30ff 	mov.w	r0, #4294967295
 8004178:	00d2      	lsls	r2, r2, #3
 800417a:	fa00 f202 	lsl.w	r2, r0, r2
 800417e:	6a18      	ldr	r0, [r3, #32]
 8004180:	4010      	ands	r0, r2
 8004182:	6218      	str	r0, [r3, #32]
 8004184:	e001      	b.n	800418a <AESccmFinal+0x22>
 8004186:	2200      	movs	r2, #0
 8004188:	6202      	str	r2, [r0, #32]
 800418a:	f103 0014 	add.w	r0, r3, #20
 800418e:	f103 0248 	add.w	r2, r3, #72	; 0x48
 8004192:	6b5b      	ldr	r3, [r3, #52]	; 0x34
 8004194:	f7ff bc12 	b.w	80039bc <AES_general_SW_enc>

08004198 <DRBG_AES128_Bcc>:
 8004198:	e92d 43f0 	stmdb	sp!, {r4, r5, r6, r7, r8, r9, lr}
 800419c:	461c      	mov	r4, r3
 800419e:	2300      	movs	r3, #0
 80041a0:	b085      	sub	sp, #20
 80041a2:	4681      	mov	r9, r0
 80041a4:	460f      	mov	r7, r1
 80041a6:	6023      	str	r3, [r4, #0]
 80041a8:	6063      	str	r3, [r4, #4]
 80041aa:	60a3      	str	r3, [r4, #8]
 80041ac:	60e3      	str	r3, [r4, #12]
 80041ae:	ea4f 1812 	mov.w	r8, r2, lsr #4
 80041b2:	461d      	mov	r5, r3
 80041b4:	4545      	cmp	r5, r8
 80041b6:	d012      	beq.n	80041de <DRBG_AES128_Bcc+0x46>
 80041b8:	eb07 1205 	add.w	r2, r7, r5, lsl #4
 80041bc:	2300      	movs	r3, #0
 80041be:	58d6      	ldr	r6, [r2, r3]
 80041c0:	ba31      	rev	r1, r6
 80041c2:	58e6      	ldr	r6, [r4, r3]
 80041c4:	404e      	eors	r6, r1
 80041c6:	f84d 6003 	str.w	r6, [sp, r3]
 80041ca:	3304      	adds	r3, #4
 80041cc:	2b10      	cmp	r3, #16
 80041ce:	d1f6      	bne.n	80041be <DRBG_AES128_Bcc+0x26>
 80041d0:	4668      	mov	r0, sp
 80041d2:	4621      	mov	r1, r4
 80041d4:	464a      	mov	r2, r9
 80041d6:	f7ff fbf1 	bl	80039bc <AES_general_SW_enc>
 80041da:	3501      	adds	r5, #1
 80041dc:	e7ea      	b.n	80041b4 <DRBG_AES128_Bcc+0x1c>
 80041de:	b005      	add	sp, #20
 80041e0:	e8bd 83f0 	ldmia.w	sp!, {r4, r5, r6, r7, r8, r9, pc}

080041e4 <DRBG_AES128_Update>:
 80041e4:	b570      	push	{r4, r5, r6, lr}
 80041e6:	4604      	mov	r4, r0
 80041e8:	b088      	sub	sp, #32
 80041ea:	460d      	mov	r5, r1
 80041ec:	4616      	mov	r6, r2
 80041ee:	f7ff fb71 	bl	80038d4 <DRBG_AES128_Increment_v>
 80041f2:	4669      	mov	r1, sp
 80041f4:	462a      	mov	r2, r5
 80041f6:	2310      	movs	r3, #16
 80041f8:	4620      	mov	r0, r4
 80041fa:	f7ff fbdf 	bl	80039bc <AES_general_SW_enc>
 80041fe:	4620      	mov	r0, r4
 8004200:	f7ff fb68 	bl	80038d4 <DRBG_AES128_Increment_v>
 8004204:	2310      	movs	r3, #16
 8004206:	4620      	mov	r0, r4
 8004208:	a904      	add	r1, sp, #16
 800420a:	462a      	mov	r2, r5
 800420c:	f7ff fbd6 	bl	80039bc <AES_general_SW_enc>
 8004210:	2300      	movs	r3, #0
 8004212:	58f1      	ldr	r1, [r6, r3]
 8004214:	f85d 2003 	ldr.w	r2, [sp, r3]
 8004218:	18e0      	adds	r0, r4, r3
 800421a:	3304      	adds	r3, #4
 800421c:	404a      	eors	r2, r1
 800421e:	2b10      	cmp	r3, #16
 8004220:	6102      	str	r2, [r0, #16]
 8004222:	d1f6      	bne.n	8004212 <DRBG_AES128_Update+0x2e>
 8004224:	2300      	movs	r3, #0
 8004226:	aa00      	add	r2, sp, #0
 8004228:	18f1      	adds	r1, r6, r3
 800422a:	441a      	add	r2, r3
 800422c:	6909      	ldr	r1, [r1, #16]
 800422e:	6912      	ldr	r2, [r2, #16]
 8004230:	404a      	eors	r2, r1
 8004232:	50e2      	str	r2, [r4, r3]
 8004234:	3304      	adds	r3, #4
 8004236:	2b10      	cmp	r3, #16
 8004238:	d1f5      	bne.n	8004226 <DRBG_AES128_Update+0x42>
 800423a:	b008      	add	sp, #32
 800423c:	bd70      	pop	{r4, r5, r6, pc}
	...

08004240 <DRBG_AES128_Block_cipher_df.constprop.37>:
 8004240:	e92d 41f0 	stmdb	sp!, {r4, r5, r6, r7, r8, lr}
 8004244:	460d      	mov	r5, r1
 8004246:	b0fc      	sub	sp, #496	; 0x1f0
 8004248:	4680      	mov	r8, r0
 800424a:	492f      	ldr	r1, [pc, #188]	; (8004308 <DRBG_AES128_Block_cipher_df.constprop.37+0xc8>)
 800424c:	f105 0419 	add.w	r4, r5, #25
 8004250:	4617      	mov	r7, r2
 8004252:	a850      	add	r0, sp, #320	; 0x140
 8004254:	22b0      	movs	r2, #176	; 0xb0
 8004256:	f00a fb4f 	bl	800e8f8 <memcpy>
 800425a:	f014 060f 	ands.w	r6, r4, #15
 800425e:	ba2b      	rev	r3, r5
 8004260:	bf18      	it	ne
 8004262:	f1c6 0610 	rsbne	r6, r6, #16
 8004266:	930c      	str	r3, [sp, #48]	; 0x30
 8004268:	462a      	mov	r2, r5
 800426a:	f04f 5300 	mov.w	r3, #536870912	; 0x20000000
 800426e:	a80e      	add	r0, sp, #56	; 0x38
 8004270:	4641      	mov	r1, r8
 8004272:	930d      	str	r3, [sp, #52]	; 0x34
 8004274:	bf18      	it	ne
 8004276:	19a4      	addne	r4, r4, r6
 8004278:	f00a fb3e 	bl	800e8f8 <memcpy>
 800427c:	ab08      	add	r3, sp, #32
 800427e:	442b      	add	r3, r5
 8004280:	2280      	movs	r2, #128	; 0x80
 8004282:	761a      	strb	r2, [r3, #24]
 8004284:	2300      	movs	r3, #0
 8004286:	42b3      	cmp	r3, r6
 8004288:	d006      	beq.n	8004298 <DRBG_AES128_Block_cipher_df.constprop.37+0x58>
 800428a:	aa08      	add	r2, sp, #32
 800428c:	442a      	add	r2, r5
 800428e:	441a      	add	r2, r3
 8004290:	2100      	movs	r1, #0
 8004292:	7651      	strb	r1, [r2, #25]
 8004294:	3301      	adds	r3, #1
 8004296:	e7f6      	b.n	8004286 <DRBG_AES128_Block_cipher_df.constprop.37+0x46>
 8004298:	2100      	movs	r1, #0
 800429a:	2210      	movs	r2, #16
 800429c:	a808      	add	r0, sp, #32
 800429e:	f00a fb50 	bl	800e942 <memset>
 80042a2:	4622      	mov	r2, r4
 80042a4:	a850      	add	r0, sp, #320	; 0x140
 80042a6:	a908      	add	r1, sp, #32
 80042a8:	466b      	mov	r3, sp
 80042aa:	f7ff ff75 	bl	8004198 <DRBG_AES128_Bcc>
 80042ae:	f89d 3023 	ldrb.w	r3, [sp, #35]	; 0x23
 80042b2:	3301      	adds	r3, #1
 80042b4:	4622      	mov	r2, r4
 80042b6:	f88d 3023 	strb.w	r3, [sp, #35]	; 0x23
 80042ba:	a850      	add	r0, sp, #320	; 0x140
 80042bc:	ab04      	add	r3, sp, #16
 80042be:	a908      	add	r1, sp, #32
 80042c0:	f7ff ff6a 	bl	8004198 <DRBG_AES128_Bcc>
 80042c4:	4668      	mov	r0, sp
 80042c6:	a924      	add	r1, sp, #144	; 0x90
 80042c8:	2210      	movs	r2, #16
 80042ca:	f7fd fc65 	bl	8001b98 <AES_keyschedule_enc_LL>
 80042ce:	aa24      	add	r2, sp, #144	; 0x90
 80042d0:	a804      	add	r0, sp, #16
 80042d2:	4639      	mov	r1, r7
 80042d4:	2310      	movs	r3, #16
 80042d6:	f7ff fb71 	bl	80039bc <AES_general_SW_enc>
 80042da:	ac04      	add	r4, sp, #16
 80042dc:	463a      	mov	r2, r7
 80042de:	f107 0510 	add.w	r5, r7, #16
 80042e2:	6810      	ldr	r0, [r2, #0]
 80042e4:	6851      	ldr	r1, [r2, #4]
 80042e6:	4623      	mov	r3, r4
 80042e8:	c303      	stmia	r3!, {r0, r1}
 80042ea:	3208      	adds	r2, #8
 80042ec:	42aa      	cmp	r2, r5
 80042ee:	461c      	mov	r4, r3
 80042f0:	d1f7      	bne.n	80042e2 <DRBG_AES128_Block_cipher_df.constprop.37+0xa2>
 80042f2:	a804      	add	r0, sp, #16
 80042f4:	4611      	mov	r1, r2
 80042f6:	2310      	movs	r3, #16
 80042f8:	aa24      	add	r2, sp, #144	; 0x90
 80042fa:	f7ff fb5f 	bl	80039bc <AES_general_SW_enc>
 80042fe:	2000      	movs	r0, #0
 8004300:	b07c      	add	sp, #496	; 0x1f0
 8004302:	e8bd 81f0 	ldmia.w	sp!, {r4, r5, r6, r7, r8, pc}
 8004306:	bf00      	nop
 8004308:	0800eb1c 	.word	0x0800eb1c

0800430c <crl_DRBG_AES128_Generate.part.31>:
 800430c:	e92d 41f0 	stmdb	sp!, {r4, r5, r6, r7, r8, lr}
 8004310:	b0b8      	sub	sp, #224	; 0xe0
 8004312:	460f      	mov	r7, r1
 8004314:	1e19      	subs	r1, r3, #0
 8004316:	4605      	mov	r5, r0
 8004318:	f8dd 80f8 	ldr.w	r8, [sp, #248]	; 0xf8
 800431c:	dd12      	ble.n	8004344 <crl_DRBG_AES128_Generate.part.31+0x38>
 800431e:	4610      	mov	r0, r2
 8004320:	aa04      	add	r2, sp, #16
 8004322:	f7ff ff8d 	bl	8004240 <DRBG_AES128_Block_cipher_df.constprop.37>
 8004326:	2800      	cmp	r0, #0
 8004328:	f040 808d 	bne.w	8004446 <crl_DRBG_AES128_Generate.part.31+0x13a>
 800432c:	f105 0010 	add.w	r0, r5, #16
 8004330:	a90c      	add	r1, sp, #48	; 0x30
 8004332:	2210      	movs	r2, #16
 8004334:	f7fd fc30 	bl	8001b98 <AES_keyschedule_enc_LL>
 8004338:	4628      	mov	r0, r5
 800433a:	a90c      	add	r1, sp, #48	; 0x30
 800433c:	aa04      	add	r2, sp, #16
 800433e:	f7ff ff51 	bl	80041e4 <DRBG_AES128_Update>
 8004342:	e004      	b.n	800434e <crl_DRBG_AES128_Generate.part.31+0x42>
 8004344:	a804      	add	r0, sp, #16
 8004346:	2100      	movs	r1, #0
 8004348:	2220      	movs	r2, #32
 800434a:	f00a fafa 	bl	800e942 <memset>
 800434e:	4c3f      	ldr	r4, [pc, #252]	; (800444c <crl_DRBG_AES128_Generate.part.31+0x140>)
 8004350:	f105 0010 	add.w	r0, r5, #16
 8004354:	a90c      	add	r1, sp, #48	; 0x30
 8004356:	2210      	movs	r2, #16
 8004358:	ea08 0404 	and.w	r4, r8, r4
 800435c:	f7fd fc1c 	bl	8001b98 <AES_keyschedule_enc_LL>
 8004360:	2c00      	cmp	r4, #0
 8004362:	da03      	bge.n	800436c <crl_DRBG_AES128_Generate.part.31+0x60>
 8004364:	3c01      	subs	r4, #1
 8004366:	f064 040f 	orn	r4, r4, #15
 800436a:	3401      	adds	r4, #1
 800436c:	2610      	movs	r6, #16
 800436e:	4546      	cmp	r6, r8
 8004370:	dc15      	bgt.n	800439e <crl_DRBG_AES128_Generate.part.31+0x92>
 8004372:	4628      	mov	r0, r5
 8004374:	f7ff faae 	bl	80038d4 <DRBG_AES128_Increment_v>
 8004378:	2310      	movs	r3, #16
 800437a:	4628      	mov	r0, r5
 800437c:	4669      	mov	r1, sp
 800437e:	aa0c      	add	r2, sp, #48	; 0x30
 8004380:	f7ff fb1c 	bl	80039bc <AES_general_SW_enc>
 8004384:	2300      	movs	r3, #0
 8004386:	f85d 2003 	ldr.w	r2, [sp, r3]
 800438a:	19b9      	adds	r1, r7, r6
 800438c:	4419      	add	r1, r3
 800438e:	3304      	adds	r3, #4
 8004390:	ba12      	rev	r2, r2
 8004392:	2b10      	cmp	r3, #16
 8004394:	f841 2c10 	str.w	r2, [r1, #-16]
 8004398:	d1f5      	bne.n	8004386 <crl_DRBG_AES128_Generate.part.31+0x7a>
 800439a:	3610      	adds	r6, #16
 800439c:	e7e7      	b.n	800436e <crl_DRBG_AES128_Generate.part.31+0x62>
 800439e:	b95c      	cbnz	r4, 80043b8 <crl_DRBG_AES128_Generate.part.31+0xac>
 80043a0:	aa04      	add	r2, sp, #16
 80043a2:	4628      	mov	r0, r5
 80043a4:	a90c      	add	r1, sp, #48	; 0x30
 80043a6:	f7ff ff1d 	bl	80041e4 <DRBG_AES128_Update>
 80043aa:	6a2b      	ldr	r3, [r5, #32]
 80043ac:	1c5a      	adds	r2, r3, #1
 80043ae:	d048      	beq.n	8004442 <crl_DRBG_AES128_Generate.part.31+0x136>
 80043b0:	3301      	adds	r3, #1
 80043b2:	622b      	str	r3, [r5, #32]
 80043b4:	2000      	movs	r0, #0
 80043b6:	e046      	b.n	8004446 <crl_DRBG_AES128_Generate.part.31+0x13a>
 80043b8:	4628      	mov	r0, r5
 80043ba:	f7ff fa8b 	bl	80038d4 <DRBG_AES128_Increment_v>
 80043be:	aa0c      	add	r2, sp, #48	; 0x30
 80043c0:	2310      	movs	r3, #16
 80043c2:	4628      	mov	r0, r5
 80043c4:	4669      	mov	r1, sp
 80043c6:	f7ff faf9 	bl	80039bc <AES_general_SW_enc>
 80043ca:	2204      	movs	r2, #4
 80043cc:	fb94 f2f2 	sdiv	r2, r4, r2
 80043d0:	2300      	movs	r3, #0
 80043d2:	4293      	cmp	r3, r2
 80043d4:	da09      	bge.n	80043ea <crl_DRBG_AES128_Generate.part.31+0xde>
 80043d6:	f85d 1023 	ldr.w	r1, [sp, r3, lsl #2]
 80043da:	19b8      	adds	r0, r7, r6
 80043dc:	eb00 0083 	add.w	r0, r0, r3, lsl #2
 80043e0:	ba09      	rev	r1, r1
 80043e2:	f840 1c10 	str.w	r1, [r0, #-16]
 80043e6:	3301      	adds	r3, #1
 80043e8:	e7f3      	b.n	80043d2 <crl_DRBG_AES128_Generate.part.31+0xc6>
 80043ea:	07a3      	lsls	r3, r4, #30
 80043ec:	ea22 72e2 	bic.w	r2, r2, r2, asr #31
 80043f0:	d0d6      	beq.n	80043a0 <crl_DRBG_AES128_Generate.part.31+0x94>
 80043f2:	4b17      	ldr	r3, [pc, #92]	; (8004450 <crl_DRBG_AES128_Generate.part.31+0x144>)
 80043f4:	4023      	ands	r3, r4
 80043f6:	2b00      	cmp	r3, #0
 80043f8:	da03      	bge.n	8004402 <crl_DRBG_AES128_Generate.part.31+0xf6>
 80043fa:	3b01      	subs	r3, #1
 80043fc:	f063 0303 	orn	r3, r3, #3
 8004400:	3301      	adds	r3, #1
 8004402:	0092      	lsls	r2, r2, #2
 8004404:	a838      	add	r0, sp, #224	; 0xe0
 8004406:	4410      	add	r0, r2
 8004408:	f1c3 0104 	rsb	r1, r3, #4
 800440c:	f850 4ce0 	ldr.w	r4, [r0, #-224]
 8004410:	00c9      	lsls	r1, r1, #3
 8004412:	fa24 f101 	lsr.w	r1, r4, r1
 8004416:	3e10      	subs	r6, #16
 8004418:	f840 1ce0 	str.w	r1, [r0, #-224]
 800441c:	4416      	add	r6, r2
 800441e:	18f8      	adds	r0, r7, r3
 8004420:	4430      	add	r0, r6
 8004422:	3b02      	subs	r3, #2
 8004424:	f800 1c01 	strb.w	r1, [r0, #-1]
 8004428:	2b00      	cmp	r3, #0
 800442a:	dbb9      	blt.n	80043a0 <crl_DRBG_AES128_Generate.part.31+0x94>
 800442c:	a838      	add	r0, sp, #224	; 0xe0
 800442e:	4410      	add	r0, r2
 8004430:	f850 1ce0 	ldr.w	r1, [r0, #-224]
 8004434:	0a09      	lsrs	r1, r1, #8
 8004436:	f840 1ce0 	str.w	r1, [r0, #-224]
 800443a:	19b8      	adds	r0, r7, r6
 800443c:	54c1      	strb	r1, [r0, r3]
 800443e:	3b01      	subs	r3, #1
 8004440:	e7f2      	b.n	8004428 <crl_DRBG_AES128_Generate.part.31+0x11c>
 8004442:	f241 7073 	movw	r0, #6003	; 0x1773
 8004446:	b038      	add	sp, #224	; 0xe0
 8004448:	e8bd 81f0 	ldmia.w	sp!, {r4, r5, r6, r7, r8, pc}
 800444c:	8000000f 	.word	0x8000000f
 8004450:	80000003 	.word	0x80000003

08004454 <AES_keyschedule_dec>:
 8004454:	b5f8      	push	{r3, r4, r5, r6, r7, lr}
 8004456:	4615      	mov	r5, r2
 8004458:	460c      	mov	r4, r1
 800445a:	f7ff fa9e 	bl	800399a <AES_keyschedule_enc>
 800445e:	10ea      	asrs	r2, r5, #3
 8004460:	3203      	adds	r2, #3
 8004462:	0052      	lsls	r2, r2, #1
 8004464:	2501      	movs	r5, #1
 8004466:	4295      	cmp	r5, r2
 8004468:	da6c      	bge.n	8004544 <AES_keyschedule_dec+0xf0>
 800446a:	f854 1f10 	ldr.w	r1, [r4, #16]!
 800446e:	4836      	ldr	r0, [pc, #216]	; (8004548 <AES_keyschedule_dec+0xf4>)
 8004470:	4b36      	ldr	r3, [pc, #216]	; (800454c <AES_keyschedule_dec+0xf8>)
 8004472:	b2ce      	uxtb	r6, r1
 8004474:	3501      	adds	r5, #1
 8004476:	5d86      	ldrb	r6, [r0, r6]
 8004478:	f853 7026 	ldr.w	r7, [r3, r6, lsl #2]
 800447c:	0e0e      	lsrs	r6, r1, #24
 800447e:	5d86      	ldrb	r6, [r0, r6]
 8004480:	f853 6026 	ldr.w	r6, [r3, r6, lsl #2]
 8004484:	ea86 6637 	eor.w	r6, r6, r7, ror #24
 8004488:	f3c1 4707 	ubfx	r7, r1, #16, #8
 800448c:	f3c1 2107 	ubfx	r1, r1, #8, #8
 8004490:	5dc7      	ldrb	r7, [r0, r7]
 8004492:	5c41      	ldrb	r1, [r0, r1]
 8004494:	f853 7027 	ldr.w	r7, [r3, r7, lsl #2]
 8004498:	f853 1021 	ldr.w	r1, [r3, r1, lsl #2]
 800449c:	ea86 2637 	eor.w	r6, r6, r7, ror #8
 80044a0:	ea86 4131 	eor.w	r1, r6, r1, ror #16
 80044a4:	6021      	str	r1, [r4, #0]
 80044a6:	6861      	ldr	r1, [r4, #4]
 80044a8:	b2ce      	uxtb	r6, r1
 80044aa:	5d86      	ldrb	r6, [r0, r6]
 80044ac:	f853 7026 	ldr.w	r7, [r3, r6, lsl #2]
 80044b0:	0e0e      	lsrs	r6, r1, #24
 80044b2:	5d86      	ldrb	r6, [r0, r6]
 80044b4:	f853 6026 	ldr.w	r6, [r3, r6, lsl #2]
 80044b8:	ea86 6637 	eor.w	r6, r6, r7, ror #24
 80044bc:	f3c1 4707 	ubfx	r7, r1, #16, #8
 80044c0:	f3c1 2107 	ubfx	r1, r1, #8, #8
 80044c4:	5dc7      	ldrb	r7, [r0, r7]
 80044c6:	5c41      	ldrb	r1, [r0, r1]
 80044c8:	f853 7027 	ldr.w	r7, [r3, r7, lsl #2]
 80044cc:	f853 1021 	ldr.w	r1, [r3, r1, lsl #2]
 80044d0:	ea86 2637 	eor.w	r6, r6, r7, ror #8
 80044d4:	ea86 4131 	eor.w	r1, r6, r1, ror #16
 80044d8:	6061      	str	r1, [r4, #4]
 80044da:	68a1      	ldr	r1, [r4, #8]
 80044dc:	b2ce      	uxtb	r6, r1
 80044de:	5d86      	ldrb	r6, [r0, r6]
 80044e0:	f853 7026 	ldr.w	r7, [r3, r6, lsl #2]
 80044e4:	0e0e      	lsrs	r6, r1, #24
 80044e6:	5d86      	ldrb	r6, [r0, r6]
 80044e8:	f853 6026 	ldr.w	r6, [r3, r6, lsl #2]
 80044ec:	ea86 6637 	eor.w	r6, r6, r7, ror #24
 80044f0:	f3c1 4707 	ubfx	r7, r1, #16, #8
 80044f4:	f3c1 2107 	ubfx	r1, r1, #8, #8
 80044f8:	5dc7      	ldrb	r7, [r0, r7]
 80044fa:	5c41      	ldrb	r1, [r0, r1]
 80044fc:	f853 7027 	ldr.w	r7, [r3, r7, lsl #2]
 8004500:	f853 1021 	ldr.w	r1, [r3, r1, lsl #2]
 8004504:	ea86 2637 	eor.w	r6, r6, r7, ror #8
 8004508:	ea86 4131 	eor.w	r1, r6, r1, ror #16
 800450c:	60a1      	str	r1, [r4, #8]
 800450e:	68e1      	ldr	r1, [r4, #12]
 8004510:	b2ce      	uxtb	r6, r1
 8004512:	5d86      	ldrb	r6, [r0, r6]
 8004514:	f853 7026 	ldr.w	r7, [r3, r6, lsl #2]
 8004518:	0e0e      	lsrs	r6, r1, #24
 800451a:	5d86      	ldrb	r6, [r0, r6]
 800451c:	f853 6026 	ldr.w	r6, [r3, r6, lsl #2]
 8004520:	ea86 6637 	eor.w	r6, r6, r7, ror #24
 8004524:	f3c1 4707 	ubfx	r7, r1, #16, #8
 8004528:	f3c1 2107 	ubfx	r1, r1, #8, #8
 800452c:	5dc7      	ldrb	r7, [r0, r7]
 800452e:	5c41      	ldrb	r1, [r0, r1]
 8004530:	f853 7027 	ldr.w	r7, [r3, r7, lsl #2]
 8004534:	f853 3021 	ldr.w	r3, [r3, r1, lsl #2]
 8004538:	ea86 2637 	eor.w	r6, r6, r7, ror #8
 800453c:	ea86 4333 	eor.w	r3, r6, r3, ror #16
 8004540:	60e3      	str	r3, [r4, #12]
 8004542:	e790      	b.n	8004466 <AES_keyschedule_dec+0x12>
 8004544:	bdf8      	pop	{r3, r4, r5, r6, r7, pc}
 8004546:	bf00      	nop
 8004548:	0800ffc4 	.word	0x0800ffc4
 800454c:	0800f004 	.word	0x0800f004

08004550 <AESstdInit>:
 8004550:	e92d 47f0 	stmdb	sp!, {r4, r5, r6, r7, r8, r9, sl, lr}
 8004554:	460f      	mov	r7, r1
 8004556:	4604      	mov	r4, r0
 8004558:	4611      	mov	r1, r2
 800455a:	2800      	cmp	r0, #0
 800455c:	d05e      	beq.n	800461c <AESstdInit+0xcc>
 800455e:	2f00      	cmp	r7, #0
 8004560:	d05c      	beq.n	800461c <AESstdInit+0xcc>
 8004562:	b91a      	cbnz	r2, 800456c <AESstdInit+0x1c>
 8004564:	f003 0206 	and.w	r2, r3, #6
 8004568:	2a02      	cmp	r2, #2
 800456a:	d157      	bne.n	800461c <AESstdInit+0xcc>
 800456c:	6a62      	ldr	r2, [r4, #36]	; 0x24
 800456e:	f022 0008 	bic.w	r0, r2, #8
 8004572:	2810      	cmp	r0, #16
 8004574:	d001      	beq.n	800457a <AESstdInit+0x2a>
 8004576:	2a20      	cmp	r2, #32
 8004578:	d14c      	bne.n	8004614 <AESstdInit+0xc4>
 800457a:	f003 0c06 	and.w	ip, r3, #6
 800457e:	f1bc 0f02 	cmp.w	ip, #2
 8004582:	d003      	beq.n	800458c <AESstdInit+0x3c>
 8004584:	6920      	ldr	r0, [r4, #16]
 8004586:	3801      	subs	r0, #1
 8004588:	280f      	cmp	r0, #15
 800458a:	d843      	bhi.n	8004614 <AESstdInit+0xc4>
 800458c:	7920      	ldrb	r0, [r4, #4]
 800458e:	60e1      	str	r1, [r4, #12]
 8004590:	f020 0506 	bic.w	r5, r0, #6
 8004594:	f1bc 0f02 	cmp.w	ip, #2
 8004598:	7125      	strb	r5, [r4, #4]
 800459a:	d103      	bne.n	80045a4 <AESstdInit+0x54>
 800459c:	f010 0501 	ands.w	r5, r0, #1
 80045a0:	d026      	beq.n	80045f0 <AESstdInit+0xa0>
 80045a2:	e031      	b.n	8004608 <AESstdInit+0xb8>
 80045a4:	2600      	movs	r6, #0
 80045a6:	f8d4 9010 	ldr.w	r9, [r4, #16]
 80045aa:	6166      	str	r6, [r4, #20]
 80045ac:	61a6      	str	r6, [r4, #24]
 80045ae:	61e6      	str	r6, [r4, #28]
 80045b0:	6226      	str	r6, [r4, #32]
 80045b2:	454e      	cmp	r6, r9
 80045b4:	daf2      	bge.n	800459c <AESstdInit+0x4c>
 80045b6:	4d1b      	ldr	r5, [pc, #108]	; (8004624 <AESstdInit+0xd4>)
 80045b8:	f811 a006 	ldrb.w	sl, [r1, r6]
 80045bc:	f04f 0804 	mov.w	r8, #4
 80045c0:	4035      	ands	r5, r6
 80045c2:	fb96 f8f8 	sdiv	r8, r6, r8
 80045c6:	2d00      	cmp	r5, #0
 80045c8:	eb04 0888 	add.w	r8, r4, r8, lsl #2
 80045cc:	da03      	bge.n	80045d6 <AESstdInit+0x86>
 80045ce:	3d01      	subs	r5, #1
 80045d0:	f065 0503 	orn	r5, r5, #3
 80045d4:	3501      	adds	r5, #1
 80045d6:	f1c5 0503 	rsb	r5, r5, #3
 80045da:	00ed      	lsls	r5, r5, #3
 80045dc:	fa0a fa05 	lsl.w	sl, sl, r5
 80045e0:	f8d8 5014 	ldr.w	r5, [r8, #20]
 80045e4:	ea45 0a0a 	orr.w	sl, r5, sl
 80045e8:	f8c8 a014 	str.w	sl, [r8, #20]
 80045ec:	3601      	adds	r6, #1
 80045ee:	e7e0      	b.n	80045b2 <AESstdInit+0x62>
 80045f0:	f013 0f01 	tst.w	r3, #1
 80045f4:	60a7      	str	r7, [r4, #8]
 80045f6:	4638      	mov	r0, r7
 80045f8:	f104 0128 	add.w	r1, r4, #40	; 0x28
 80045fc:	d002      	beq.n	8004604 <AESstdInit+0xb4>
 80045fe:	f1bc 0f06 	cmp.w	ip, #6
 8004602:	d104      	bne.n	800460e <AESstdInit+0xbe>
 8004604:	f7ff f9c9 	bl	800399a <AES_keyschedule_enc>
 8004608:	2000      	movs	r0, #0
 800460a:	e8bd 87f0 	ldmia.w	sp!, {r4, r5, r6, r7, r8, r9, sl, pc}
 800460e:	f7ff ff21 	bl	8004454 <AES_keyschedule_dec>
 8004612:	e7f9      	b.n	8004608 <AESstdInit+0xb8>
 8004614:	f640 401f 	movw	r0, #3103	; 0xc1f
 8004618:	e8bd 87f0 	ldmia.w	sp!, {r4, r5, r6, r7, r8, r9, sl, pc}
 800461c:	f44f 6042 	mov.w	r0, #3104	; 0xc20
 8004620:	e8bd 87f0 	ldmia.w	sp!, {r4, r5, r6, r7, r8, r9, sl, pc}
 8004624:	80000003 	.word	0x80000003

08004628 <AES_XTS_Common_Init>:
 8004628:	b5f8      	push	{r3, r4, r5, r6, r7, lr}
 800462a:	460d      	mov	r5, r1
 800462c:	4617      	mov	r7, r2
 800462e:	461e      	mov	r6, r3
 8004630:	4604      	mov	r4, r0
 8004632:	2800      	cmp	r0, #0
 8004634:	d03b      	beq.n	80046ae <AES_XTS_Common_Init+0x86>
 8004636:	2900      	cmp	r1, #0
 8004638:	d039      	beq.n	80046ae <AES_XTS_Common_Init+0x86>
 800463a:	2a00      	cmp	r2, #0
 800463c:	d037      	beq.n	80046ae <AES_XTS_Common_Init+0x86>
 800463e:	6a42      	ldr	r2, [r0, #36]	; 0x24
 8004640:	2a10      	cmp	r2, #16
 8004642:	d001      	beq.n	8004648 <AES_XTS_Common_Init+0x20>
 8004644:	2a20      	cmp	r2, #32
 8004646:	d135      	bne.n	80046b4 <AES_XTS_Common_Init+0x8c>
 8004648:	7923      	ldrb	r3, [r4, #4]
 800464a:	60e7      	str	r7, [r4, #12]
 800464c:	f023 0106 	bic.w	r1, r3, #6
 8004650:	07db      	lsls	r3, r3, #31
 8004652:	7121      	strb	r1, [r4, #4]
 8004654:	60a5      	str	r5, [r4, #8]
 8004656:	d404      	bmi.n	8004662 <AES_XTS_Common_Init+0x3a>
 8004658:	18a8      	adds	r0, r5, r2
 800465a:	f504 718c 	add.w	r1, r4, #280	; 0x118
 800465e:	f7ff f99c 	bl	800399a <AES_keyschedule_enc>
 8004662:	2100      	movs	r1, #0
 8004664:	587b      	ldr	r3, [r7, r1]
 8004666:	1862      	adds	r2, r4, r1
 8004668:	3104      	adds	r1, #4
 800466a:	ba1b      	rev	r3, r3
 800466c:	2910      	cmp	r1, #16
 800466e:	6153      	str	r3, [r2, #20]
 8004670:	d1f8      	bne.n	8004664 <AES_XTS_Common_Init+0x3c>
 8004672:	f104 0014 	add.w	r0, r4, #20
 8004676:	4601      	mov	r1, r0
 8004678:	f504 728c 	add.w	r2, r4, #280	; 0x118
 800467c:	6a63      	ldr	r3, [r4, #36]	; 0x24
 800467e:	f7ff f99d 	bl	80039bc <AES_general_SW_enc>
 8004682:	7920      	ldrb	r0, [r4, #4]
 8004684:	f010 0701 	ands.w	r7, r0, #1
 8004688:	d10f      	bne.n	80046aa <AES_XTS_Common_Init+0x82>
 800468a:	b146      	cbz	r6, 800469e <AES_XTS_Common_Init+0x76>
 800468c:	2e01      	cmp	r6, #1
 800468e:	d10e      	bne.n	80046ae <AES_XTS_Common_Init+0x86>
 8004690:	4628      	mov	r0, r5
 8004692:	f104 0128 	add.w	r1, r4, #40	; 0x28
 8004696:	6a62      	ldr	r2, [r4, #36]	; 0x24
 8004698:	f7ff fedc 	bl	8004454 <AES_keyschedule_dec>
 800469c:	e005      	b.n	80046aa <AES_XTS_Common_Init+0x82>
 800469e:	4628      	mov	r0, r5
 80046a0:	f104 0128 	add.w	r1, r4, #40	; 0x28
 80046a4:	6a62      	ldr	r2, [r4, #36]	; 0x24
 80046a6:	f7ff f978 	bl	800399a <AES_keyschedule_enc>
 80046aa:	2000      	movs	r0, #0
 80046ac:	bdf8      	pop	{r3, r4, r5, r6, r7, pc}
 80046ae:	f44f 6042 	mov.w	r0, #3104	; 0xc20
 80046b2:	bdf8      	pop	{r3, r4, r5, r6, r7, pc}
 80046b4:	f640 401f 	movw	r0, #3103	; 0xc1f
 80046b8:	bdf8      	pop	{r3, r4, r5, r6, r7, pc}
	...

080046bc <AES_general_SW_dec>:
 80046bc:	e92d 4ff7 	stmdb	sp!, {r0, r1, r2, r4, r5, r6, r7, r8, r9, sl, fp, lr}
 80046c0:	2500      	movs	r5, #0
 80046c2:	9501      	str	r5, [sp, #4]
 80046c4:	4da6      	ldr	r5, [pc, #664]	; (8004960 <AES_general_SW_dec+0x2a4>)
 80046c6:	2601      	movs	r6, #1
 80046c8:	602e      	str	r6, [r5, #0]
 80046ca:	682d      	ldr	r5, [r5, #0]
 80046cc:	9501      	str	r5, [sp, #4]
 80046ce:	4da5      	ldr	r5, [pc, #660]	; (8004964 <AES_general_SW_dec+0x2a8>)
 80046d0:	682e      	ldr	r6, [r5, #0]
 80046d2:	9601      	str	r6, [sp, #4]
 80046d4:	10db      	asrs	r3, r3, #3
 80046d6:	9e01      	ldr	r6, [sp, #4]
 80046d8:	f103 0903 	add.w	r9, r3, #3
 80046dc:	ea4f 1349 	mov.w	r3, r9, lsl #5
 80046e0:	3601      	adds	r6, #1
 80046e2:	468b      	mov	fp, r1
 80046e4:	eb02 0403 	add.w	r4, r2, r3
 80046e8:	d117      	bne.n	800471a <AES_general_SW_dec+0x5e>
 80046ea:	9e01      	ldr	r6, [sp, #4]
 80046ec:	602e      	str	r6, [r5, #0]
 80046ee:	682d      	ldr	r5, [r5, #0]
 80046f0:	9501      	str	r5, [sp, #4]
 80046f2:	9e01      	ldr	r6, [sp, #4]
 80046f4:	58d2      	ldr	r2, [r2, r3]
 80046f6:	6867      	ldr	r7, [r4, #4]
 80046f8:	6803      	ldr	r3, [r0, #0]
 80046fa:	6845      	ldr	r5, [r0, #4]
 80046fc:	b956      	cbnz	r6, 8004714 <AES_general_SW_dec+0x58>
 80046fe:	ea82 0c03 	eor.w	ip, r2, r3
 8004702:	6883      	ldr	r3, [r0, #8]
 8004704:	68a2      	ldr	r2, [r4, #8]
 8004706:	68c0      	ldr	r0, [r0, #12]
 8004708:	405a      	eors	r2, r3
 800470a:	68e3      	ldr	r3, [r4, #12]
 800470c:	406f      	eors	r7, r5
 800470e:	ea83 0800 	eor.w	r8, r3, r0
 8004712:	e00b      	b.n	800472c <AES_general_SW_dec+0x70>
 8004714:	ea87 0c05 	eor.w	ip, r7, r5
 8004718:	e005      	b.n	8004726 <AES_general_SW_dec+0x6a>
 800471a:	6866      	ldr	r6, [r4, #4]
 800471c:	6845      	ldr	r5, [r0, #4]
 800471e:	58d2      	ldr	r2, [r2, r3]
 8004720:	6803      	ldr	r3, [r0, #0]
 8004722:	ea86 0c05 	eor.w	ip, r6, r5
 8004726:	405a      	eors	r2, r3
 8004728:	4690      	mov	r8, r2
 800472a:	4617      	mov	r7, r2
 800472c:	4b8e      	ldr	r3, [pc, #568]	; (8004968 <AES_general_SW_dec+0x2ac>)
 800472e:	3c20      	subs	r4, #32
 8004730:	ea4f 601c 	mov.w	r0, ip, lsr #24
 8004734:	b2fd      	uxtb	r5, r7
 8004736:	f853 6020 	ldr.w	r6, [r3, r0, lsl #2]
 800473a:	6920      	ldr	r0, [r4, #16]
 800473c:	4070      	eors	r0, r6
 800473e:	f853 6025 	ldr.w	r6, [r3, r5, lsl #2]
 8004742:	f3c8 4507 	ubfx	r5, r8, #16, #8
 8004746:	ea80 6036 	eor.w	r0, r0, r6, ror #24
 800474a:	f853 6025 	ldr.w	r6, [r3, r5, lsl #2]
 800474e:	ea80 2636 	eor.w	r6, r0, r6, ror #8
 8004752:	f3c2 2007 	ubfx	r0, r2, #8, #8
 8004756:	fa5f fa88 	uxtb.w	sl, r8
 800475a:	f853 0020 	ldr.w	r0, [r3, r0, lsl #2]
 800475e:	f853 a02a 	ldr.w	sl, [r3, sl, lsl #2]
 8004762:	ea86 4630 	eor.w	r6, r6, r0, ror #16
 8004766:	0e38      	lsrs	r0, r7, #24
 8004768:	f109 39ff 	add.w	r9, r9, #4294967295
 800476c:	f853 5020 	ldr.w	r5, [r3, r0, lsl #2]
 8004770:	6960      	ldr	r0, [r4, #20]
 8004772:	4068      	eors	r0, r5
 8004774:	b2d5      	uxtb	r5, r2
 8004776:	f1b9 0f00 	cmp.w	r9, #0
 800477a:	f853 5025 	ldr.w	r5, [r3, r5, lsl #2]
 800477e:	ea80 6035 	eor.w	r0, r0, r5, ror #24
 8004782:	f3cc 4507 	ubfx	r5, ip, #16, #8
 8004786:	f853 5025 	ldr.w	r5, [r3, r5, lsl #2]
 800478a:	ea80 2035 	eor.w	r0, r0, r5, ror #8
 800478e:	f3c8 2507 	ubfx	r5, r8, #8, #8
 8004792:	ea4f 6818 	mov.w	r8, r8, lsr #24
 8004796:	f853 5025 	ldr.w	r5, [r3, r5, lsl #2]
 800479a:	f853 8028 	ldr.w	r8, [r3, r8, lsl #2]
 800479e:	ea80 4035 	eor.w	r0, r0, r5, ror #16
 80047a2:	ea4f 6512 	mov.w	r5, r2, lsr #24
 80047a6:	f3c2 4207 	ubfx	r2, r2, #16, #8
 80047aa:	f853 1025 	ldr.w	r1, [r3, r5, lsl #2]
 80047ae:	69a5      	ldr	r5, [r4, #24]
 80047b0:	f853 2022 	ldr.w	r2, [r3, r2, lsl #2]
 80047b4:	ea81 0105 	eor.w	r1, r1, r5
 80047b8:	ea81 653a 	eor.w	r5, r1, sl, ror #24
 80047bc:	f3c7 4a07 	ubfx	sl, r7, #16, #8
 80047c0:	69e1      	ldr	r1, [r4, #28]
 80047c2:	f853 a02a 	ldr.w	sl, [r3, sl, lsl #2]
 80047c6:	ea85 253a 	eor.w	r5, r5, sl, ror #8
 80047ca:	f3cc 2a07 	ubfx	sl, ip, #8, #8
 80047ce:	fa5f fc8c 	uxtb.w	ip, ip
 80047d2:	ea88 0801 	eor.w	r8, r8, r1
 80047d6:	f853 c02c 	ldr.w	ip, [r3, ip, lsl #2]
 80047da:	f853 a02a 	ldr.w	sl, [r3, sl, lsl #2]
 80047de:	f3c7 2707 	ubfx	r7, r7, #8, #8
 80047e2:	ea88 683c 	eor.w	r8, r8, ip, ror #24
 80047e6:	ea88 2832 	eor.w	r8, r8, r2, ror #8
 80047ea:	f853 2027 	ldr.w	r2, [r3, r7, lsl #2]
 80047ee:	ea85 453a 	eor.w	r5, r5, sl, ror #16
 80047f2:	ea88 4832 	eor.w	r8, r8, r2, ror #16
 80047f6:	ea4f 6216 	mov.w	r2, r6, lsr #24
 80047fa:	dd5a      	ble.n	80048b2 <AES_general_SW_dec+0x1f6>
 80047fc:	f853 7022 	ldr.w	r7, [r3, r2, lsl #2]
 8004800:	6822      	ldr	r2, [r4, #0]
 8004802:	68a1      	ldr	r1, [r4, #8]
 8004804:	407a      	eors	r2, r7
 8004806:	b2c7      	uxtb	r7, r0
 8004808:	fa5f fa88 	uxtb.w	sl, r8
 800480c:	f853 7027 	ldr.w	r7, [r3, r7, lsl #2]
 8004810:	f853 a02a 	ldr.w	sl, [r3, sl, lsl #2]
 8004814:	ea82 6237 	eor.w	r2, r2, r7, ror #24
 8004818:	f3c8 4707 	ubfx	r7, r8, #16, #8
 800481c:	f853 7027 	ldr.w	r7, [r3, r7, lsl #2]
 8004820:	ea82 2c37 	eor.w	ip, r2, r7, ror #8
 8004824:	f3c5 2207 	ubfx	r2, r5, #8, #8
 8004828:	f853 2022 	ldr.w	r2, [r3, r2, lsl #2]
 800482c:	ea8c 4c32 	eor.w	ip, ip, r2, ror #16
 8004830:	0e02      	lsrs	r2, r0, #24
 8004832:	f853 7022 	ldr.w	r7, [r3, r2, lsl #2]
 8004836:	6862      	ldr	r2, [r4, #4]
 8004838:	407a      	eors	r2, r7
 800483a:	b2ef      	uxtb	r7, r5
 800483c:	f853 7027 	ldr.w	r7, [r3, r7, lsl #2]
 8004840:	ea82 6237 	eor.w	r2, r2, r7, ror #24
 8004844:	f3c6 4707 	ubfx	r7, r6, #16, #8
 8004848:	f853 7027 	ldr.w	r7, [r3, r7, lsl #2]
 800484c:	ea82 2737 	eor.w	r7, r2, r7, ror #8
 8004850:	f3c8 2207 	ubfx	r2, r8, #8, #8
 8004854:	ea4f 6818 	mov.w	r8, r8, lsr #24
 8004858:	f853 2022 	ldr.w	r2, [r3, r2, lsl #2]
 800485c:	f853 8028 	ldr.w	r8, [r3, r8, lsl #2]
 8004860:	ea87 4732 	eor.w	r7, r7, r2, ror #16
 8004864:	0e2a      	lsrs	r2, r5, #24
 8004866:	f3c5 4507 	ubfx	r5, r5, #16, #8
 800486a:	f853 2022 	ldr.w	r2, [r3, r2, lsl #2]
 800486e:	f853 5025 	ldr.w	r5, [r3, r5, lsl #2]
 8004872:	404a      	eors	r2, r1
 8004874:	ea82 623a 	eor.w	r2, r2, sl, ror #24
 8004878:	f3c0 4a07 	ubfx	sl, r0, #16, #8
 800487c:	68e1      	ldr	r1, [r4, #12]
 800487e:	f853 a02a 	ldr.w	sl, [r3, sl, lsl #2]
 8004882:	ea82 223a 	eor.w	r2, r2, sl, ror #8
 8004886:	f3c6 2a07 	ubfx	sl, r6, #8, #8
 800488a:	b2f6      	uxtb	r6, r6
 800488c:	f3c0 2007 	ubfx	r0, r0, #8, #8
 8004890:	f853 6026 	ldr.w	r6, [r3, r6, lsl #2]
 8004894:	f853 a02a 	ldr.w	sl, [r3, sl, lsl #2]
 8004898:	f853 3020 	ldr.w	r3, [r3, r0, lsl #2]
 800489c:	ea88 0801 	eor.w	r8, r8, r1
 80048a0:	ea88 6836 	eor.w	r8, r8, r6, ror #24
 80048a4:	ea88 2835 	eor.w	r8, r8, r5, ror #8
 80048a8:	ea82 423a 	eor.w	r2, r2, sl, ror #16
 80048ac:	ea88 4833 	eor.w	r8, r8, r3, ror #16
 80048b0:	e73c      	b.n	800472c <AES_general_SW_dec+0x70>
 80048b2:	4b2e      	ldr	r3, [pc, #184]	; (800496c <AES_general_SW_dec+0x2b0>)
 80048b4:	5c9f      	ldrb	r7, [r3, r2]
 80048b6:	b2c2      	uxtb	r2, r0
 80048b8:	5c9a      	ldrb	r2, [r3, r2]
 80048ba:	ea42 6707 	orr.w	r7, r2, r7, lsl #24
 80048be:	f3c8 4207 	ubfx	r2, r8, #16, #8
 80048c2:	5c9a      	ldrb	r2, [r3, r2]
 80048c4:	ea47 4702 	orr.w	r7, r7, r2, lsl #16
 80048c8:	f3c5 2207 	ubfx	r2, r5, #8, #8
 80048cc:	5c9a      	ldrb	r2, [r3, r2]
 80048ce:	ea47 2702 	orr.w	r7, r7, r2, lsl #8
 80048d2:	6822      	ldr	r2, [r4, #0]
 80048d4:	407a      	eors	r2, r7
 80048d6:	f8cb 2000 	str.w	r2, [fp]
 80048da:	0e02      	lsrs	r2, r0, #24
 80048dc:	5c9f      	ldrb	r7, [r3, r2]
 80048de:	b2ea      	uxtb	r2, r5
 80048e0:	5c9a      	ldrb	r2, [r3, r2]
 80048e2:	ea42 6707 	orr.w	r7, r2, r7, lsl #24
 80048e6:	f3c6 4207 	ubfx	r2, r6, #16, #8
 80048ea:	5c9a      	ldrb	r2, [r3, r2]
 80048ec:	ea47 4702 	orr.w	r7, r7, r2, lsl #16
 80048f0:	f3c8 2207 	ubfx	r2, r8, #8, #8
 80048f4:	5c9a      	ldrb	r2, [r3, r2]
 80048f6:	ea47 2702 	orr.w	r7, r7, r2, lsl #8
 80048fa:	6862      	ldr	r2, [r4, #4]
 80048fc:	407a      	eors	r2, r7
 80048fe:	f8cb 2004 	str.w	r2, [fp, #4]
 8004902:	0e2a      	lsrs	r2, r5, #24
 8004904:	f3c5 4507 	ubfx	r5, r5, #16, #8
 8004908:	5c9f      	ldrb	r7, [r3, r2]
 800490a:	5d5d      	ldrb	r5, [r3, r5]
 800490c:	fa5f f288 	uxtb.w	r2, r8
 8004910:	ea4f 6818 	mov.w	r8, r8, lsr #24
 8004914:	5c9a      	ldrb	r2, [r3, r2]
 8004916:	ea42 6707 	orr.w	r7, r2, r7, lsl #24
 800491a:	f3c0 4207 	ubfx	r2, r0, #16, #8
 800491e:	f3c0 2007 	ubfx	r0, r0, #8, #8
 8004922:	5c9a      	ldrb	r2, [r3, r2]
 8004924:	ea47 4702 	orr.w	r7, r7, r2, lsl #16
 8004928:	f3c6 2207 	ubfx	r2, r6, #8, #8
 800492c:	b2f6      	uxtb	r6, r6
 800492e:	5c9a      	ldrb	r2, [r3, r2]
 8004930:	ea47 2702 	orr.w	r7, r7, r2, lsl #8
 8004934:	68a2      	ldr	r2, [r4, #8]
 8004936:	407a      	eors	r2, r7
 8004938:	f8cb 2008 	str.w	r2, [fp, #8]
 800493c:	f813 7008 	ldrb.w	r7, [r3, r8]
 8004940:	5d9a      	ldrb	r2, [r3, r6]
 8004942:	5c1b      	ldrb	r3, [r3, r0]
 8004944:	ea42 6207 	orr.w	r2, r2, r7, lsl #24
 8004948:	ea42 4205 	orr.w	r2, r2, r5, lsl #16
 800494c:	ea42 2303 	orr.w	r3, r2, r3, lsl #8
 8004950:	68e2      	ldr	r2, [r4, #12]
 8004952:	4053      	eors	r3, r2
 8004954:	f8cb 300c 	str.w	r3, [fp, #12]
 8004958:	b003      	add	sp, #12
 800495a:	e8bd 8ff0 	ldmia.w	sp!, {r4, r5, r6, r7, r8, r9, sl, fp, pc}
 800495e:	bf00      	nop
 8004960:	40023008 	.word	0x40023008
 8004964:	40023000 	.word	0x40023000
 8004968:	0800f004 	.word	0x0800f004
 800496c:	0800fa38 	.word	0x0800fa38

08004970 <AES_XTS_Common_Append.part.5>:
 8004970:	e92d 4ff0 	stmdb	sp!, {r4, r5, r6, r7, r8, r9, sl, fp, lr}
 8004974:	469b      	mov	fp, r3
 8004976:	7903      	ldrb	r3, [r0, #4]
 8004978:	b091      	sub	sp, #68	; 0x44
 800497a:	f013 0f06 	tst.w	r3, #6
 800497e:	4604      	mov	r4, r0
 8004980:	9104      	str	r1, [sp, #16]
 8004982:	4692      	mov	sl, r2
 8004984:	9e1a      	ldr	r6, [sp, #104]	; 0x68
 8004986:	f040 8149 	bne.w	8004c1c <AES_XTS_Common_Append.part.5+0x2ac>
 800498a:	f012 0f0f 	tst.w	r2, #15
 800498e:	bf1d      	ittte	ne
 8004990:	f043 0304 	orrne.w	r3, r3, #4
 8004994:	f1a2 0720 	subne.w	r7, r2, #32
 8004998:	7103      	strbne	r3, [r0, #4]
 800499a:	4617      	moveq	r7, r2
 800499c:	2500      	movs	r5, #0
 800499e:	42bd      	cmp	r5, r7
 80049a0:	da39      	bge.n	8004a16 <AES_XTS_Common_Append.part.5+0xa6>
 80049a2:	2300      	movs	r3, #0
 80049a4:	9a04      	ldr	r2, [sp, #16]
 80049a6:	442a      	add	r2, r5
 80049a8:	18e1      	adds	r1, r4, r3
 80049aa:	58d2      	ldr	r2, [r2, r3]
 80049ac:	6949      	ldr	r1, [r1, #20]
 80049ae:	ba12      	rev	r2, r2
 80049b0:	404a      	eors	r2, r1
 80049b2:	4668      	mov	r0, sp
 80049b4:	f103 0120 	add.w	r1, r3, #32
 80049b8:	3304      	adds	r3, #4
 80049ba:	2b10      	cmp	r3, #16
 80049bc:	500a      	str	r2, [r1, r0]
 80049be:	d1f1      	bne.n	80049a4 <AES_XTS_Common_Append.part.5+0x34>
 80049c0:	b156      	cbz	r6, 80049d8 <AES_XTS_Common_Append.part.5+0x68>
 80049c2:	2e01      	cmp	r6, #1
 80049c4:	f040 812d 	bne.w	8004c22 <AES_XTS_Common_Append.part.5+0x2b2>
 80049c8:	a808      	add	r0, sp, #32
 80049ca:	4601      	mov	r1, r0
 80049cc:	f104 0228 	add.w	r2, r4, #40	; 0x28
 80049d0:	6a63      	ldr	r3, [r4, #36]	; 0x24
 80049d2:	f7ff fe73 	bl	80046bc <AES_general_SW_dec>
 80049d6:	e006      	b.n	80049e6 <AES_XTS_Common_Append.part.5+0x76>
 80049d8:	a808      	add	r0, sp, #32
 80049da:	4601      	mov	r1, r0
 80049dc:	f104 0228 	add.w	r2, r4, #40	; 0x28
 80049e0:	6a63      	ldr	r3, [r4, #36]	; 0x24
 80049e2:	f7fe ffeb 	bl	80039bc <AES_general_SW_enc>
 80049e6:	2300      	movs	r3, #0
 80049e8:	18e2      	adds	r2, r4, r3
 80049ea:	f10d 0c20 	add.w	ip, sp, #32
 80049ee:	6951      	ldr	r1, [r2, #20]
 80049f0:	f85c 2003 	ldr.w	r2, [ip, r3]
 80049f4:	404a      	eors	r2, r1
 80049f6:	eb0b 0105 	add.w	r1, fp, r5
 80049fa:	f84c 2003 	str.w	r2, [ip, r3]
 80049fe:	ba12      	rev	r2, r2
 8004a00:	50ca      	str	r2, [r1, r3]
 8004a02:	3304      	adds	r3, #4
 8004a04:	2b10      	cmp	r3, #16
 8004a06:	d1ef      	bne.n	80049e8 <AES_XTS_Common_Append.part.5+0x78>
 8004a08:	f104 0014 	add.w	r0, r4, #20
 8004a0c:	4601      	mov	r1, r0
 8004a0e:	f7fd f9cf 	bl	8001db0 <xts_new_tweak>
 8004a12:	3510      	adds	r5, #16
 8004a14:	e7c3      	b.n	800499e <AES_XTS_Common_Append.part.5+0x2e>
 8004a16:	4555      	cmp	r5, sl
 8004a18:	f280 8106 	bge.w	8004c28 <AES_XTS_Common_Append.part.5+0x2b8>
 8004a1c:	f104 0714 	add.w	r7, r4, #20
 8004a20:	f10d 0830 	add.w	r8, sp, #48	; 0x30
 8004a24:	4641      	mov	r1, r8
 8004a26:	4638      	mov	r0, r7
 8004a28:	f7fd f9c2 	bl	8001db0 <xts_new_tweak>
 8004a2c:	2e00      	cmp	r6, #0
 8004a2e:	bf08      	it	eq
 8004a30:	46b8      	moveq	r8, r7
 8004a32:	2300      	movs	r3, #0
 8004a34:	f8dd 9010 	ldr.w	r9, [sp, #16]
 8004a38:	44a9      	add	r9, r5
 8004a3a:	4668      	mov	r0, sp
 8004a3c:	f859 2003 	ldr.w	r2, [r9, r3]
 8004a40:	ba11      	rev	r1, r2
 8004a42:	f858 2003 	ldr.w	r2, [r8, r3]
 8004a46:	404a      	eors	r2, r1
 8004a48:	f103 0120 	add.w	r1, r3, #32
 8004a4c:	3304      	adds	r3, #4
 8004a4e:	2b10      	cmp	r3, #16
 8004a50:	500a      	str	r2, [r1, r0]
 8004a52:	d1ef      	bne.n	8004a34 <AES_XTS_Common_Append.part.5+0xc4>
 8004a54:	b156      	cbz	r6, 8004a6c <AES_XTS_Common_Append.part.5+0xfc>
 8004a56:	2e01      	cmp	r6, #1
 8004a58:	f040 80e3 	bne.w	8004c22 <AES_XTS_Common_Append.part.5+0x2b2>
 8004a5c:	a808      	add	r0, sp, #32
 8004a5e:	4601      	mov	r1, r0
 8004a60:	f104 0228 	add.w	r2, r4, #40	; 0x28
 8004a64:	6a63      	ldr	r3, [r4, #36]	; 0x24
 8004a66:	f7ff fe29 	bl	80046bc <AES_general_SW_dec>
 8004a6a:	e006      	b.n	8004a7a <AES_XTS_Common_Append.part.5+0x10a>
 8004a6c:	a808      	add	r0, sp, #32
 8004a6e:	4601      	mov	r1, r0
 8004a70:	f104 0228 	add.w	r2, r4, #40	; 0x28
 8004a74:	6a63      	ldr	r3, [r4, #36]	; 0x24
 8004a76:	f7fe ffa1 	bl	80039bc <AES_general_SW_enc>
 8004a7a:	f105 0210 	add.w	r2, r5, #16
 8004a7e:	ebc2 0a0a 	rsb	sl, r2, sl
 8004a82:	f8cd a01c 	str.w	sl, [sp, #28]
 8004a86:	9b07      	ldr	r3, [sp, #28]
 8004a88:	9206      	str	r2, [sp, #24]
 8004a8a:	f04f 0a04 	mov.w	sl, #4
 8004a8e:	fb93 fafa 	sdiv	sl, r3, sl
 8004a92:	2300      	movs	r3, #0
 8004a94:	4619      	mov	r1, r3
 8004a96:	4551      	cmp	r1, sl
 8004a98:	da1c      	bge.n	8004ad4 <AES_XTS_Common_Append.part.5+0x164>
 8004a9a:	eb09 0003 	add.w	r0, r9, r3
 8004a9e:	f103 0220 	add.w	r2, r3, #32
 8004aa2:	6900      	ldr	r0, [r0, #16]
 8004aa4:	ba00      	rev	r0, r0
 8004aa6:	9005      	str	r0, [sp, #20]
 8004aa8:	4668      	mov	r0, sp
 8004aaa:	3101      	adds	r1, #1
 8004aac:	5810      	ldr	r0, [r2, r0]
 8004aae:	f858 2003 	ldr.w	r2, [r8, r3]
 8004ab2:	ea82 0c00 	eor.w	ip, r2, r0
 8004ab6:	eb0b 0005 	add.w	r0, fp, r5
 8004aba:	4418      	add	r0, r3
 8004abc:	fa9c fc8c 	rev.w	ip, ip
 8004ac0:	f8c0 c010 	str.w	ip, [r0, #16]
 8004ac4:	466a      	mov	r2, sp
 8004ac6:	f103 0c20 	add.w	ip, r3, #32
 8004aca:	9805      	ldr	r0, [sp, #20]
 8004acc:	f84c 0002 	str.w	r0, [ip, r2]
 8004ad0:	3304      	adds	r3, #4
 8004ad2:	e7e0      	b.n	8004a96 <AES_XTS_Common_Append.part.5+0x126>
 8004ad4:	ea2a 7aea 	bic.w	sl, sl, sl, asr #31
 8004ad8:	9a06      	ldr	r2, [sp, #24]
 8004ada:	9807      	ldr	r0, [sp, #28]
 8004adc:	ea4f 018a 	mov.w	r1, sl, lsl #2
 8004ae0:	440a      	add	r2, r1
 8004ae2:	eba0 008a 	sub.w	r0, r0, sl, lsl #2
 8004ae6:	9101      	str	r1, [sp, #4]
 8004ae8:	9003      	str	r0, [sp, #12]
 8004aea:	9206      	str	r2, [sp, #24]
 8004aec:	4441      	add	r1, r8
 8004aee:	2300      	movs	r3, #0
 8004af0:	f8dd c00c 	ldr.w	ip, [sp, #12]
 8004af4:	4563      	cmp	r3, ip
 8004af6:	da31      	bge.n	8004b5c <AES_XTS_Common_Append.part.5+0x1ec>
 8004af8:	f8dd c018 	ldr.w	ip, [sp, #24]
 8004afc:	9a04      	ldr	r2, [sp, #16]
 8004afe:	f8dd 9018 	ldr.w	r9, [sp, #24]
 8004b02:	4462      	add	r2, ip
 8004b04:	a810      	add	r0, sp, #64	; 0x40
 8004b06:	eb00 088a 	add.w	r8, r0, sl, lsl #2
 8004b0a:	5cd2      	ldrb	r2, [r2, r3]
 8004b0c:	6808      	ldr	r0, [r1, #0]
 8004b0e:	9207      	str	r2, [sp, #28]
 8004b10:	f858 2c20 	ldr.w	r2, [r8, #-32]
 8004b14:	ea4f 0cc3 	mov.w	ip, r3, lsl #3
 8004b18:	f1cc 0c18 	rsb	ip, ip, #24
 8004b1c:	4042      	eors	r2, r0
 8004b1e:	44d9      	add	r9, fp
 8004b20:	9205      	str	r2, [sp, #20]
 8004b22:	fa22 f20c 	lsr.w	r2, r2, ip
 8004b26:	f809 2003 	strb.w	r2, [r9, r3]
 8004b2a:	f06f 02ff 	mvn.w	r2, #255	; 0xff
 8004b2e:	fa02 f00c 	lsl.w	r0, r2, ip
 8004b32:	ea4f 09c3 	mov.w	r9, r3, lsl #3
 8004b36:	f06f 427f 	mvn.w	r2, #4278190080	; 0xff000000
 8004b3a:	fa42 f909 	asr.w	r9, r2, r9
 8004b3e:	ea80 0909 	eor.w	r9, r0, r9
 8004b42:	9a07      	ldr	r2, [sp, #28]
 8004b44:	f858 0c20 	ldr.w	r0, [r8, #-32]
 8004b48:	fa02 fc0c 	lsl.w	ip, r2, ip
 8004b4c:	ea09 0900 	and.w	r9, r9, r0
 8004b50:	ea49 020c 	orr.w	r2, r9, ip
 8004b54:	f848 2c20 	str.w	r2, [r8, #-32]
 8004b58:	3301      	adds	r3, #1
 8004b5a:	e7c9      	b.n	8004af0 <AES_XTS_Common_Append.part.5+0x180>
 8004b5c:	ea2c 72ec 	bic.w	r2, ip, ip, asr #31
 8004b60:	f1c2 0c03 	rsb	ip, r2, #3
 8004b64:	ea4f 0ccc 	mov.w	ip, ip, lsl #3
 8004b68:	2a03      	cmp	r2, #3
 8004b6a:	dc13      	bgt.n	8004b94 <AES_XTS_Common_Append.part.5+0x224>
 8004b6c:	680b      	ldr	r3, [r1, #0]
 8004b6e:	a810      	add	r0, sp, #64	; 0x40
 8004b70:	eb00 088a 	add.w	r8, r0, sl, lsl #2
 8004b74:	fa23 f90c 	lsr.w	r9, r3, ip
 8004b78:	fa5f f989 	uxtb.w	r9, r9
 8004b7c:	f858 3c20 	ldr.w	r3, [r8, #-32]
 8004b80:	fa09 f90c 	lsl.w	r9, r9, ip
 8004b84:	ea89 0303 	eor.w	r3, r9, r3
 8004b88:	f848 3c20 	str.w	r3, [r8, #-32]
 8004b8c:	3201      	adds	r2, #1
 8004b8e:	f1ac 0c08 	sub.w	ip, ip, #8
 8004b92:	e7e9      	b.n	8004b68 <AES_XTS_Common_Append.part.5+0x1f8>
 8004b94:	9a01      	ldr	r2, [sp, #4]
 8004b96:	f10d 0820 	add.w	r8, sp, #32
 8004b9a:	f10a 0a01 	add.w	sl, sl, #1
 8004b9e:	4490      	add	r8, r2
 8004ba0:	2300      	movs	r3, #0
 8004ba2:	f1ba 0f03 	cmp.w	sl, #3
 8004ba6:	f103 0304 	add.w	r3, r3, #4
 8004baa:	dc09      	bgt.n	8004bc0 <AES_XTS_Common_Append.part.5+0x250>
 8004bac:	f858 0003 	ldr.w	r0, [r8, r3]
 8004bb0:	58ca      	ldr	r2, [r1, r3]
 8004bb2:	ea80 0c02 	eor.w	ip, r0, r2
 8004bb6:	f848 c003 	str.w	ip, [r8, r3]
 8004bba:	f10a 0a01 	add.w	sl, sl, #1
 8004bbe:	e7f0      	b.n	8004ba2 <AES_XTS_Common_Append.part.5+0x232>
 8004bc0:	b906      	cbnz	r6, 8004bc4 <AES_XTS_Common_Append.part.5+0x254>
 8004bc2:	af0c      	add	r7, sp, #48	; 0x30
 8004bc4:	2300      	movs	r3, #0
 8004bc6:	f10d 0c20 	add.w	ip, sp, #32
 8004bca:	58f9      	ldr	r1, [r7, r3]
 8004bcc:	f85c 2003 	ldr.w	r2, [ip, r3]
 8004bd0:	404a      	eors	r2, r1
 8004bd2:	f84c 2003 	str.w	r2, [ip, r3]
 8004bd6:	3304      	adds	r3, #4
 8004bd8:	2b10      	cmp	r3, #16
 8004bda:	d1f4      	bne.n	8004bc6 <AES_XTS_Common_Append.part.5+0x256>
 8004bdc:	b14e      	cbz	r6, 8004bf2 <AES_XTS_Common_Append.part.5+0x282>
 8004bde:	2e01      	cmp	r6, #1
 8004be0:	d11f      	bne.n	8004c22 <AES_XTS_Common_Append.part.5+0x2b2>
 8004be2:	a808      	add	r0, sp, #32
 8004be4:	4601      	mov	r1, r0
 8004be6:	f104 0228 	add.w	r2, r4, #40	; 0x28
 8004bea:	6a63      	ldr	r3, [r4, #36]	; 0x24
 8004bec:	f7ff fd66 	bl	80046bc <AES_general_SW_dec>
 8004bf0:	e006      	b.n	8004c00 <AES_XTS_Common_Append.part.5+0x290>
 8004bf2:	a808      	add	r0, sp, #32
 8004bf4:	4601      	mov	r1, r0
 8004bf6:	f104 0228 	add.w	r2, r4, #40	; 0x28
 8004bfa:	6a63      	ldr	r3, [r4, #36]	; 0x24
 8004bfc:	f7fe fede 	bl	80039bc <AES_general_SW_enc>
 8004c00:	2300      	movs	r3, #0
 8004c02:	a808      	add	r0, sp, #32
 8004c04:	58f9      	ldr	r1, [r7, r3]
 8004c06:	58c2      	ldr	r2, [r0, r3]
 8004c08:	404a      	eors	r2, r1
 8004c0a:	eb0b 0105 	add.w	r1, fp, r5
 8004c0e:	50c2      	str	r2, [r0, r3]
 8004c10:	ba12      	rev	r2, r2
 8004c12:	50ca      	str	r2, [r1, r3]
 8004c14:	3304      	adds	r3, #4
 8004c16:	2b10      	cmp	r3, #16
 8004c18:	d1f3      	bne.n	8004c02 <AES_XTS_Common_Append.part.5+0x292>
 8004c1a:	e005      	b.n	8004c28 <AES_XTS_Common_Append.part.5+0x2b8>
 8004c1c:	f640 401e 	movw	r0, #3102	; 0xc1e
 8004c20:	e003      	b.n	8004c2a <AES_XTS_Common_Append.part.5+0x2ba>
 8004c22:	f44f 6042 	mov.w	r0, #3104	; 0xc20
 8004c26:	e000      	b.n	8004c2a <AES_XTS_Common_Append.part.5+0x2ba>
 8004c28:	2000      	movs	r0, #0
 8004c2a:	b011      	add	sp, #68	; 0x44
 8004c2c:	e8bd 8ff0 	ldmia.w	sp!, {r4, r5, r6, r7, r8, r9, sl, fp, pc}

08004c30 <AES_ECB_Encrypt_Init>:
 8004c30:	2302      	movs	r3, #2
 8004c32:	f7ff bc8d 	b.w	8004550 <AESstdInit>

08004c36 <AES_ECB_Encrypt_Append>:
 8004c36:	e92d 4ff0 	stmdb	sp!, {r4, r5, r6, r7, r8, r9, sl, fp, lr}
 8004c3a:	b085      	sub	sp, #20
 8004c3c:	4689      	mov	r9, r1
 8004c3e:	469a      	mov	sl, r3
 8004c40:	f8dd 8038 	ldr.w	r8, [sp, #56]	; 0x38
 8004c44:	4607      	mov	r7, r0
 8004c46:	b388      	cbz	r0, 8004cac <AES_ECB_Encrypt_Append+0x76>
 8004c48:	b381      	cbz	r1, 8004cac <AES_ECB_Encrypt_Append+0x76>
 8004c4a:	b37b      	cbz	r3, 8004cac <AES_ECB_Encrypt_Append+0x76>
 8004c4c:	f1b8 0f00 	cmp.w	r8, #0
 8004c50:	d02c      	beq.n	8004cac <AES_ECB_Encrypt_Append+0x76>
 8004c52:	2a00      	cmp	r2, #0
 8004c54:	db2d      	blt.n	8004cb2 <AES_ECB_Encrypt_Append+0x7c>
 8004c56:	f012 040f 	ands.w	r4, r2, #15
 8004c5a:	d12a      	bne.n	8004cb2 <AES_ECB_Encrypt_Append+0x7c>
 8004c5c:	7903      	ldrb	r3, [r0, #4]
 8004c5e:	079b      	lsls	r3, r3, #30
 8004c60:	d42a      	bmi.n	8004cb8 <AES_ECB_Encrypt_Append+0x82>
 8004c62:	f022 0b0f 	bic.w	fp, r2, #15
 8004c66:	4625      	mov	r5, r4
 8004c68:	455d      	cmp	r5, fp
 8004c6a:	d01c      	beq.n	8004ca6 <AES_ECB_Encrypt_Append+0x70>
 8004c6c:	2600      	movs	r6, #0
 8004c6e:	eb09 0305 	add.w	r3, r9, r5
 8004c72:	599b      	ldr	r3, [r3, r6]
 8004c74:	ba1b      	rev	r3, r3
 8004c76:	f84d 3006 	str.w	r3, [sp, r6]
 8004c7a:	3604      	adds	r6, #4
 8004c7c:	2e10      	cmp	r6, #16
 8004c7e:	d1f6      	bne.n	8004c6e <AES_ECB_Encrypt_Append+0x38>
 8004c80:	4668      	mov	r0, sp
 8004c82:	4669      	mov	r1, sp
 8004c84:	f107 0228 	add.w	r2, r7, #40	; 0x28
 8004c88:	6a7b      	ldr	r3, [r7, #36]	; 0x24
 8004c8a:	f7fe fe97 	bl	80039bc <AES_general_SW_enc>
 8004c8e:	2600      	movs	r6, #0
 8004c90:	f85d 3006 	ldr.w	r3, [sp, r6]
 8004c94:	eb0a 0205 	add.w	r2, sl, r5
 8004c98:	ba1b      	rev	r3, r3
 8004c9a:	5193      	str	r3, [r2, r6]
 8004c9c:	3604      	adds	r6, #4
 8004c9e:	2e10      	cmp	r6, #16
 8004ca0:	d1f6      	bne.n	8004c90 <AES_ECB_Encrypt_Append+0x5a>
 8004ca2:	3510      	adds	r5, #16
 8004ca4:	e7e0      	b.n	8004c68 <AES_ECB_Encrypt_Append+0x32>
 8004ca6:	f8c8 5000 	str.w	r5, [r8]
 8004caa:	e007      	b.n	8004cbc <AES_ECB_Encrypt_Append+0x86>
 8004cac:	f44f 6442 	mov.w	r4, #3104	; 0xc20
 8004cb0:	e004      	b.n	8004cbc <AES_ECB_Encrypt_Append+0x86>
 8004cb2:	f640 441d 	movw	r4, #3101	; 0xc1d
 8004cb6:	e001      	b.n	8004cbc <AES_ECB_Encrypt_Append+0x86>
 8004cb8:	f640 441e 	movw	r4, #3102	; 0xc1e
 8004cbc:	4620      	mov	r0, r4
 8004cbe:	b005      	add	sp, #20
 8004cc0:	e8bd 8ff0 	ldmia.w	sp!, {r4, r5, r6, r7, r8, r9, sl, fp, pc}

08004cc4 <AES_ECB_Encrypt_Finish>:
 8004cc4:	b138      	cbz	r0, 8004cd6 <AES_ECB_Encrypt_Finish+0x12>
 8004cc6:	b132      	cbz	r2, 8004cd6 <AES_ECB_Encrypt_Finish+0x12>
 8004cc8:	7903      	ldrb	r3, [r0, #4]
 8004cca:	f043 0302 	orr.w	r3, r3, #2
 8004cce:	7103      	strb	r3, [r0, #4]
 8004cd0:	2000      	movs	r0, #0
 8004cd2:	6010      	str	r0, [r2, #0]
 8004cd4:	4770      	bx	lr
 8004cd6:	f44f 6042 	mov.w	r0, #3104	; 0xc20
 8004cda:	4770      	bx	lr

08004cdc <AES_ECB_Decrypt_Init>:
 8004cdc:	2303      	movs	r3, #3
 8004cde:	f7ff bc37 	b.w	8004550 <AESstdInit>

08004ce2 <AES_ECB_Decrypt_Append>:
 8004ce2:	e92d 47ff 	stmdb	sp!, {r0, r1, r2, r3, r4, r5, r6, r7, r8, r9, sl, lr}
 8004ce6:	9f0c      	ldr	r7, [sp, #48]	; 0x30
 8004ce8:	4688      	mov	r8, r1
 8004cea:	4699      	mov	r9, r3
 8004cec:	4606      	mov	r6, r0
 8004cee:	b380      	cbz	r0, 8004d52 <AES_ECB_Decrypt_Append+0x70>
 8004cf0:	b379      	cbz	r1, 8004d52 <AES_ECB_Decrypt_Append+0x70>
 8004cf2:	b373      	cbz	r3, 8004d52 <AES_ECB_Decrypt_Append+0x70>
 8004cf4:	b36f      	cbz	r7, 8004d52 <AES_ECB_Decrypt_Append+0x70>
 8004cf6:	2a00      	cmp	r2, #0
 8004cf8:	db2e      	blt.n	8004d58 <AES_ECB_Decrypt_Append+0x76>
 8004cfa:	0713      	lsls	r3, r2, #28
 8004cfc:	d12c      	bne.n	8004d58 <AES_ECB_Decrypt_Append+0x76>
 8004cfe:	7903      	ldrb	r3, [r0, #4]
 8004d00:	f003 0302 	and.w	r3, r3, #2
 8004d04:	f003 04ff 	and.w	r4, r3, #255	; 0xff
 8004d08:	bb4b      	cbnz	r3, 8004d5e <AES_ECB_Decrypt_Append+0x7c>
 8004d0a:	f022 0a0f 	bic.w	sl, r2, #15
 8004d0e:	4554      	cmp	r4, sl
 8004d10:	d01c      	beq.n	8004d4c <AES_ECB_Decrypt_Append+0x6a>
 8004d12:	2500      	movs	r5, #0
 8004d14:	eb08 0304 	add.w	r3, r8, r4
 8004d18:	595b      	ldr	r3, [r3, r5]
 8004d1a:	ba1b      	rev	r3, r3
 8004d1c:	f84d 3005 	str.w	r3, [sp, r5]
 8004d20:	3504      	adds	r5, #4
 8004d22:	2d10      	cmp	r5, #16
 8004d24:	d1f6      	bne.n	8004d14 <AES_ECB_Decrypt_Append+0x32>
 8004d26:	4668      	mov	r0, sp
 8004d28:	4669      	mov	r1, sp
 8004d2a:	f106 0228 	add.w	r2, r6, #40	; 0x28
 8004d2e:	6a73      	ldr	r3, [r6, #36]	; 0x24
 8004d30:	f7ff fcc4 	bl	80046bc <AES_general_SW_dec>
 8004d34:	2500      	movs	r5, #0
 8004d36:	f85d 3005 	ldr.w	r3, [sp, r5]
 8004d3a:	eb09 0204 	add.w	r2, r9, r4
 8004d3e:	ba1b      	rev	r3, r3
 8004d40:	5153      	str	r3, [r2, r5]
 8004d42:	3504      	adds	r5, #4
 8004d44:	2d10      	cmp	r5, #16
 8004d46:	d1f6      	bne.n	8004d36 <AES_ECB_Decrypt_Append+0x54>
 8004d48:	3410      	adds	r4, #16
 8004d4a:	e7e0      	b.n	8004d0e <AES_ECB_Decrypt_Append+0x2c>
 8004d4c:	603c      	str	r4, [r7, #0]
 8004d4e:	2000      	movs	r0, #0
 8004d50:	e007      	b.n	8004d62 <AES_ECB_Decrypt_Append+0x80>
 8004d52:	f44f 6042 	mov.w	r0, #3104	; 0xc20
 8004d56:	e004      	b.n	8004d62 <AES_ECB_Decrypt_Append+0x80>
 8004d58:	f640 401d 	movw	r0, #3101	; 0xc1d
 8004d5c:	e001      	b.n	8004d62 <AES_ECB_Decrypt_Append+0x80>
 8004d5e:	f640 401e 	movw	r0, #3102	; 0xc1e
 8004d62:	b004      	add	sp, #16
 8004d64:	e8bd 87f0 	ldmia.w	sp!, {r4, r5, r6, r7, r8, r9, sl, pc}

08004d68 <AES_ECB_Decrypt_Finish>:
 8004d68:	b138      	cbz	r0, 8004d7a <AES_ECB_Decrypt_Finish+0x12>
 8004d6a:	b132      	cbz	r2, 8004d7a <AES_ECB_Decrypt_Finish+0x12>
 8004d6c:	7903      	ldrb	r3, [r0, #4]
 8004d6e:	f043 0302 	orr.w	r3, r3, #2
 8004d72:	7103      	strb	r3, [r0, #4]
 8004d74:	2000      	movs	r0, #0
 8004d76:	6010      	str	r0, [r2, #0]
 8004d78:	4770      	bx	lr
 8004d7a:	f44f 6042 	mov.w	r0, #3104	; 0xc20
 8004d7e:	4770      	bx	lr

08004d80 <AES_CBC_Encrypt_Init>:
 8004d80:	2304      	movs	r3, #4
 8004d82:	f7ff bbe5 	b.w	8004550 <AESstdInit>

08004d86 <AES_CBC_Encrypt_Append>:
 8004d86:	e92d 4ff0 	stmdb	sp!, {r4, r5, r6, r7, r8, r9, sl, fp, lr}
 8004d8a:	4688      	mov	r8, r1
 8004d8c:	b087      	sub	sp, #28
 8004d8e:	4616      	mov	r6, r2
 8004d90:	461f      	mov	r7, r3
 8004d92:	4604      	mov	r4, r0
 8004d94:	2800      	cmp	r0, #0
 8004d96:	f000 80b8 	beq.w	8004f0a <AES_CBC_Encrypt_Append+0x184>
 8004d9a:	2900      	cmp	r1, #0
 8004d9c:	f000 80b5 	beq.w	8004f0a <AES_CBC_Encrypt_Append+0x184>
 8004da0:	2b00      	cmp	r3, #0
 8004da2:	f000 80b2 	beq.w	8004f0a <AES_CBC_Encrypt_Append+0x184>
 8004da6:	9810      	ldr	r0, [sp, #64]	; 0x40
 8004da8:	2800      	cmp	r0, #0
 8004daa:	f000 80ae 	beq.w	8004f0a <AES_CBC_Encrypt_Append+0x184>
 8004dae:	2a0f      	cmp	r2, #15
 8004db0:	f340 80ae 	ble.w	8004f10 <AES_CBC_Encrypt_Append+0x18a>
 8004db4:	7923      	ldrb	r3, [r4, #4]
 8004db6:	f013 0f06 	tst.w	r3, #6
 8004dba:	f040 80ac 	bne.w	8004f16 <AES_CBC_Encrypt_Append+0x190>
 8004dbe:	0732      	lsls	r2, r6, #28
 8004dc0:	bf1d      	ittte	ne
 8004dc2:	f043 0304 	orrne.w	r3, r3, #4
 8004dc6:	f1a6 0910 	subne.w	r9, r6, #16
 8004dca:	7123      	strbne	r3, [r4, #4]
 8004dcc:	46b1      	moveq	r9, r6
 8004dce:	2500      	movs	r5, #0
 8004dd0:	454d      	cmp	r5, r9
 8004dd2:	da22      	bge.n	8004e1a <AES_CBC_Encrypt_Append+0x94>
 8004dd4:	2300      	movs	r3, #0
 8004dd6:	eb08 0205 	add.w	r2, r8, r5
 8004dda:	18e1      	adds	r1, r4, r3
 8004ddc:	58d2      	ldr	r2, [r2, r3]
 8004dde:	6949      	ldr	r1, [r1, #20]
 8004de0:	ba12      	rev	r2, r2
 8004de2:	404a      	eors	r2, r1
 8004de4:	f103 0a08 	add.w	sl, r3, #8
 8004de8:	4669      	mov	r1, sp
 8004dea:	3304      	adds	r3, #4
 8004dec:	2b10      	cmp	r3, #16
 8004dee:	f84a 2001 	str.w	r2, [sl, r1]
 8004df2:	d1f0      	bne.n	8004dd6 <AES_CBC_Encrypt_Append+0x50>
 8004df4:	6a63      	ldr	r3, [r4, #36]	; 0x24
 8004df6:	a802      	add	r0, sp, #8
 8004df8:	f104 0114 	add.w	r1, r4, #20
 8004dfc:	f104 0228 	add.w	r2, r4, #40	; 0x28
 8004e00:	f7fe fddc 	bl	80039bc <AES_general_SW_enc>
 8004e04:	2300      	movs	r3, #0
 8004e06:	18e2      	adds	r2, r4, r3
 8004e08:	6951      	ldr	r1, [r2, #20]
 8004e0a:	197a      	adds	r2, r7, r5
 8004e0c:	ba09      	rev	r1, r1
 8004e0e:	50d1      	str	r1, [r2, r3]
 8004e10:	3304      	adds	r3, #4
 8004e12:	2b10      	cmp	r3, #16
 8004e14:	d1f7      	bne.n	8004e06 <AES_CBC_Encrypt_Append+0x80>
 8004e16:	3510      	adds	r5, #16
 8004e18:	e7da      	b.n	8004dd0 <AES_CBC_Encrypt_Append+0x4a>
 8004e1a:	42b5      	cmp	r5, r6
 8004e1c:	db03      	blt.n	8004e26 <AES_CBC_Encrypt_Append+0xa0>
 8004e1e:	9810      	ldr	r0, [sp, #64]	; 0x40
 8004e20:	6006      	str	r6, [r0, #0]
 8004e22:	2000      	movs	r0, #0
 8004e24:	e079      	b.n	8004f1a <AES_CBC_Encrypt_Append+0x194>
 8004e26:	ebc5 0b06 	rsb	fp, r5, r6
 8004e2a:	2104      	movs	r1, #4
 8004e2c:	2300      	movs	r3, #0
 8004e2e:	fb9b f1f1 	sdiv	r1, fp, r1
 8004e32:	461a      	mov	r2, r3
 8004e34:	428a      	cmp	r2, r1
 8004e36:	da15      	bge.n	8004e64 <AES_CBC_Encrypt_Append+0xde>
 8004e38:	eb08 0005 	add.w	r0, r8, r5
 8004e3c:	f103 0a08 	add.w	sl, r3, #8
 8004e40:	58c0      	ldr	r0, [r0, r3]
 8004e42:	fa90 fe80 	rev.w	lr, r0
 8004e46:	18e0      	adds	r0, r4, r3
 8004e48:	46e9      	mov	r9, sp
 8004e4a:	6940      	ldr	r0, [r0, #20]
 8004e4c:	ea8e 0e00 	eor.w	lr, lr, r0
 8004e50:	f84a e009 	str.w	lr, [sl, r9]
 8004e54:	eb07 0e05 	add.w	lr, r7, r5
 8004e58:	ba00      	rev	r0, r0
 8004e5a:	f84e 0003 	str.w	r0, [lr, r3]
 8004e5e:	3201      	adds	r2, #1
 8004e60:	3304      	adds	r3, #4
 8004e62:	e7e7      	b.n	8004e34 <AES_CBC_Encrypt_Append+0xae>
 8004e64:	ea21 71e1 	bic.w	r1, r1, r1, asr #31
 8004e68:	008b      	lsls	r3, r1, #2
 8004e6a:	eb04 0e03 	add.w	lr, r4, r3
 8004e6e:	a806      	add	r0, sp, #24
 8004e70:	4418      	add	r0, r3
 8004e72:	f8de 2014 	ldr.w	r2, [lr, #20]
 8004e76:	f840 2c10 	str.w	r2, [r0, #-16]
 8004e7a:	ebab 0b81 	sub.w	fp, fp, r1, lsl #2
 8004e7e:	eb03 0c05 	add.w	ip, r3, r5
 8004e82:	2200      	movs	r2, #0
 8004e84:	455a      	cmp	r2, fp
 8004e86:	da1e      	bge.n	8004ec6 <AES_CBC_Encrypt_Append+0x140>
 8004e88:	a806      	add	r0, sp, #24
 8004e8a:	eb08 0a0c 	add.w	sl, r8, ip
 8004e8e:	eb00 0081 	add.w	r0, r0, r1, lsl #2
 8004e92:	f81a a002 	ldrb.w	sl, [sl, r2]
 8004e96:	9001      	str	r0, [sp, #4]
 8004e98:	ea4f 09c2 	mov.w	r9, r2, lsl #3
 8004e9c:	f850 0c10 	ldr.w	r0, [r0, #-16]
 8004ea0:	f1c9 0918 	rsb	r9, r9, #24
 8004ea4:	fa0a fa09 	lsl.w	sl, sl, r9
 8004ea8:	ea8a 0a00 	eor.w	sl, sl, r0
 8004eac:	9801      	ldr	r0, [sp, #4]
 8004eae:	f840 ac10 	str.w	sl, [r0, #-16]
 8004eb2:	f8de 0014 	ldr.w	r0, [lr, #20]
 8004eb6:	eb07 0a0c 	add.w	sl, r7, ip
 8004eba:	fa20 f009 	lsr.w	r0, r0, r9
 8004ebe:	f80a 0002 	strb.w	r0, [sl, r2]
 8004ec2:	3201      	adds	r2, #1
 8004ec4:	e7de      	b.n	8004e84 <AES_CBC_Encrypt_Append+0xfe>
 8004ec6:	aa02      	add	r2, sp, #8
 8004ec8:	4413      	add	r3, r2
 8004eca:	3101      	adds	r1, #1
 8004ecc:	2200      	movs	r2, #0
 8004ece:	2903      	cmp	r1, #3
 8004ed0:	f102 0204 	add.w	r2, r2, #4
 8004ed4:	dc05      	bgt.n	8004ee2 <AES_CBC_Encrypt_Append+0x15c>
 8004ed6:	eb0e 0002 	add.w	r0, lr, r2
 8004eda:	3101      	adds	r1, #1
 8004edc:	6940      	ldr	r0, [r0, #20]
 8004ede:	5098      	str	r0, [r3, r2]
 8004ee0:	e7f5      	b.n	8004ece <AES_CBC_Encrypt_Append+0x148>
 8004ee2:	6a63      	ldr	r3, [r4, #36]	; 0x24
 8004ee4:	a802      	add	r0, sp, #8
 8004ee6:	f104 0114 	add.w	r1, r4, #20
 8004eea:	f104 0228 	add.w	r2, r4, #40	; 0x28
 8004eee:	f7fe fd65 	bl	80039bc <AES_general_SW_enc>
 8004ef2:	2300      	movs	r3, #0
 8004ef4:	18e2      	adds	r2, r4, r3
 8004ef6:	6951      	ldr	r1, [r2, #20]
 8004ef8:	197a      	adds	r2, r7, r5
 8004efa:	441a      	add	r2, r3
 8004efc:	3304      	adds	r3, #4
 8004efe:	ba09      	rev	r1, r1
 8004f00:	2b10      	cmp	r3, #16
 8004f02:	f842 1c10 	str.w	r1, [r2, #-16]
 8004f06:	d1f5      	bne.n	8004ef4 <AES_CBC_Encrypt_Append+0x16e>
 8004f08:	e789      	b.n	8004e1e <AES_CBC_Encrypt_Append+0x98>
 8004f0a:	f44f 6042 	mov.w	r0, #3104	; 0xc20
 8004f0e:	e004      	b.n	8004f1a <AES_CBC_Encrypt_Append+0x194>
 8004f10:	f640 401d 	movw	r0, #3101	; 0xc1d
 8004f14:	e001      	b.n	8004f1a <AES_CBC_Encrypt_Append+0x194>
 8004f16:	f640 401e 	movw	r0, #3102	; 0xc1e
 8004f1a:	b007      	add	sp, #28
 8004f1c:	e8bd 8ff0 	ldmia.w	sp!, {r4, r5, r6, r7, r8, r9, sl, fp, pc}

08004f20 <AES_CBC_Encrypt_Finish>:
 8004f20:	b138      	cbz	r0, 8004f32 <AES_CBC_Encrypt_Finish+0x12>
 8004f22:	b132      	cbz	r2, 8004f32 <AES_CBC_Encrypt_Finish+0x12>
 8004f24:	7903      	ldrb	r3, [r0, #4]
 8004f26:	f043 0302 	orr.w	r3, r3, #2
 8004f2a:	7103      	strb	r3, [r0, #4]
 8004f2c:	2000      	movs	r0, #0
 8004f2e:	6010      	str	r0, [r2, #0]
 8004f30:	4770      	bx	lr
 8004f32:	f44f 6042 	mov.w	r0, #3104	; 0xc20
 8004f36:	4770      	bx	lr

08004f38 <AES_CBC_Decrypt_Init>:
 8004f38:	2305      	movs	r3, #5
 8004f3a:	f7ff bb09 	b.w	8004550 <AESstdInit>

08004f3e <AES_CBC_Decrypt_Append>:
 8004f3e:	e92d 4ff0 	stmdb	sp!, {r4, r5, r6, r7, r8, r9, sl, fp, lr}
 8004f42:	b08d      	sub	sp, #52	; 0x34
 8004f44:	f10d 0a20 	add.w	sl, sp, #32
 8004f48:	4605      	mov	r5, r0
 8004f4a:	4688      	mov	r8, r1
 8004f4c:	4616      	mov	r6, r2
 8004f4e:	4650      	mov	r0, sl
 8004f50:	2100      	movs	r1, #0
 8004f52:	2210      	movs	r2, #16
 8004f54:	461f      	mov	r7, r3
 8004f56:	f009 fcf4 	bl	800e942 <memset>
 8004f5a:	2d00      	cmp	r5, #0
 8004f5c:	f000 80f6 	beq.w	800514c <AES_CBC_Decrypt_Append+0x20e>
 8004f60:	f1b8 0f00 	cmp.w	r8, #0
 8004f64:	f000 80f2 	beq.w	800514c <AES_CBC_Decrypt_Append+0x20e>
 8004f68:	2f00      	cmp	r7, #0
 8004f6a:	f000 80ef 	beq.w	800514c <AES_CBC_Decrypt_Append+0x20e>
 8004f6e:	9816      	ldr	r0, [sp, #88]	; 0x58
 8004f70:	2800      	cmp	r0, #0
 8004f72:	f000 80eb 	beq.w	800514c <AES_CBC_Decrypt_Append+0x20e>
 8004f76:	2e0f      	cmp	r6, #15
 8004f78:	f340 80eb 	ble.w	8005152 <AES_CBC_Decrypt_Append+0x214>
 8004f7c:	792b      	ldrb	r3, [r5, #4]
 8004f7e:	f013 0f06 	tst.w	r3, #6
 8004f82:	f040 80e9 	bne.w	8005158 <AES_CBC_Decrypt_Append+0x21a>
 8004f86:	0732      	lsls	r2, r6, #28
 8004f88:	bf1d      	ittte	ne
 8004f8a:	f043 0304 	orrne.w	r3, r3, #4
 8004f8e:	f1a6 0920 	subne.w	r9, r6, #32
 8004f92:	712b      	strbne	r3, [r5, #4]
 8004f94:	46b1      	moveq	r9, r6
 8004f96:	2400      	movs	r4, #0
 8004f98:	454c      	cmp	r4, r9
 8004f9a:	da28      	bge.n	8004fee <AES_CBC_Decrypt_Append+0xb0>
 8004f9c:	2300      	movs	r3, #0
 8004f9e:	eb08 0204 	add.w	r2, r8, r4
 8004fa2:	f103 0b10 	add.w	fp, r3, #16
 8004fa6:	58d2      	ldr	r2, [r2, r3]
 8004fa8:	4669      	mov	r1, sp
 8004faa:	3304      	adds	r3, #4
 8004fac:	ba12      	rev	r2, r2
 8004fae:	2b10      	cmp	r3, #16
 8004fb0:	f84b 2001 	str.w	r2, [fp, r1]
 8004fb4:	d1f3      	bne.n	8004f9e <AES_CBC_Decrypt_Append+0x60>
 8004fb6:	6a6b      	ldr	r3, [r5, #36]	; 0x24
 8004fb8:	a804      	add	r0, sp, #16
 8004fba:	4651      	mov	r1, sl
 8004fbc:	f105 0228 	add.w	r2, r5, #40	; 0x28
 8004fc0:	f7ff fb7c 	bl	80046bc <AES_general_SW_dec>
 8004fc4:	2300      	movs	r3, #0
 8004fc6:	18e9      	adds	r1, r5, r3
 8004fc8:	f85a 2003 	ldr.w	r2, [sl, r3]
 8004fcc:	6948      	ldr	r0, [r1, #20]
 8004fce:	f10d 0c10 	add.w	ip, sp, #16
 8004fd2:	4042      	eors	r2, r0
 8004fd4:	f85c 0003 	ldr.w	r0, [ip, r3]
 8004fd8:	6148      	str	r0, [r1, #20]
 8004fda:	1939      	adds	r1, r7, r4
 8004fdc:	f84a 2003 	str.w	r2, [sl, r3]
 8004fe0:	ba12      	rev	r2, r2
 8004fe2:	50ca      	str	r2, [r1, r3]
 8004fe4:	3304      	adds	r3, #4
 8004fe6:	2b10      	cmp	r3, #16
 8004fe8:	d1ed      	bne.n	8004fc6 <AES_CBC_Decrypt_Append+0x88>
 8004fea:	3410      	adds	r4, #16
 8004fec:	e7d4      	b.n	8004f98 <AES_CBC_Decrypt_Append+0x5a>
 8004fee:	42b4      	cmp	r4, r6
 8004ff0:	db03      	blt.n	8004ffa <AES_CBC_Decrypt_Append+0xbc>
 8004ff2:	9816      	ldr	r0, [sp, #88]	; 0x58
 8004ff4:	6006      	str	r6, [r0, #0]
 8004ff6:	2000      	movs	r0, #0
 8004ff8:	e0b0      	b.n	800515c <AES_CBC_Decrypt_Append+0x21e>
 8004ffa:	2300      	movs	r3, #0
 8004ffc:	eb08 0904 	add.w	r9, r8, r4
 8005000:	f103 0b10 	add.w	fp, r3, #16
 8005004:	f859 2003 	ldr.w	r2, [r9, r3]
 8005008:	4669      	mov	r1, sp
 800500a:	3304      	adds	r3, #4
 800500c:	ba12      	rev	r2, r2
 800500e:	2b10      	cmp	r3, #16
 8005010:	f84b 2001 	str.w	r2, [fp, r1]
 8005014:	d1f2      	bne.n	8004ffc <AES_CBC_Decrypt_Append+0xbe>
 8005016:	f105 0c28 	add.w	ip, r5, #40	; 0x28
 800501a:	4662      	mov	r2, ip
 800501c:	4651      	mov	r1, sl
 800501e:	6a6b      	ldr	r3, [r5, #36]	; 0x24
 8005020:	f8cd c00c 	str.w	ip, [sp, #12]
 8005024:	a804      	add	r0, sp, #16
 8005026:	f7ff fb49 	bl	80046bc <AES_general_SW_dec>
 800502a:	f104 0c10 	add.w	ip, r4, #16
 800502e:	ebcc 0e06 	rsb	lr, ip, r6
 8005032:	2104      	movs	r1, #4
 8005034:	fb9e f1f1 	sdiv	r1, lr, r1
 8005038:	2300      	movs	r3, #0
 800503a:	9102      	str	r1, [sp, #8]
 800503c:	461a      	mov	r2, r3
 800503e:	f8dd a008 	ldr.w	sl, [sp, #8]
 8005042:	4552      	cmp	r2, sl
 8005044:	da18      	bge.n	8005078 <AES_CBC_Decrypt_Append+0x13a>
 8005046:	eb09 0003 	add.w	r0, r9, r3
 800504a:	f103 0a10 	add.w	sl, r3, #16
 800504e:	6900      	ldr	r0, [r0, #16]
 8005050:	4669      	mov	r1, sp
 8005052:	ba00      	rev	r0, r0
 8005054:	f84a 0001 	str.w	r0, [sl, r1]
 8005058:	f10d 0a20 	add.w	sl, sp, #32
 800505c:	3201      	adds	r2, #1
 800505e:	f853 100a 	ldr.w	r1, [r3, sl]
 8005062:	4048      	eors	r0, r1
 8005064:	f843 000a 	str.w	r0, [r3, sl]
 8005068:	fa90 fb80 	rev.w	fp, r0
 800506c:	1938      	adds	r0, r7, r4
 800506e:	4418      	add	r0, r3
 8005070:	3304      	adds	r3, #4
 8005072:	f8c0 b010 	str.w	fp, [r0, #16]
 8005076:	e7e2      	b.n	800503e <AES_CBC_Decrypt_Append+0x100>
 8005078:	ea2a 71ea 	bic.w	r1, sl, sl, asr #31
 800507c:	008b      	lsls	r3, r1, #2
 800507e:	a80c      	add	r0, sp, #48	; 0x30
 8005080:	4418      	add	r0, r3
 8005082:	2200      	movs	r2, #0
 8005084:	449c      	add	ip, r3
 8005086:	f840 2c20 	str.w	r2, [r0, #-32]
 800508a:	ebae 0b81 	sub.w	fp, lr, r1, lsl #2
 800508e:	f8cd c004 	str.w	ip, [sp, #4]
 8005092:	455a      	cmp	r2, fp
 8005094:	da20      	bge.n	80050d8 <AES_CBC_Decrypt_Append+0x19a>
 8005096:	9801      	ldr	r0, [sp, #4]
 8005098:	4440      	add	r0, r8
 800509a:	ea4f 0ac2 	mov.w	sl, r2, lsl #3
 800509e:	f810 9002 	ldrb.w	r9, [r0, r2]
 80050a2:	f10d 0c30 	add.w	ip, sp, #48	; 0x30
 80050a6:	eb0c 0e81 	add.w	lr, ip, r1, lsl #2
 80050aa:	f1ca 0a18 	rsb	sl, sl, #24
 80050ae:	fa09 f00a 	lsl.w	r0, r9, sl
 80050b2:	4684      	mov	ip, r0
 80050b4:	f85e 0c20 	ldr.w	r0, [lr, #-32]
 80050b8:	ea8c 0000 	eor.w	r0, ip, r0
 80050bc:	f84e 0c20 	str.w	r0, [lr, #-32]
 80050c0:	9801      	ldr	r0, [sp, #4]
 80050c2:	f85e ec10 	ldr.w	lr, [lr, #-16]
 80050c6:	4438      	add	r0, r7
 80050c8:	fa2e fa0a 	lsr.w	sl, lr, sl
 80050cc:	ea8a 0a09 	eor.w	sl, sl, r9
 80050d0:	f800 a002 	strb.w	sl, [r0, r2]
 80050d4:	3201      	adds	r2, #1
 80050d6:	e7dc      	b.n	8005092 <AES_CBC_Decrypt_Append+0x154>
 80050d8:	aa0c      	add	r2, sp, #48	; 0x30
 80050da:	441a      	add	r2, r3
 80050dc:	ea2b 7eeb 	bic.w	lr, fp, fp, asr #31
 80050e0:	f04f 30ff 	mov.w	r0, #4294967295
 80050e4:	ea4f 0ece 	mov.w	lr, lr, lsl #3
 80050e8:	fa20 fe0e 	lsr.w	lr, r0, lr
 80050ec:	f852 0c10 	ldr.w	r0, [r2, #-16]
 80050f0:	ea0e 0e00 	and.w	lr, lr, r0
 80050f4:	f852 0c20 	ldr.w	r0, [r2, #-32]
 80050f8:	ea8e 0000 	eor.w	r0, lr, r0
 80050fc:	f842 0c20 	str.w	r0, [r2, #-32]
 8005100:	f10d 0820 	add.w	r8, sp, #32
 8005104:	a804      	add	r0, sp, #16
 8005106:	eb08 0e03 	add.w	lr, r8, r3
 800510a:	3101      	adds	r1, #1
 800510c:	4403      	add	r3, r0
 800510e:	2200      	movs	r2, #0
 8005110:	2903      	cmp	r1, #3
 8005112:	f102 0204 	add.w	r2, r2, #4
 8005116:	dc04      	bgt.n	8005122 <AES_CBC_Decrypt_Append+0x1e4>
 8005118:	f85e 0002 	ldr.w	r0, [lr, r2]
 800511c:	5098      	str	r0, [r3, r2]
 800511e:	3101      	adds	r1, #1
 8005120:	e7f6      	b.n	8005110 <AES_CBC_Decrypt_Append+0x1d2>
 8005122:	6a6b      	ldr	r3, [r5, #36]	; 0x24
 8005124:	9a03      	ldr	r2, [sp, #12]
 8005126:	a804      	add	r0, sp, #16
 8005128:	4641      	mov	r1, r8
 800512a:	f7ff fac7 	bl	80046bc <AES_general_SW_dec>
 800512e:	2300      	movs	r3, #0
 8005130:	18ea      	adds	r2, r5, r3
 8005132:	6951      	ldr	r1, [r2, #20]
 8005134:	f858 2003 	ldr.w	r2, [r8, r3]
 8005138:	404a      	eors	r2, r1
 800513a:	1939      	adds	r1, r7, r4
 800513c:	f848 2003 	str.w	r2, [r8, r3]
 8005140:	ba12      	rev	r2, r2
 8005142:	50ca      	str	r2, [r1, r3]
 8005144:	3304      	adds	r3, #4
 8005146:	2b10      	cmp	r3, #16
 8005148:	d1f2      	bne.n	8005130 <AES_CBC_Decrypt_Append+0x1f2>
 800514a:	e752      	b.n	8004ff2 <AES_CBC_Decrypt_Append+0xb4>
 800514c:	f44f 6042 	mov.w	r0, #3104	; 0xc20
 8005150:	e004      	b.n	800515c <AES_CBC_Decrypt_Append+0x21e>
 8005152:	f640 401d 	movw	r0, #3101	; 0xc1d
 8005156:	e001      	b.n	800515c <AES_CBC_Decrypt_Append+0x21e>
 8005158:	f640 401e 	movw	r0, #3102	; 0xc1e
 800515c:	b00d      	add	sp, #52	; 0x34
 800515e:	e8bd 8ff0 	ldmia.w	sp!, {r4, r5, r6, r7, r8, r9, sl, fp, pc}

08005162 <AES_CBC_Decrypt_Finish>:
 8005162:	b138      	cbz	r0, 8005174 <AES_CBC_Decrypt_Finish+0x12>
 8005164:	b132      	cbz	r2, 8005174 <AES_CBC_Decrypt_Finish+0x12>
 8005166:	7903      	ldrb	r3, [r0, #4]
 8005168:	f043 0302 	orr.w	r3, r3, #2
 800516c:	7103      	strb	r3, [r0, #4]
 800516e:	2000      	movs	r0, #0
 8005170:	6010      	str	r0, [r2, #0]
 8005172:	4770      	bx	lr
 8005174:	f44f 6042 	mov.w	r0, #3104	; 0xc20
 8005178:	4770      	bx	lr

0800517a <AES_CTR_Encrypt_Init>:
 800517a:	2306      	movs	r3, #6
 800517c:	f7ff b9e8 	b.w	8004550 <AESstdInit>

08005180 <AES_CTR_Encrypt_Append>:
 8005180:	e92d 4ff0 	stmdb	sp!, {r4, r5, r6, r7, r8, r9, sl, fp, lr}
 8005184:	b08b      	sub	sp, #44	; 0x2c
 8005186:	ae06      	add	r6, sp, #24
 8005188:	4605      	mov	r5, r0
 800518a:	4688      	mov	r8, r1
 800518c:	4617      	mov	r7, r2
 800518e:	4630      	mov	r0, r6
 8005190:	2100      	movs	r1, #0
 8005192:	2210      	movs	r2, #16
 8005194:	4699      	mov	r9, r3
 8005196:	f8dd a050 	ldr.w	sl, [sp, #80]	; 0x50
 800519a:	f009 fbd2 	bl	800e942 <memset>
 800519e:	2300      	movs	r3, #0
 80051a0:	9301      	str	r3, [sp, #4]
 80051a2:	2d00      	cmp	r5, #0
 80051a4:	f000 80d9 	beq.w	800535a <AES_CTR_Encrypt_Append+0x1da>
 80051a8:	f1b8 0f00 	cmp.w	r8, #0
 80051ac:	f000 80d5 	beq.w	800535a <AES_CTR_Encrypt_Append+0x1da>
 80051b0:	f1b9 0f00 	cmp.w	r9, #0
 80051b4:	f000 80d1 	beq.w	800535a <AES_CTR_Encrypt_Append+0x1da>
 80051b8:	f1ba 0f00 	cmp.w	sl, #0
 80051bc:	f000 80cd 	beq.w	800535a <AES_CTR_Encrypt_Append+0x1da>
 80051c0:	792b      	ldrb	r3, [r5, #4]
 80051c2:	f013 0f06 	tst.w	r3, #6
 80051c6:	f040 80cb 	bne.w	8005360 <AES_CTR_Encrypt_Append+0x1e0>
 80051ca:	073a      	lsls	r2, r7, #28
 80051cc:	bf1c      	itt	ne
 80051ce:	f043 0304 	orrne.w	r3, r3, #4
 80051d2:	712b      	strbne	r3, [r5, #4]
 80051d4:	4b65      	ldr	r3, [pc, #404]	; (800536c <AES_CTR_Encrypt_Append+0x1ec>)
 80051d6:	2201      	movs	r2, #1
 80051d8:	601a      	str	r2, [r3, #0]
 80051da:	681b      	ldr	r3, [r3, #0]
 80051dc:	9301      	str	r3, [sp, #4]
 80051de:	4b64      	ldr	r3, [pc, #400]	; (8005370 <AES_CTR_Encrypt_Append+0x1f0>)
 80051e0:	681a      	ldr	r2, [r3, #0]
 80051e2:	9201      	str	r2, [sp, #4]
 80051e4:	9a01      	ldr	r2, [sp, #4]
 80051e6:	3201      	adds	r2, #1
 80051e8:	d001      	beq.n	80051ee <AES_CTR_Encrypt_Append+0x6e>
 80051ea:	2400      	movs	r4, #0
 80051ec:	e05e      	b.n	80052ac <AES_CTR_Encrypt_Append+0x12c>
 80051ee:	9a01      	ldr	r2, [sp, #4]
 80051f0:	601a      	str	r2, [r3, #0]
 80051f2:	681b      	ldr	r3, [r3, #0]
 80051f4:	9301      	str	r3, [sp, #4]
 80051f6:	9c01      	ldr	r4, [sp, #4]
 80051f8:	b32c      	cbz	r4, 8005246 <AES_CTR_Encrypt_Append+0xc6>
 80051fa:	2400      	movs	r4, #0
 80051fc:	e035      	b.n	800526a <AES_CTR_Encrypt_Append+0xea>
 80051fe:	eb08 0204 	add.w	r2, r8, r4
 8005202:	f10d 0b08 	add.w	fp, sp, #8
 8005206:	58d2      	ldr	r2, [r2, r3]
 8005208:	ba12      	rev	r2, r2
 800520a:	f843 200b 	str.w	r2, [r3, fp]
 800520e:	3304      	adds	r3, #4
 8005210:	2b10      	cmp	r3, #16
 8005212:	d1f4      	bne.n	80051fe <AES_CTR_Encrypt_Append+0x7e>
 8005214:	6a6b      	ldr	r3, [r5, #36]	; 0x24
 8005216:	f105 0014 	add.w	r0, r5, #20
 800521a:	4631      	mov	r1, r6
 800521c:	f105 0228 	add.w	r2, r5, #40	; 0x28
 8005220:	f7fe fbcc 	bl	80039bc <AES_general_SW_enc>
 8005224:	6a2b      	ldr	r3, [r5, #32]
 8005226:	3301      	adds	r3, #1
 8005228:	622b      	str	r3, [r5, #32]
 800522a:	2300      	movs	r3, #0
 800522c:	f85b 1003 	ldr.w	r1, [fp, r3]
 8005230:	58f2      	ldr	r2, [r6, r3]
 8005232:	404a      	eors	r2, r1
 8005234:	eb09 0104 	add.w	r1, r9, r4
 8005238:	50f2      	str	r2, [r6, r3]
 800523a:	ba12      	rev	r2, r2
 800523c:	50ca      	str	r2, [r1, r3]
 800523e:	3304      	adds	r3, #4
 8005240:	2b10      	cmp	r3, #16
 8005242:	d1f3      	bne.n	800522c <AES_CTR_Encrypt_Append+0xac>
 8005244:	3410      	adds	r4, #16
 8005246:	f104 030f 	add.w	r3, r4, #15
 800524a:	42bb      	cmp	r3, r7
 800524c:	da43      	bge.n	80052d6 <AES_CTR_Encrypt_Append+0x156>
 800524e:	2300      	movs	r3, #0
 8005250:	e7d5      	b.n	80051fe <AES_CTR_Encrypt_Append+0x7e>
 8005252:	aa02      	add	r2, sp, #8
 8005254:	5899      	ldr	r1, [r3, r2]
 8005256:	58f2      	ldr	r2, [r6, r3]
 8005258:	430a      	orrs	r2, r1
 800525a:	50f2      	str	r2, [r6, r3]
 800525c:	3304      	adds	r3, #4
 800525e:	2b10      	cmp	r3, #16
 8005260:	ba12      	rev	r2, r2
 8005262:	d1f6      	bne.n	8005252 <AES_CTR_Encrypt_Append+0xd2>
 8005264:	f849 2004 	str.w	r2, [r9, r4]
 8005268:	3410      	adds	r4, #16
 800526a:	f104 030f 	add.w	r3, r4, #15
 800526e:	42bb      	cmp	r3, r7
 8005270:	da31      	bge.n	80052d6 <AES_CTR_Encrypt_Append+0x156>
 8005272:	f858 3004 	ldr.w	r3, [r8, r4]
 8005276:	ba1b      	rev	r3, r3
 8005278:	9302      	str	r3, [sp, #8]
 800527a:	f105 0014 	add.w	r0, r5, #20
 800527e:	6a6b      	ldr	r3, [r5, #36]	; 0x24
 8005280:	4631      	mov	r1, r6
 8005282:	f105 0228 	add.w	r2, r5, #40	; 0x28
 8005286:	f7fe fb99 	bl	80039bc <AES_general_SW_enc>
 800528a:	6a2b      	ldr	r3, [r5, #32]
 800528c:	3301      	adds	r3, #1
 800528e:	622b      	str	r3, [r5, #32]
 8005290:	2300      	movs	r3, #0
 8005292:	e7de      	b.n	8005252 <AES_CTR_Encrypt_Append+0xd2>
 8005294:	aa02      	add	r2, sp, #8
 8005296:	5899      	ldr	r1, [r3, r2]
 8005298:	58f2      	ldr	r2, [r6, r3]
 800529a:	430a      	orrs	r2, r1
 800529c:	50f2      	str	r2, [r6, r3]
 800529e:	3304      	adds	r3, #4
 80052a0:	2b10      	cmp	r3, #16
 80052a2:	ba12      	rev	r2, r2
 80052a4:	d1f6      	bne.n	8005294 <AES_CTR_Encrypt_Append+0x114>
 80052a6:	f849 2004 	str.w	r2, [r9, r4]
 80052aa:	3410      	adds	r4, #16
 80052ac:	f104 030f 	add.w	r3, r4, #15
 80052b0:	42bb      	cmp	r3, r7
 80052b2:	da10      	bge.n	80052d6 <AES_CTR_Encrypt_Append+0x156>
 80052b4:	f858 3004 	ldr.w	r3, [r8, r4]
 80052b8:	ba1b      	rev	r3, r3
 80052ba:	9302      	str	r3, [sp, #8]
 80052bc:	f105 0014 	add.w	r0, r5, #20
 80052c0:	6a6b      	ldr	r3, [r5, #36]	; 0x24
 80052c2:	4631      	mov	r1, r6
 80052c4:	f105 0228 	add.w	r2, r5, #40	; 0x28
 80052c8:	f7fe fb78 	bl	80039bc <AES_general_SW_enc>
 80052cc:	6a2b      	ldr	r3, [r5, #32]
 80052ce:	3301      	adds	r3, #1
 80052d0:	622b      	str	r3, [r5, #32]
 80052d2:	2300      	movs	r3, #0
 80052d4:	e7de      	b.n	8005294 <AES_CTR_Encrypt_Append+0x114>
 80052d6:	42bc      	cmp	r4, r7
 80052d8:	db03      	blt.n	80052e2 <AES_CTR_Encrypt_Append+0x162>
 80052da:	f8ca 7000 	str.w	r7, [sl]
 80052de:	2000      	movs	r0, #0
 80052e0:	e040      	b.n	8005364 <AES_CTR_Encrypt_Append+0x1e4>
 80052e2:	f105 0228 	add.w	r2, r5, #40	; 0x28
 80052e6:	6a6b      	ldr	r3, [r5, #36]	; 0x24
 80052e8:	f105 0014 	add.w	r0, r5, #20
 80052ec:	4631      	mov	r1, r6
 80052ee:	f7fe fb65 	bl	80039bc <AES_general_SW_enc>
 80052f2:	2504      	movs	r5, #4
 80052f4:	1b39      	subs	r1, r7, r4
 80052f6:	2200      	movs	r2, #0
 80052f8:	fb91 f5f5 	sdiv	r5, r1, r5
 80052fc:	4613      	mov	r3, r2
 80052fe:	42ab      	cmp	r3, r5
 8005300:	da10      	bge.n	8005324 <AES_CTR_Encrypt_Append+0x1a4>
 8005302:	eb08 0004 	add.w	r0, r8, r4
 8005306:	3301      	adds	r3, #1
 8005308:	5880      	ldr	r0, [r0, r2]
 800530a:	fa90 fc80 	rev.w	ip, r0
 800530e:	58b0      	ldr	r0, [r6, r2]
 8005310:	ea8c 0000 	eor.w	r0, ip, r0
 8005314:	eb09 0c04 	add.w	ip, r9, r4
 8005318:	50b0      	str	r0, [r6, r2]
 800531a:	ba00      	rev	r0, r0
 800531c:	f84c 0002 	str.w	r0, [ip, r2]
 8005320:	3204      	adds	r2, #4
 8005322:	e7ec      	b.n	80052fe <AES_CTR_Encrypt_Append+0x17e>
 8005324:	ea25 72e5 	bic.w	r2, r5, r5, asr #31
 8005328:	eba1 0182 	sub.w	r1, r1, r2, lsl #2
 800532c:	0092      	lsls	r2, r2, #2
 800532e:	4414      	add	r4, r2
 8005330:	2300      	movs	r3, #0
 8005332:	428b      	cmp	r3, r1
 8005334:	dad1      	bge.n	80052da <AES_CTR_Encrypt_Append+0x15a>
 8005336:	ae0a      	add	r6, sp, #40	; 0x28
 8005338:	4416      	add	r6, r2
 800533a:	00dd      	lsls	r5, r3, #3
 800533c:	f856 6c10 	ldr.w	r6, [r6, #-16]
 8005340:	f1c5 0518 	rsb	r5, r5, #24
 8005344:	fa26 f505 	lsr.w	r5, r6, r5
 8005348:	eb08 0604 	add.w	r6, r8, r4
 800534c:	eb09 0004 	add.w	r0, r9, r4
 8005350:	5cf6      	ldrb	r6, [r6, r3]
 8005352:	4075      	eors	r5, r6
 8005354:	54c5      	strb	r5, [r0, r3]
 8005356:	3301      	adds	r3, #1
 8005358:	e7eb      	b.n	8005332 <AES_CTR_Encrypt_Append+0x1b2>
 800535a:	f44f 6042 	mov.w	r0, #3104	; 0xc20
 800535e:	e001      	b.n	8005364 <AES_CTR_Encrypt_Append+0x1e4>
 8005360:	f640 401e 	movw	r0, #3102	; 0xc1e
 8005364:	b00b      	add	sp, #44	; 0x2c
 8005366:	e8bd 8ff0 	ldmia.w	sp!, {r4, r5, r6, r7, r8, r9, sl, fp, pc}
 800536a:	bf00      	nop
 800536c:	40023008 	.word	0x40023008
 8005370:	40023000 	.word	0x40023000

08005374 <AES_CTR_Encrypt_Finish>:
 8005374:	b138      	cbz	r0, 8005386 <AES_CTR_Encrypt_Finish+0x12>
 8005376:	b132      	cbz	r2, 8005386 <AES_CTR_Encrypt_Finish+0x12>
 8005378:	7903      	ldrb	r3, [r0, #4]
 800537a:	f043 0302 	orr.w	r3, r3, #2
 800537e:	7103      	strb	r3, [r0, #4]
 8005380:	2000      	movs	r0, #0
 8005382:	6010      	str	r0, [r2, #0]
 8005384:	4770      	bx	lr
 8005386:	f44f 6042 	mov.w	r0, #3104	; 0xc20
 800538a:	4770      	bx	lr

0800538c <AES_CTR_Decrypt_Init>:
 800538c:	2306      	movs	r3, #6
 800538e:	f7ff b8df 	b.w	8004550 <AESstdInit>

08005392 <AES_CTR_Decrypt_Append>:
 8005392:	f7ff bef5 	b.w	8005180 <AES_CTR_Encrypt_Append>

08005396 <AES_CTR_Decrypt_Finish>:
 8005396:	f7ff bfed 	b.w	8005374 <AES_CTR_Encrypt_Finish>

0800539a <AES_GCM_Encrypt_Init>:
 800539a:	e92d 43f0 	stmdb	sp!, {r4, r5, r6, r7, r8, r9, lr}
 800539e:	4613      	mov	r3, r2
 80053a0:	b085      	sub	sp, #20
 80053a2:	4604      	mov	r4, r0
 80053a4:	2800      	cmp	r0, #0
 80053a6:	f000 80d9 	beq.w	800555c <AES_GCM_Encrypt_Init+0x1c2>
 80053aa:	2900      	cmp	r1, #0
 80053ac:	f000 80d6 	beq.w	800555c <AES_GCM_Encrypt_Init+0x1c2>
 80053b0:	2a00      	cmp	r2, #0
 80053b2:	f000 80d3 	beq.w	800555c <AES_GCM_Encrypt_Init+0x1c2>
 80053b6:	2200      	movs	r2, #0
 80053b8:	6302      	str	r2, [r0, #48]	; 0x30
 80053ba:	6342      	str	r2, [r0, #52]	; 0x34
 80053bc:	6ac2      	ldr	r2, [r0, #44]	; 0x2c
 80053be:	60c3      	str	r3, [r0, #12]
 80053c0:	3a01      	subs	r2, #1
 80053c2:	2a0f      	cmp	r2, #15
 80053c4:	f200 80cd 	bhi.w	8005562 <AES_GCM_Encrypt_Init+0x1c8>
 80053c8:	6902      	ldr	r2, [r0, #16]
 80053ca:	2a0c      	cmp	r2, #12
 80053cc:	f040 80c9 	bne.w	8005562 <AES_GCM_Encrypt_Init+0x1c8>
 80053d0:	6a42      	ldr	r2, [r0, #36]	; 0x24
 80053d2:	f022 0008 	bic.w	r0, r2, #8
 80053d6:	2810      	cmp	r0, #16
 80053d8:	d002      	beq.n	80053e0 <AES_GCM_Encrypt_Init+0x46>
 80053da:	2a20      	cmp	r2, #32
 80053dc:	f040 80c1 	bne.w	8005562 <AES_GCM_Encrypt_Init+0x1c8>
 80053e0:	7920      	ldrb	r0, [r4, #4]
 80053e2:	f020 0516 	bic.w	r5, r0, #22
 80053e6:	7125      	strb	r5, [r4, #4]
 80053e8:	681d      	ldr	r5, [r3, #0]
 80053ea:	ba2d      	rev	r5, r5
 80053ec:	6165      	str	r5, [r4, #20]
 80053ee:	685d      	ldr	r5, [r3, #4]
 80053f0:	ba2d      	rev	r5, r5
 80053f2:	61a5      	str	r5, [r4, #24]
 80053f4:	689b      	ldr	r3, [r3, #8]
 80053f6:	ba1b      	rev	r3, r3
 80053f8:	61e3      	str	r3, [r4, #28]
 80053fa:	2300      	movs	r3, #0
 80053fc:	6223      	str	r3, [r4, #32]
 80053fe:	07c3      	lsls	r3, r0, #31
 8005400:	d405      	bmi.n	800540e <AES_GCM_Encrypt_Init+0x74>
 8005402:	60a1      	str	r1, [r4, #8]
 8005404:	4608      	mov	r0, r1
 8005406:	f104 0148 	add.w	r1, r4, #72	; 0x48
 800540a:	f7fe fac6 	bl	800399a <AES_keyschedule_enc>
 800540e:	7923      	ldrb	r3, [r4, #4]
 8005410:	f013 0301 	ands.w	r3, r3, #1
 8005414:	f040 809a 	bne.w	800554c <AES_GCM_Encrypt_Init+0x1b2>
 8005418:	9300      	str	r3, [sp, #0]
 800541a:	9301      	str	r3, [sp, #4]
 800541c:	9302      	str	r3, [sp, #8]
 800541e:	9303      	str	r3, [sp, #12]
 8005420:	4669      	mov	r1, sp
 8005422:	f104 0248 	add.w	r2, r4, #72	; 0x48
 8005426:	6a63      	ldr	r3, [r4, #36]	; 0x24
 8005428:	4668      	mov	r0, sp
 800542a:	f7fe fac7 	bl	80039bc <AES_general_SW_enc>
 800542e:	9b00      	ldr	r3, [sp, #0]
 8005430:	f8c4 31b8 	str.w	r3, [r4, #440]	; 0x1b8
 8005434:	9b01      	ldr	r3, [sp, #4]
 8005436:	f8c4 31bc 	str.w	r3, [r4, #444]	; 0x1bc
 800543a:	9b02      	ldr	r3, [sp, #8]
 800543c:	f8c4 31c0 	str.w	r3, [r4, #448]	; 0x1c0
 8005440:	9b03      	ldr	r3, [sp, #12]
 8005442:	f8c4 31c4 	str.w	r3, [r4, #452]	; 0x1c4
 8005446:	2103      	movs	r1, #3
 8005448:	2204      	movs	r2, #4
 800544a:	0150      	lsls	r0, r2, #5
 800544c:	f500 709c 	add.w	r0, r0, #312	; 0x138
 8005450:	1823      	adds	r3, r4, r0
 8005452:	ea4f 1e02 	mov.w	lr, r2, lsl #4
 8005456:	f8d3 c00c 	ldr.w	ip, [r3, #12]
 800545a:	689e      	ldr	r6, [r3, #8]
 800545c:	f50e 7e9c 	add.w	lr, lr, #312	; 0x138
 8005460:	eb04 050e 	add.w	r5, r4, lr
 8005464:	ea4f 075c 	mov.w	r7, ip, lsr #1
 8005468:	ea47 76c6 	orr.w	r6, r7, r6, lsl #31
 800546c:	60ee      	str	r6, [r5, #12]
 800546e:	689f      	ldr	r7, [r3, #8]
 8005470:	685e      	ldr	r6, [r3, #4]
 8005472:	087f      	lsrs	r7, r7, #1
 8005474:	ea47 76c6 	orr.w	r6, r7, r6, lsl #31
 8005478:	60ae      	str	r6, [r5, #8]
 800547a:	685b      	ldr	r3, [r3, #4]
 800547c:	5826      	ldr	r6, [r4, r0]
 800547e:	085b      	lsrs	r3, r3, #1
 8005480:	ea43 76c6 	orr.w	r6, r3, r6, lsl #31
 8005484:	606e      	str	r6, [r5, #4]
 8005486:	f04f 4361 	mov.w	r3, #3774873600	; 0xe1000000
 800548a:	f00c 0c01 	and.w	ip, ip, #1
 800548e:	fb03 fc0c 	mul.w	ip, r3, ip
 8005492:	5823      	ldr	r3, [r4, r0]
 8005494:	3901      	subs	r1, #1
 8005496:	ea8c 0353 	eor.w	r3, ip, r3, lsr #1
 800549a:	f844 300e 	str.w	r3, [r4, lr]
 800549e:	ea4f 0262 	mov.w	r2, r2, asr #1
 80054a2:	d1d2      	bne.n	800544a <AES_GCM_Encrypt_Init+0xb0>
 80054a4:	2503      	movs	r5, #3
 80054a6:	2602      	movs	r6, #2
 80054a8:	f504 77a4 	add.w	r7, r4, #328	; 0x148
 80054ac:	ea4f 1906 	mov.w	r9, r6, lsl #4
 80054b0:	f04f 0801 	mov.w	r8, #1
 80054b4:	f509 709c 	add.w	r0, r9, #312	; 0x138
 80054b8:	4639      	mov	r1, r7
 80054ba:	eb07 0209 	add.w	r2, r7, r9
 80054be:	4420      	add	r0, r4
 80054c0:	f108 0801 	add.w	r8, r8, #1
 80054c4:	f7fc fc22 	bl	8001d0c <poly_xor>
 80054c8:	45b0      	cmp	r8, r6
 80054ca:	f107 0710 	add.w	r7, r7, #16
 80054ce:	dbf1      	blt.n	80054b4 <AES_GCM_Encrypt_Init+0x11a>
 80054d0:	3d01      	subs	r5, #1
 80054d2:	ea4f 0646 	mov.w	r6, r6, lsl #1
 80054d6:	d1e7      	bne.n	80054a8 <AES_GCM_Encrypt_Init+0x10e>
 80054d8:	f504 789c 	add.w	r8, r4, #312	; 0x138
 80054dc:	f8c4 5138 	str.w	r5, [r4, #312]	; 0x138
 80054e0:	f8c4 513c 	str.w	r5, [r4, #316]	; 0x13c
 80054e4:	f8c4 5140 	str.w	r5, [r4, #320]	; 0x140
 80054e8:	f8c4 5144 	str.w	r5, [r4, #324]	; 0x144
 80054ec:	2610      	movs	r6, #16
 80054ee:	4645      	mov	r5, r8
 80054f0:	4628      	mov	r0, r5
 80054f2:	f505 6180 	add.w	r1, r5, #1024	; 0x400
 80054f6:	f7fc fc3b 	bl	8001d70 <gfmul_x4>
 80054fa:	3e01      	subs	r6, #1
 80054fc:	f105 0510 	add.w	r5, r5, #16
 8005500:	d1f6      	bne.n	80054f0 <AES_GCM_Encrypt_Init+0x156>
 8005502:	f04f 0903 	mov.w	r9, #3
 8005506:	4646      	mov	r6, r8
 8005508:	2700      	movs	r7, #0
 800550a:	f506 7580 	add.w	r5, r6, #256	; 0x100
 800550e:	4630      	mov	r0, r6
 8005510:	4629      	mov	r1, r5
 8005512:	f7fc fc0d 	bl	8001d30 <gfmul_x8>
 8005516:	4628      	mov	r0, r5
 8005518:	4629      	mov	r1, r5
 800551a:	f7fc fc09 	bl	8001d30 <gfmul_x8>
 800551e:	4628      	mov	r0, r5
 8005520:	4629      	mov	r1, r5
 8005522:	f7fc fc05 	bl	8001d30 <gfmul_x8>
 8005526:	4628      	mov	r0, r5
 8005528:	4629      	mov	r1, r5
 800552a:	f7fc fc01 	bl	8001d30 <gfmul_x8>
 800552e:	3701      	adds	r7, #1
 8005530:	f506 61a0 	add.w	r1, r6, #1280	; 0x500
 8005534:	4628      	mov	r0, r5
 8005536:	f7fc fc1b 	bl	8001d70 <gfmul_x4>
 800553a:	2f10      	cmp	r7, #16
 800553c:	f106 0610 	add.w	r6, r6, #16
 8005540:	d1e3      	bne.n	800550a <AES_GCM_Encrypt_Init+0x170>
 8005542:	f1b9 0901 	subs.w	r9, r9, #1
 8005546:	f508 7880 	add.w	r8, r8, #256	; 0x100
 800554a:	d1dc      	bne.n	8005506 <AES_GCM_Encrypt_Init+0x16c>
 800554c:	2000      	movs	r0, #0
 800554e:	2302      	movs	r3, #2
 8005550:	63a0      	str	r0, [r4, #56]	; 0x38
 8005552:	63e0      	str	r0, [r4, #60]	; 0x3c
 8005554:	6420      	str	r0, [r4, #64]	; 0x40
 8005556:	6460      	str	r0, [r4, #68]	; 0x44
 8005558:	6223      	str	r3, [r4, #32]
 800555a:	e004      	b.n	8005566 <AES_GCM_Encrypt_Init+0x1cc>
 800555c:	f44f 6042 	mov.w	r0, #3104	; 0xc20
 8005560:	e001      	b.n	8005566 <AES_GCM_Encrypt_Init+0x1cc>
 8005562:	f640 401f 	movw	r0, #3103	; 0xc1f
 8005566:	b005      	add	sp, #20
 8005568:	e8bd 83f0 	ldmia.w	sp!, {r4, r5, r6, r7, r8, r9, pc}

0800556c <AES_GCM_Header_Append>:
 800556c:	e92d 43f0 	stmdb	sp!, {r4, r5, r6, r7, r8, r9, lr}
 8005570:	460f      	mov	r7, r1
 8005572:	b085      	sub	sp, #20
 8005574:	4616      	mov	r6, r2
 8005576:	4604      	mov	r4, r0
 8005578:	2800      	cmp	r0, #0
 800557a:	d07e      	beq.n	800567a <AES_GCM_Header_Append+0x10e>
 800557c:	2900      	cmp	r1, #0
 800557e:	d07c      	beq.n	800567a <AES_GCM_Header_Append+0x10e>
 8005580:	7905      	ldrb	r5, [r0, #4]
 8005582:	f015 0512 	ands.w	r5, r5, #18
 8005586:	d17b      	bne.n	8005680 <AES_GCM_Header_Append+0x114>
 8005588:	f105 030f 	add.w	r3, r5, #15
 800558c:	42b3      	cmp	r3, r6
 800558e:	da14      	bge.n	80055ba <AES_GCM_Header_Append+0x4e>
 8005590:	2300      	movs	r3, #0
 8005592:	197a      	adds	r2, r7, r5
 8005594:	18e1      	adds	r1, r4, r3
 8005596:	58d2      	ldr	r2, [r2, r3]
 8005598:	6b89      	ldr	r1, [r1, #56]	; 0x38
 800559a:	ba12      	rev	r2, r2
 800559c:	404a      	eors	r2, r1
 800559e:	f84d 2003 	str.w	r2, [sp, r3]
 80055a2:	3304      	adds	r3, #4
 80055a4:	2b10      	cmp	r3, #16
 80055a6:	d1f4      	bne.n	8005592 <AES_GCM_Header_Append+0x26>
 80055a8:	4668      	mov	r0, sp
 80055aa:	f504 719c 	add.w	r1, r4, #312	; 0x138
 80055ae:	f104 0238 	add.w	r2, r4, #56	; 0x38
 80055b2:	f7fe f99f 	bl	80038f4 <gfmul>
 80055b6:	3510      	adds	r5, #16
 80055b8:	e7e6      	b.n	8005588 <AES_GCM_Header_Append+0x1c>
 80055ba:	42b5      	cmp	r5, r6
 80055bc:	da58      	bge.n	8005670 <AES_GCM_Header_Append+0x104>
 80055be:	7923      	ldrb	r3, [r4, #4]
 80055c0:	f043 0310 	orr.w	r3, r3, #16
 80055c4:	7123      	strb	r3, [r4, #4]
 80055c6:	1b70      	subs	r0, r6, r5
 80055c8:	2204      	movs	r2, #4
 80055ca:	2300      	movs	r3, #0
 80055cc:	fb90 f2f2 	sdiv	r2, r0, r2
 80055d0:	4619      	mov	r1, r3
 80055d2:	4291      	cmp	r1, r2
 80055d4:	da10      	bge.n	80055f8 <AES_GCM_Header_Append+0x8c>
 80055d6:	eb07 0e05 	add.w	lr, r7, r5
 80055da:	eb04 0c03 	add.w	ip, r4, r3
 80055de:	f85e e003 	ldr.w	lr, [lr, r3]
 80055e2:	f8dc c038 	ldr.w	ip, [ip, #56]	; 0x38
 80055e6:	fa9e fe8e 	rev.w	lr, lr
 80055ea:	ea8e 0e0c 	eor.w	lr, lr, ip
 80055ee:	f84d e003 	str.w	lr, [sp, r3]
 80055f2:	3101      	adds	r1, #1
 80055f4:	3304      	adds	r3, #4
 80055f6:	e7ec      	b.n	80055d2 <AES_GCM_Header_Append+0x66>
 80055f8:	ea22 72e2 	bic.w	r2, r2, r2, asr #31
 80055fc:	0093      	lsls	r3, r2, #2
 80055fe:	f10d 0e10 	add.w	lr, sp, #16
 8005602:	f102 010e 	add.w	r1, r2, #14
 8005606:	449e      	add	lr, r3
 8005608:	f854 1021 	ldr.w	r1, [r4, r1, lsl #2]
 800560c:	f84e 1c10 	str.w	r1, [lr, #-16]
 8005610:	eb05 0903 	add.w	r9, r5, r3
 8005614:	eba0 0e82 	sub.w	lr, r0, r2, lsl #2
 8005618:	2000      	movs	r0, #0
 800561a:	4570      	cmp	r0, lr
 800561c:	da13      	bge.n	8005646 <AES_GCM_Header_Append+0xda>
 800561e:	eb07 0c09 	add.w	ip, r7, r9
 8005622:	a904      	add	r1, sp, #16
 8005624:	4419      	add	r1, r3
 8005626:	f81c 8000 	ldrb.w	r8, [ip, r0]
 800562a:	f851 5c10 	ldr.w	r5, [r1, #-16]
 800562e:	ea4f 0cc0 	mov.w	ip, r0, lsl #3
 8005632:	f1cc 0c18 	rsb	ip, ip, #24
 8005636:	fa08 fc0c 	lsl.w	ip, r8, ip
 800563a:	ea8c 0c05 	eor.w	ip, ip, r5
 800563e:	f841 cc10 	str.w	ip, [r1, #-16]
 8005642:	3001      	adds	r0, #1
 8005644:	e7e9      	b.n	800561a <AES_GCM_Header_Append+0xae>
 8005646:	1c51      	adds	r1, r2, #1
 8005648:	aa00      	add	r2, sp, #0
 800564a:	18e5      	adds	r5, r4, r3
 800564c:	4413      	add	r3, r2
 800564e:	2200      	movs	r2, #0
 8005650:	2903      	cmp	r1, #3
 8005652:	f102 0204 	add.w	r2, r2, #4
 8005656:	dc04      	bgt.n	8005662 <AES_GCM_Header_Append+0xf6>
 8005658:	18a8      	adds	r0, r5, r2
 800565a:	3101      	adds	r1, #1
 800565c:	6b80      	ldr	r0, [r0, #56]	; 0x38
 800565e:	5098      	str	r0, [r3, r2]
 8005660:	e7f6      	b.n	8005650 <AES_GCM_Header_Append+0xe4>
 8005662:	4668      	mov	r0, sp
 8005664:	f504 719c 	add.w	r1, r4, #312	; 0x138
 8005668:	f104 0238 	add.w	r2, r4, #56	; 0x38
 800566c:	f7fe f942 	bl	80038f4 <gfmul>
 8005670:	6b23      	ldr	r3, [r4, #48]	; 0x30
 8005672:	441e      	add	r6, r3
 8005674:	6326      	str	r6, [r4, #48]	; 0x30
 8005676:	2000      	movs	r0, #0
 8005678:	e004      	b.n	8005684 <AES_GCM_Header_Append+0x118>
 800567a:	f44f 6042 	mov.w	r0, #3104	; 0xc20
 800567e:	e001      	b.n	8005684 <AES_GCM_Header_Append+0x118>
 8005680:	f640 401e 	movw	r0, #3102	; 0xc1e
 8005684:	b005      	add	sp, #20
 8005686:	e8bd 83f0 	ldmia.w	sp!, {r4, r5, r6, r7, r8, r9, pc}

0800568a <AES_GCM_Encrypt_Append>:
 800568a:	b513      	push	{r0, r1, r4, lr}
 800568c:	9c04      	ldr	r4, [sp, #16]
 800568e:	9400      	str	r4, [sp, #0]
 8005690:	2400      	movs	r4, #0
 8005692:	9401      	str	r4, [sp, #4]
 8005694:	f7fe faec 	bl	8003c70 <AESgcmAppend>
 8005698:	b002      	add	sp, #8
 800569a:	bd10      	pop	{r4, pc}

0800569c <AES_GCM_Encrypt_Finish>:
 800569c:	2300      	movs	r3, #0
 800569e:	f7fe bcaf 	b.w	8004000 <AESgcmFinal>

080056a2 <AES_GCM_Decrypt_Init>:
 80056a2:	f7ff be7a 	b.w	800539a <AES_GCM_Encrypt_Init>

080056a6 <AES_GCM_Decrypt_Append>:
 80056a6:	b513      	push	{r0, r1, r4, lr}
 80056a8:	9c04      	ldr	r4, [sp, #16]
 80056aa:	9400      	str	r4, [sp, #0]
 80056ac:	2401      	movs	r4, #1
 80056ae:	9401      	str	r4, [sp, #4]
 80056b0:	f7fe fade 	bl	8003c70 <AESgcmAppend>
 80056b4:	b002      	add	sp, #8
 80056b6:	bd10      	pop	{r4, pc}

080056b8 <AES_GCM_Decrypt_Finish>:
 80056b8:	2100      	movs	r1, #0
 80056ba:	2301      	movs	r3, #1
 80056bc:	f7fe bca0 	b.w	8004000 <AESgcmFinal>

080056c0 <AES_CCM_Encrypt_Init>:
 80056c0:	b5f0      	push	{r4, r5, r6, r7, lr}
 80056c2:	b085      	sub	sp, #20
 80056c4:	4604      	mov	r4, r0
 80056c6:	460e      	mov	r6, r1
 80056c8:	4617      	mov	r7, r2
 80056ca:	4668      	mov	r0, sp
 80056cc:	2100      	movs	r1, #0
 80056ce:	2210      	movs	r2, #16
 80056d0:	f009 f937 	bl	800e942 <memset>
 80056d4:	2c00      	cmp	r4, #0
 80056d6:	f000 80d0 	beq.w	800587a <AES_CCM_Encrypt_Init+0x1ba>
 80056da:	2e00      	cmp	r6, #0
 80056dc:	f000 80cd 	beq.w	800587a <AES_CCM_Encrypt_Init+0x1ba>
 80056e0:	2f00      	cmp	r7, #0
 80056e2:	f000 80ca 	beq.w	800587a <AES_CCM_Encrypt_Init+0x1ba>
 80056e6:	6be5      	ldr	r5, [r4, #60]	; 0x3c
 80056e8:	1f2b      	subs	r3, r5, #4
 80056ea:	2b0c      	cmp	r3, #12
 80056ec:	f200 80c8 	bhi.w	8005880 <AES_CCM_Encrypt_Init+0x1c0>
 80056f0:	f015 0501 	ands.w	r5, r5, #1
 80056f4:	f040 80c4 	bne.w	8005880 <AES_CCM_Encrypt_Init+0x1c0>
 80056f8:	6923      	ldr	r3, [r4, #16]
 80056fa:	3b07      	subs	r3, #7
 80056fc:	2b06      	cmp	r3, #6
 80056fe:	f200 80bf 	bhi.w	8005880 <AES_CCM_Encrypt_Init+0x1c0>
 8005702:	6b63      	ldr	r3, [r4, #52]	; 0x34
 8005704:	f023 0208 	bic.w	r2, r3, #8
 8005708:	2a10      	cmp	r2, #16
 800570a:	d002      	beq.n	8005712 <AES_CCM_Encrypt_Init+0x52>
 800570c:	2b20      	cmp	r3, #32
 800570e:	f040 80b7 	bne.w	8005880 <AES_CCM_Encrypt_Init+0x1c0>
 8005712:	7922      	ldrb	r2, [r4, #4]
 8005714:	60e7      	str	r7, [r4, #12]
 8005716:	f022 0116 	bic.w	r1, r2, #22
 800571a:	07d2      	lsls	r2, r2, #31
 800571c:	7121      	strb	r1, [r4, #4]
 800571e:	d406      	bmi.n	800572e <AES_CCM_Encrypt_Init+0x6e>
 8005720:	60a6      	str	r6, [r4, #8]
 8005722:	4630      	mov	r0, r6
 8005724:	f104 0148 	add.w	r1, r4, #72	; 0x48
 8005728:	461a      	mov	r2, r3
 800572a:	f7fe f936 	bl	800399a <AES_keyschedule_enc>
 800572e:	6921      	ldr	r1, [r4, #16]
 8005730:	f894 203c 	ldrb.w	r2, [r4, #60]	; 0x3c
 8005734:	f1c1 030e 	rsb	r3, r1, #14
 8005738:	3a02      	subs	r2, #2
 800573a:	f003 0307 	and.w	r3, r3, #7
 800573e:	f3c2 0242 	ubfx	r2, r2, #1, #3
 8005742:	ea43 02c2 	orr.w	r2, r3, r2, lsl #3
 8005746:	6c23      	ldr	r3, [r4, #64]	; 0x40
 8005748:	b10b      	cbz	r3, 800574e <AES_CCM_Encrypt_Init+0x8e>
 800574a:	f042 0240 	orr.w	r2, r2, #64	; 0x40
 800574e:	68e3      	ldr	r3, [r4, #12]
 8005750:	7858      	ldrb	r0, [r3, #1]
 8005752:	781e      	ldrb	r6, [r3, #0]
 8005754:	0200      	lsls	r0, r0, #8
 8005756:	ea40 4006 	orr.w	r0, r0, r6, lsl #16
 800575a:	789e      	ldrb	r6, [r3, #2]
 800575c:	4330      	orrs	r0, r6
 800575e:	ea40 6202 	orr.w	r2, r0, r2, lsl #24
 8005762:	9200      	str	r2, [sp, #0]
 8005764:	791a      	ldrb	r2, [r3, #4]
 8005766:	78d8      	ldrb	r0, [r3, #3]
 8005768:	0412      	lsls	r2, r2, #16
 800576a:	ea42 6200 	orr.w	r2, r2, r0, lsl #24
 800576e:	7998      	ldrb	r0, [r3, #6]
 8005770:	4302      	orrs	r2, r0
 8005772:	7958      	ldrb	r0, [r3, #5]
 8005774:	ea42 2200 	orr.w	r2, r2, r0, lsl #8
 8005778:	9201      	str	r2, [sp, #4]
 800577a:	2207      	movs	r2, #7
 800577c:	428a      	cmp	r2, r1
 800577e:	da16      	bge.n	80057ae <AES_CCM_Encrypt_Init+0xee>
 8005780:	1fd6      	subs	r6, r2, #7
 8005782:	2004      	movs	r0, #4
 8005784:	fb96 f0f0 	sdiv	r0, r6, r0
 8005788:	f1c2 0706 	rsb	r7, r2, #6
 800578c:	ae04      	add	r6, sp, #16
 800578e:	3002      	adds	r0, #2
 8005790:	eb06 0080 	add.w	r0, r6, r0, lsl #2
 8005794:	f007 0703 	and.w	r7, r7, #3
 8005798:	5c9e      	ldrb	r6, [r3, r2]
 800579a:	00ff      	lsls	r7, r7, #3
 800579c:	fa06 f707 	lsl.w	r7, r6, r7
 80057a0:	f850 6c10 	ldr.w	r6, [r0, #-16]
 80057a4:	433e      	orrs	r6, r7
 80057a6:	f840 6c10 	str.w	r6, [r0, #-16]
 80057aa:	3201      	adds	r2, #1
 80057ac:	e7e6      	b.n	800577c <AES_CCM_Encrypt_Init+0xbc>
 80057ae:	9a03      	ldr	r2, [sp, #12]
 80057b0:	6c63      	ldr	r3, [r4, #68]	; 0x44
 80057b2:	4313      	orrs	r3, r2
 80057b4:	9303      	str	r3, [sp, #12]
 80057b6:	4668      	mov	r0, sp
 80057b8:	f104 0124 	add.w	r1, r4, #36	; 0x24
 80057bc:	f104 0248 	add.w	r2, r4, #72	; 0x48
 80057c0:	6b63      	ldr	r3, [r4, #52]	; 0x34
 80057c2:	f7fe f8fb 	bl	80039bc <AES_general_SW_enc>
 80057c6:	68e3      	ldr	r3, [r4, #12]
 80057c8:	6921      	ldr	r1, [r4, #16]
 80057ca:	7858      	ldrb	r0, [r3, #1]
 80057cc:	781a      	ldrb	r2, [r3, #0]
 80057ce:	789e      	ldrb	r6, [r3, #2]
 80057d0:	0200      	lsls	r0, r0, #8
 80057d2:	ea40 4002 	orr.w	r0, r0, r2, lsl #16
 80057d6:	f1c1 020e 	rsb	r2, r1, #14
 80057da:	4330      	orrs	r0, r6
 80057dc:	f002 0207 	and.w	r2, r2, #7
 80057e0:	ea40 6202 	orr.w	r2, r0, r2, lsl #24
 80057e4:	6162      	str	r2, [r4, #20]
 80057e6:	791a      	ldrb	r2, [r3, #4]
 80057e8:	78d8      	ldrb	r0, [r3, #3]
 80057ea:	0412      	lsls	r2, r2, #16
 80057ec:	ea42 6200 	orr.w	r2, r2, r0, lsl #24
 80057f0:	7998      	ldrb	r0, [r3, #6]
 80057f2:	4302      	orrs	r2, r0
 80057f4:	7958      	ldrb	r0, [r3, #5]
 80057f6:	ea42 2200 	orr.w	r2, r2, r0, lsl #8
 80057fa:	61a2      	str	r2, [r4, #24]
 80057fc:	2200      	movs	r2, #0
 80057fe:	61e2      	str	r2, [r4, #28]
 8005800:	6222      	str	r2, [r4, #32]
 8005802:	2207      	movs	r2, #7
 8005804:	428a      	cmp	r2, r1
 8005806:	da13      	bge.n	8005830 <AES_CCM_Encrypt_Init+0x170>
 8005808:	1fd6      	subs	r6, r2, #7
 800580a:	2004      	movs	r0, #4
 800580c:	fb96 f0f0 	sdiv	r0, r6, r0
 8005810:	f1c2 0706 	rsb	r7, r2, #6
 8005814:	3002      	adds	r0, #2
 8005816:	5c9e      	ldrb	r6, [r3, r2]
 8005818:	eb04 0080 	add.w	r0, r4, r0, lsl #2
 800581c:	f007 0703 	and.w	r7, r7, #3
 8005820:	00ff      	lsls	r7, r7, #3
 8005822:	fa06 f707 	lsl.w	r7, r6, r7
 8005826:	6946      	ldr	r6, [r0, #20]
 8005828:	433e      	orrs	r6, r7
 800582a:	6146      	str	r6, [r0, #20]
 800582c:	3201      	adds	r2, #1
 800582e:	e7e9      	b.n	8005804 <AES_CCM_Encrypt_Init+0x144>
 8005830:	6a23      	ldr	r3, [r4, #32]
 8005832:	f043 0301 	orr.w	r3, r3, #1
 8005836:	6223      	str	r3, [r4, #32]
 8005838:	6c23      	ldr	r3, [r4, #64]	; 0x40
 800583a:	2200      	movs	r2, #0
 800583c:	b31b      	cbz	r3, 8005886 <AES_CCM_Encrypt_Init+0x1c6>
 800583e:	f5b3 4f7f 	cmp.w	r3, #65280	; 0xff00
 8005842:	f8c4 2138 	str.w	r2, [r4, #312]	; 0x138
 8005846:	f8c4 213c 	str.w	r2, [r4, #316]	; 0x13c
 800584a:	f8c4 2140 	str.w	r2, [r4, #320]	; 0x140
 800584e:	f8c4 2144 	str.w	r2, [r4, #324]	; 0x144
 8005852:	ea4f 4203 	mov.w	r2, r3, lsl #16
 8005856:	da03      	bge.n	8005860 <AES_CCM_Encrypt_Init+0x1a0>
 8005858:	f8c4 2138 	str.w	r2, [r4, #312]	; 0x138
 800585c:	2302      	movs	r3, #2
 800585e:	e009      	b.n	8005874 <AES_CCM_Encrypt_Init+0x1b4>
 8005860:	0c1b      	lsrs	r3, r3, #16
 8005862:	ea6f 33c3 	mvn.w	r3, r3, lsl #15
 8005866:	ea6f 33d3 	mvn.w	r3, r3, lsr #15
 800586a:	f8c4 3138 	str.w	r3, [r4, #312]	; 0x138
 800586e:	f8c4 213c 	str.w	r2, [r4, #316]	; 0x13c
 8005872:	2306      	movs	r3, #6
 8005874:	f8c4 3148 	str.w	r3, [r4, #328]	; 0x148
 8005878:	e006      	b.n	8005888 <AES_CCM_Encrypt_Init+0x1c8>
 800587a:	f44f 6542 	mov.w	r5, #3104	; 0xc20
 800587e:	e003      	b.n	8005888 <AES_CCM_Encrypt_Init+0x1c8>
 8005880:	f640 451f 	movw	r5, #3103	; 0xc1f
 8005884:	e000      	b.n	8005888 <AES_CCM_Encrypt_Init+0x1c8>
 8005886:	461d      	mov	r5, r3
 8005888:	4628      	mov	r0, r5
 800588a:	b005      	add	sp, #20
 800588c:	bdf0      	pop	{r4, r5, r6, r7, pc}

0800588e <AES_CCM_Header_Append>:
 800588e:	e92d 47f0 	stmdb	sp!, {r4, r5, r6, r7, r8, r9, sl, lr}
 8005892:	4688      	mov	r8, r1
 8005894:	4616      	mov	r6, r2
 8005896:	4604      	mov	r4, r0
 8005898:	2800      	cmp	r0, #0
 800589a:	f000 80be 	beq.w	8005a1a <AES_CCM_Header_Append+0x18c>
 800589e:	2900      	cmp	r1, #0
 80058a0:	f000 80bb 	beq.w	8005a1a <AES_CCM_Header_Append+0x18c>
 80058a4:	7903      	ldrb	r3, [r0, #4]
 80058a6:	f013 0312 	ands.w	r3, r3, #18
 80058aa:	f040 80b9 	bne.w	8005a20 <AES_CCM_Header_Append+0x192>
 80058ae:	b90a      	cbnz	r2, 80058b4 <AES_CCM_Header_Append+0x26>
 80058b0:	2500      	movs	r5, #0
 80058b2:	e0b7      	b.n	8005a24 <AES_CCM_Header_Append+0x196>
 80058b4:	6c02      	ldr	r2, [r0, #64]	; 0x40
 80058b6:	f8d0 1148 	ldr.w	r1, [r0, #328]	; 0x148
 80058ba:	1b92      	subs	r2, r2, r6
 80058bc:	6402      	str	r2, [r0, #64]	; 0x40
 80058be:	1872      	adds	r2, r6, r1
 80058c0:	1858      	adds	r0, r3, r1
 80058c2:	2a10      	cmp	r2, #16
 80058c4:	bf28      	it	cs
 80058c6:	2210      	movcs	r2, #16
 80058c8:	4290      	cmp	r0, r2
 80058ca:	461d      	mov	r5, r3
 80058cc:	f04f 0a04 	mov.w	sl, #4
 80058d0:	da13      	bge.n	80058fa <AES_CCM_Header_Append+0x6c>
 80058d2:	43cd      	mvns	r5, r1
 80058d4:	1aed      	subs	r5, r5, r3
 80058d6:	fb90 f0fa 	sdiv	r0, r0, sl
 80058da:	f818 2003 	ldrb.w	r2, [r8, r3]
 80058de:	eb04 0080 	add.w	r0, r4, r0, lsl #2
 80058e2:	f005 0503 	and.w	r5, r5, #3
 80058e6:	00ed      	lsls	r5, r5, #3
 80058e8:	fa02 f505 	lsl.w	r5, r2, r5
 80058ec:	f8d0 2138 	ldr.w	r2, [r0, #312]	; 0x138
 80058f0:	432a      	orrs	r2, r5
 80058f2:	f8c0 2138 	str.w	r2, [r0, #312]	; 0x138
 80058f6:	3301      	adds	r3, #1
 80058f8:	e7e1      	b.n	80058be <AES_CCM_Header_Append+0x30>
 80058fa:	4623      	mov	r3, r4
 80058fc:	6a59      	ldr	r1, [r3, #36]	; 0x24
 80058fe:	f8d3 2138 	ldr.w	r2, [r3, #312]	; 0x138
 8005902:	f1ba 0a01 	subs.w	sl, sl, #1
 8005906:	ea81 0202 	eor.w	r2, r1, r2
 800590a:	625a      	str	r2, [r3, #36]	; 0x24
 800590c:	f103 0304 	add.w	r3, r3, #4
 8005910:	d1f4      	bne.n	80058fc <AES_CCM_Header_Append+0x6e>
 8005912:	f104 0724 	add.w	r7, r4, #36	; 0x24
 8005916:	f104 0948 	add.w	r9, r4, #72	; 0x48
 800591a:	4638      	mov	r0, r7
 800591c:	4639      	mov	r1, r7
 800591e:	464a      	mov	r2, r9
 8005920:	6b63      	ldr	r3, [r4, #52]	; 0x34
 8005922:	f7fe f84b 	bl	80039bc <AES_general_SW_enc>
 8005926:	f8c4 a148 	str.w	sl, [r4, #328]	; 0x148
 800592a:	f105 030f 	add.w	r3, r5, #15
 800592e:	42b3      	cmp	r3, r6
 8005930:	da13      	bge.n	800595a <AES_CCM_Header_Append+0xcc>
 8005932:	2300      	movs	r3, #0
 8005934:	eb08 0205 	add.w	r2, r8, r5
 8005938:	58d0      	ldr	r0, [r2, r3]
 800593a:	18e2      	adds	r2, r4, r3
 800593c:	ba00      	rev	r0, r0
 800593e:	6a51      	ldr	r1, [r2, #36]	; 0x24
 8005940:	3304      	adds	r3, #4
 8005942:	4041      	eors	r1, r0
 8005944:	2b10      	cmp	r3, #16
 8005946:	6251      	str	r1, [r2, #36]	; 0x24
 8005948:	d1f4      	bne.n	8005934 <AES_CCM_Header_Append+0xa6>
 800594a:	4638      	mov	r0, r7
 800594c:	4639      	mov	r1, r7
 800594e:	464a      	mov	r2, r9
 8005950:	6b63      	ldr	r3, [r4, #52]	; 0x34
 8005952:	f7fe f833 	bl	80039bc <AES_general_SW_enc>
 8005956:	3510      	adds	r5, #16
 8005958:	e7e7      	b.n	800592a <AES_CCM_Header_Append+0x9c>
 800595a:	42b5      	cmp	r5, r6
 800595c:	daa8      	bge.n	80058b0 <AES_CCM_Header_Append+0x22>
 800595e:	7923      	ldrb	r3, [r4, #4]
 8005960:	ebc5 0c06 	rsb	ip, r5, r6
 8005964:	f043 0310 	orr.w	r3, r3, #16
 8005968:	2204      	movs	r2, #4
 800596a:	7123      	strb	r3, [r4, #4]
 800596c:	fb9c f2f2 	sdiv	r2, ip, r2
 8005970:	2300      	movs	r3, #0
 8005972:	4293      	cmp	r3, r2
 8005974:	da0a      	bge.n	800598c <AES_CCM_Header_Append+0xfe>
 8005976:	eb08 0105 	add.w	r1, r8, r5
 800597a:	f851 0023 	ldr.w	r0, [r1, r3, lsl #2]
 800597e:	eb04 0183 	add.w	r1, r4, r3, lsl #2
 8005982:	ba00      	rev	r0, r0
 8005984:	f8c1 0138 	str.w	r0, [r1, #312]	; 0x138
 8005988:	3301      	adds	r3, #1
 800598a:	e7f2      	b.n	8005972 <AES_CCM_Header_Append+0xe4>
 800598c:	ea22 72e2 	bic.w	r2, r2, r2, asr #31
 8005990:	0091      	lsls	r1, r2, #2
 8005992:	1866      	adds	r6, r4, r1
 8005994:	2300      	movs	r3, #0
 8005996:	f8c6 3138 	str.w	r3, [r6, #312]	; 0x138
 800599a:	ebac 0c82 	sub.w	ip, ip, r2, lsl #2
 800599e:	440d      	add	r5, r1
 80059a0:	4563      	cmp	r3, ip
 80059a2:	da10      	bge.n	80059c6 <AES_CCM_Header_Append+0x138>
 80059a4:	eb08 0005 	add.w	r0, r8, r5
 80059a8:	ea4f 0ac3 	mov.w	sl, r3, lsl #3
 80059ac:	5cc0      	ldrb	r0, [r0, r3]
 80059ae:	f1ca 0a18 	rsb	sl, sl, #24
 80059b2:	fa00 fa0a 	lsl.w	sl, r0, sl
 80059b6:	f8d6 0138 	ldr.w	r0, [r6, #312]	; 0x138
 80059ba:	ea40 000a 	orr.w	r0, r0, sl
 80059be:	f8c6 0138 	str.w	r0, [r6, #312]	; 0x138
 80059c2:	3301      	adds	r3, #1
 80059c4:	e7ec      	b.n	80059a0 <AES_CCM_Header_Append+0x112>
 80059c6:	f1bc 0f00 	cmp.w	ip, #0
 80059ca:	bfa8      	it	ge
 80059cc:	4461      	addge	r1, ip
 80059ce:	1c53      	adds	r3, r2, #1
 80059d0:	324e      	adds	r2, #78	; 0x4e
 80059d2:	f8c4 1148 	str.w	r1, [r4, #328]	; 0x148
 80059d6:	eb04 0282 	add.w	r2, r4, r2, lsl #2
 80059da:	2b03      	cmp	r3, #3
 80059dc:	dc04      	bgt.n	80059e8 <AES_CCM_Header_Append+0x15a>
 80059de:	2100      	movs	r1, #0
 80059e0:	f842 1f04 	str.w	r1, [r2, #4]!
 80059e4:	3301      	adds	r3, #1
 80059e6:	e7f8      	b.n	80059da <AES_CCM_Header_Append+0x14c>
 80059e8:	6c25      	ldr	r5, [r4, #64]	; 0x40
 80059ea:	2d00      	cmp	r5, #0
 80059ec:	f47f af60 	bne.w	80058b0 <AES_CCM_Header_Append+0x22>
 80059f0:	4623      	mov	r3, r4
 80059f2:	2204      	movs	r2, #4
 80059f4:	f8d3 0138 	ldr.w	r0, [r3, #312]	; 0x138
 80059f8:	6a59      	ldr	r1, [r3, #36]	; 0x24
 80059fa:	3a01      	subs	r2, #1
 80059fc:	ea80 0101 	eor.w	r1, r0, r1
 8005a00:	f8c3 1138 	str.w	r1, [r3, #312]	; 0x138
 8005a04:	f103 0304 	add.w	r3, r3, #4
 8005a08:	d1f4      	bne.n	80059f4 <AES_CCM_Header_Append+0x166>
 8005a0a:	f504 709c 	add.w	r0, r4, #312	; 0x138
 8005a0e:	4639      	mov	r1, r7
 8005a10:	464a      	mov	r2, r9
 8005a12:	6b63      	ldr	r3, [r4, #52]	; 0x34
 8005a14:	f7fd ffd2 	bl	80039bc <AES_general_SW_enc>
 8005a18:	e004      	b.n	8005a24 <AES_CCM_Header_Append+0x196>
 8005a1a:	f44f 6542 	mov.w	r5, #3104	; 0xc20
 8005a1e:	e001      	b.n	8005a24 <AES_CCM_Header_Append+0x196>
 8005a20:	f640 451e 	movw	r5, #3102	; 0xc1e
 8005a24:	4628      	mov	r0, r5
 8005a26:	e8bd 87f0 	ldmia.w	sp!, {r4, r5, r6, r7, r8, r9, sl, pc}
	...

08005a2c <AES_CCM_Encrypt_Append>:
 8005a2c:	e92d 4ff0 	stmdb	sp!, {r4, r5, r6, r7, r8, r9, sl, fp, lr}
 8005a30:	b08d      	sub	sp, #52	; 0x34
 8005a32:	ae08      	add	r6, sp, #32
 8005a34:	4604      	mov	r4, r0
 8005a36:	468a      	mov	sl, r1
 8005a38:	4690      	mov	r8, r2
 8005a3a:	4630      	mov	r0, r6
 8005a3c:	2100      	movs	r1, #0
 8005a3e:	2210      	movs	r2, #16
 8005a40:	4699      	mov	r9, r3
 8005a42:	f008 ff7e 	bl	800e942 <memset>
 8005a46:	2300      	movs	r3, #0
 8005a48:	9303      	str	r3, [sp, #12]
 8005a4a:	2c00      	cmp	r4, #0
 8005a4c:	f000 816b 	beq.w	8005d26 <AES_CCM_Encrypt_Append+0x2fa>
 8005a50:	f1ba 0f00 	cmp.w	sl, #0
 8005a54:	f000 8167 	beq.w	8005d26 <AES_CCM_Encrypt_Append+0x2fa>
 8005a58:	f1b9 0f00 	cmp.w	r9, #0
 8005a5c:	f000 8163 	beq.w	8005d26 <AES_CCM_Encrypt_Append+0x2fa>
 8005a60:	9816      	ldr	r0, [sp, #88]	; 0x58
 8005a62:	2800      	cmp	r0, #0
 8005a64:	f000 815f 	beq.w	8005d26 <AES_CCM_Encrypt_Append+0x2fa>
 8005a68:	7925      	ldrb	r5, [r4, #4]
 8005a6a:	f015 0506 	ands.w	r5, r5, #6
 8005a6e:	f040 815d 	bne.w	8005d2c <AES_CCM_Encrypt_Append+0x300>
 8005a72:	4bb1      	ldr	r3, [pc, #708]	; (8005d38 <AES_CCM_Encrypt_Append+0x30c>)
 8005a74:	2201      	movs	r2, #1
 8005a76:	601a      	str	r2, [r3, #0]
 8005a78:	681b      	ldr	r3, [r3, #0]
 8005a7a:	9303      	str	r3, [sp, #12]
 8005a7c:	4baf      	ldr	r3, [pc, #700]	; (8005d3c <AES_CCM_Encrypt_Append+0x310>)
 8005a7e:	681a      	ldr	r2, [r3, #0]
 8005a80:	9203      	str	r2, [sp, #12]
 8005a82:	9a03      	ldr	r2, [sp, #12]
 8005a84:	3201      	adds	r2, #1
 8005a86:	f040 809d 	bne.w	8005bc4 <AES_CCM_Encrypt_Append+0x198>
 8005a8a:	9a03      	ldr	r2, [sp, #12]
 8005a8c:	601a      	str	r2, [r3, #0]
 8005a8e:	681b      	ldr	r3, [r3, #0]
 8005a90:	9303      	str	r3, [sp, #12]
 8005a92:	9b03      	ldr	r3, [sp, #12]
 8005a94:	2b00      	cmp	r3, #0
 8005a96:	d161      	bne.n	8005b5c <AES_CCM_Encrypt_Append+0x130>
 8005a98:	461d      	mov	r5, r3
 8005a9a:	f105 030f 	add.w	r3, r5, #15
 8005a9e:	4543      	cmp	r3, r8
 8005aa0:	f280 8096 	bge.w	8005bd0 <AES_CCM_Encrypt_Append+0x1a4>
 8005aa4:	2300      	movs	r3, #0
 8005aa6:	eb0a 0205 	add.w	r2, sl, r5
 8005aaa:	af04      	add	r7, sp, #16
 8005aac:	58d1      	ldr	r1, [r2, r3]
 8005aae:	18e2      	adds	r2, r4, r3
 8005ab0:	ba09      	rev	r1, r1
 8005ab2:	6a50      	ldr	r0, [r2, #36]	; 0x24
 8005ab4:	51d9      	str	r1, [r3, r7]
 8005ab6:	3304      	adds	r3, #4
 8005ab8:	4041      	eors	r1, r0
 8005aba:	2b10      	cmp	r3, #16
 8005abc:	6251      	str	r1, [r2, #36]	; 0x24
 8005abe:	d1f2      	bne.n	8005aa6 <AES_CCM_Encrypt_Append+0x7a>
 8005ac0:	f104 0024 	add.w	r0, r4, #36	; 0x24
 8005ac4:	f104 0b48 	add.w	fp, r4, #72	; 0x48
 8005ac8:	4601      	mov	r1, r0
 8005aca:	465a      	mov	r2, fp
 8005acc:	6b63      	ldr	r3, [r4, #52]	; 0x34
 8005ace:	f7fd ff75 	bl	80039bc <AES_general_SW_enc>
 8005ad2:	6b63      	ldr	r3, [r4, #52]	; 0x34
 8005ad4:	f104 0014 	add.w	r0, r4, #20
 8005ad8:	4631      	mov	r1, r6
 8005ada:	465a      	mov	r2, fp
 8005adc:	f7fd ff6e 	bl	80039bc <AES_general_SW_enc>
 8005ae0:	6a23      	ldr	r3, [r4, #32]
 8005ae2:	3301      	adds	r3, #1
 8005ae4:	6223      	str	r3, [r4, #32]
 8005ae6:	2300      	movs	r3, #0
 8005ae8:	58f9      	ldr	r1, [r7, r3]
 8005aea:	58f2      	ldr	r2, [r6, r3]
 8005aec:	eb09 0005 	add.w	r0, r9, r5
 8005af0:	404a      	eors	r2, r1
 8005af2:	ba12      	rev	r2, r2
 8005af4:	50c2      	str	r2, [r0, r3]
 8005af6:	3304      	adds	r3, #4
 8005af8:	2b10      	cmp	r3, #16
 8005afa:	d1f5      	bne.n	8005ae8 <AES_CCM_Encrypt_Append+0xbc>
 8005afc:	3510      	adds	r5, #16
 8005afe:	e7cc      	b.n	8005a9a <AES_CCM_Encrypt_Append+0x6e>
 8005b00:	eb0a 0205 	add.w	r2, sl, r5
 8005b04:	af04      	add	r7, sp, #16
 8005b06:	58d1      	ldr	r1, [r2, r3]
 8005b08:	18e2      	adds	r2, r4, r3
 8005b0a:	ba09      	rev	r1, r1
 8005b0c:	6a50      	ldr	r0, [r2, #36]	; 0x24
 8005b0e:	51d9      	str	r1, [r3, r7]
 8005b10:	3304      	adds	r3, #4
 8005b12:	4301      	orrs	r1, r0
 8005b14:	2b10      	cmp	r3, #16
 8005b16:	6251      	str	r1, [r2, #36]	; 0x24
 8005b18:	d1f2      	bne.n	8005b00 <AES_CCM_Encrypt_Append+0xd4>
 8005b1a:	f104 0024 	add.w	r0, r4, #36	; 0x24
 8005b1e:	f104 0b48 	add.w	fp, r4, #72	; 0x48
 8005b22:	4601      	mov	r1, r0
 8005b24:	465a      	mov	r2, fp
 8005b26:	6b63      	ldr	r3, [r4, #52]	; 0x34
 8005b28:	f7fd ff48 	bl	80039bc <AES_general_SW_enc>
 8005b2c:	6b63      	ldr	r3, [r4, #52]	; 0x34
 8005b2e:	f104 0014 	add.w	r0, r4, #20
 8005b32:	4631      	mov	r1, r6
 8005b34:	465a      	mov	r2, fp
 8005b36:	f7fd ff41 	bl	80039bc <AES_general_SW_enc>
 8005b3a:	6a23      	ldr	r3, [r4, #32]
 8005b3c:	3301      	adds	r3, #1
 8005b3e:	6223      	str	r3, [r4, #32]
 8005b40:	2300      	movs	r3, #0
 8005b42:	f857 1023 	ldr.w	r1, [r7, r3, lsl #2]
 8005b46:	f856 2023 	ldr.w	r2, [r6, r3, lsl #2]
 8005b4a:	eb09 0005 	add.w	r0, r9, r5
 8005b4e:	400a      	ands	r2, r1
 8005b50:	ba12      	rev	r2, r2
 8005b52:	50c2      	str	r2, [r0, r3]
 8005b54:	3301      	adds	r3, #1
 8005b56:	2b04      	cmp	r3, #4
 8005b58:	d1f3      	bne.n	8005b42 <AES_CCM_Encrypt_Append+0x116>
 8005b5a:	3510      	adds	r5, #16
 8005b5c:	f105 030f 	add.w	r3, r5, #15
 8005b60:	4543      	cmp	r3, r8
 8005b62:	da35      	bge.n	8005bd0 <AES_CCM_Encrypt_Append+0x1a4>
 8005b64:	2300      	movs	r3, #0
 8005b66:	e7cb      	b.n	8005b00 <AES_CCM_Encrypt_Append+0xd4>
 8005b68:	eb0a 0205 	add.w	r2, sl, r5
 8005b6c:	af04      	add	r7, sp, #16
 8005b6e:	58d1      	ldr	r1, [r2, r3]
 8005b70:	18e2      	adds	r2, r4, r3
 8005b72:	ba09      	rev	r1, r1
 8005b74:	6a50      	ldr	r0, [r2, #36]	; 0x24
 8005b76:	51d9      	str	r1, [r3, r7]
 8005b78:	3304      	adds	r3, #4
 8005b7a:	4301      	orrs	r1, r0
 8005b7c:	2b10      	cmp	r3, #16
 8005b7e:	6251      	str	r1, [r2, #36]	; 0x24
 8005b80:	d1f2      	bne.n	8005b68 <AES_CCM_Encrypt_Append+0x13c>
 8005b82:	f104 0024 	add.w	r0, r4, #36	; 0x24
 8005b86:	f104 0b48 	add.w	fp, r4, #72	; 0x48
 8005b8a:	4601      	mov	r1, r0
 8005b8c:	465a      	mov	r2, fp
 8005b8e:	6b63      	ldr	r3, [r4, #52]	; 0x34
 8005b90:	f7fd ff14 	bl	80039bc <AES_general_SW_enc>
 8005b94:	6b63      	ldr	r3, [r4, #52]	; 0x34
 8005b96:	f104 0014 	add.w	r0, r4, #20
 8005b9a:	4631      	mov	r1, r6
 8005b9c:	465a      	mov	r2, fp
 8005b9e:	f7fd ff0d 	bl	80039bc <AES_general_SW_enc>
 8005ba2:	6a23      	ldr	r3, [r4, #32]
 8005ba4:	3301      	adds	r3, #1
 8005ba6:	6223      	str	r3, [r4, #32]
 8005ba8:	2300      	movs	r3, #0
 8005baa:	f857 1023 	ldr.w	r1, [r7, r3, lsl #2]
 8005bae:	f856 2023 	ldr.w	r2, [r6, r3, lsl #2]
 8005bb2:	eb09 0005 	add.w	r0, r9, r5
 8005bb6:	400a      	ands	r2, r1
 8005bb8:	ba12      	rev	r2, r2
 8005bba:	50c2      	str	r2, [r0, r3]
 8005bbc:	3301      	adds	r3, #1
 8005bbe:	2b04      	cmp	r3, #4
 8005bc0:	d1f3      	bne.n	8005baa <AES_CCM_Encrypt_Append+0x17e>
 8005bc2:	3510      	adds	r5, #16
 8005bc4:	f105 030f 	add.w	r3, r5, #15
 8005bc8:	4543      	cmp	r3, r8
 8005bca:	da01      	bge.n	8005bd0 <AES_CCM_Encrypt_Append+0x1a4>
 8005bcc:	2300      	movs	r3, #0
 8005bce:	e7cb      	b.n	8005b68 <AES_CCM_Encrypt_Append+0x13c>
 8005bd0:	4545      	cmp	r5, r8
 8005bd2:	db04      	blt.n	8005bde <AES_CCM_Encrypt_Append+0x1b2>
 8005bd4:	9916      	ldr	r1, [sp, #88]	; 0x58
 8005bd6:	2000      	movs	r0, #0
 8005bd8:	f8c1 8000 	str.w	r8, [r1]
 8005bdc:	e0a8      	b.n	8005d30 <AES_CCM_Encrypt_Append+0x304>
 8005bde:	7923      	ldrb	r3, [r4, #4]
 8005be0:	f043 0304 	orr.w	r3, r3, #4
 8005be4:	7123      	strb	r3, [r4, #4]
 8005be6:	ebc5 0008 	rsb	r0, r5, r8
 8005bea:	2704      	movs	r7, #4
 8005bec:	2300      	movs	r3, #0
 8005bee:	fb90 f7f7 	sdiv	r7, r0, r7
 8005bf2:	461a      	mov	r2, r3
 8005bf4:	42ba      	cmp	r2, r7
 8005bf6:	da11      	bge.n	8005c1c <AES_CCM_Encrypt_Append+0x1f0>
 8005bf8:	eb0a 0105 	add.w	r1, sl, r5
 8005bfc:	f10d 0e10 	add.w	lr, sp, #16
 8005c00:	58c9      	ldr	r1, [r1, r3]
 8005c02:	ba09      	rev	r1, r1
 8005c04:	f843 100e 	str.w	r1, [r3, lr]
 8005c08:	eb04 0e03 	add.w	lr, r4, r3
 8005c0c:	3201      	adds	r2, #1
 8005c0e:	f8de e024 	ldr.w	lr, [lr, #36]	; 0x24
 8005c12:	ea81 010e 	eor.w	r1, r1, lr
 8005c16:	50f1      	str	r1, [r6, r3]
 8005c18:	3304      	adds	r3, #4
 8005c1a:	e7eb      	b.n	8005bf4 <AES_CCM_Encrypt_Append+0x1c8>
 8005c1c:	ea27 76e7 	bic.w	r6, r7, r7, asr #31
 8005c20:	00b1      	lsls	r1, r6, #2
 8005c22:	aa0c      	add	r2, sp, #48	; 0x30
 8005c24:	440a      	add	r2, r1
 8005c26:	2300      	movs	r3, #0
 8005c28:	eba0 0086 	sub.w	r0, r0, r6, lsl #2
 8005c2c:	f842 3c20 	str.w	r3, [r2, #-32]
 8005c30:	9001      	str	r0, [sp, #4]
 8005c32:	eb01 0b05 	add.w	fp, r1, r5
 8005c36:	9a01      	ldr	r2, [sp, #4]
 8005c38:	4293      	cmp	r3, r2
 8005c3a:	ea4f 0286 	mov.w	r2, r6, lsl #2
 8005c3e:	da12      	bge.n	8005c66 <AES_CCM_Encrypt_Append+0x23a>
 8005c40:	a80c      	add	r0, sp, #48	; 0x30
 8005c42:	4402      	add	r2, r0
 8005c44:	eb0a 000b 	add.w	r0, sl, fp
 8005c48:	ea4f 0ec3 	mov.w	lr, r3, lsl #3
 8005c4c:	5cc0      	ldrb	r0, [r0, r3]
 8005c4e:	f1ce 0e18 	rsb	lr, lr, #24
 8005c52:	fa00 fe0e 	lsl.w	lr, r0, lr
 8005c56:	f852 0c20 	ldr.w	r0, [r2, #-32]
 8005c5a:	ea8e 0000 	eor.w	r0, lr, r0
 8005c5e:	f842 0c20 	str.w	r0, [r2, #-32]
 8005c62:	3301      	adds	r3, #1
 8005c64:	e7e7      	b.n	8005c36 <AES_CCM_Encrypt_Append+0x20a>
 8005c66:	ab0c      	add	r3, sp, #48	; 0x30
 8005c68:	4413      	add	r3, r2
 8005c6a:	eb04 0286 	add.w	r2, r4, r6, lsl #2
 8005c6e:	f10d 0e10 	add.w	lr, sp, #16
 8005c72:	6a50      	ldr	r0, [r2, #36]	; 0x24
 8005c74:	f853 2c20 	ldr.w	r2, [r3, #-32]
 8005c78:	f10d 0a20 	add.w	sl, sp, #32
 8005c7c:	4042      	eors	r2, r0
 8005c7e:	f843 2c10 	str.w	r2, [r3, #-16]
 8005c82:	448e      	add	lr, r1
 8005c84:	1c72      	adds	r2, r6, #1
 8005c86:	1860      	adds	r0, r4, r1
 8005c88:	448a      	add	sl, r1
 8005c8a:	2300      	movs	r3, #0
 8005c8c:	2a03      	cmp	r2, #3
 8005c8e:	f103 0304 	add.w	r3, r3, #4
 8005c92:	dc0b      	bgt.n	8005cac <AES_CCM_Encrypt_Append+0x280>
 8005c94:	f04f 0c00 	mov.w	ip, #0
 8005c98:	f84e c003 	str.w	ip, [lr, r3]
 8005c9c:	eb00 0c03 	add.w	ip, r0, r3
 8005ca0:	3201      	adds	r2, #1
 8005ca2:	f8dc 1024 	ldr.w	r1, [ip, #36]	; 0x24
 8005ca6:	f84a 1003 	str.w	r1, [sl, r3]
 8005caa:	e7ef      	b.n	8005c8c <AES_CCM_Encrypt_Append+0x260>
 8005cac:	f104 0c48 	add.w	ip, r4, #72	; 0x48
 8005cb0:	f10d 0a20 	add.w	sl, sp, #32
 8005cb4:	4662      	mov	r2, ip
 8005cb6:	4650      	mov	r0, sl
 8005cb8:	f104 0124 	add.w	r1, r4, #36	; 0x24
 8005cbc:	6b63      	ldr	r3, [r4, #52]	; 0x34
 8005cbe:	f8cd c000 	str.w	ip, [sp]
 8005cc2:	f7fd fe7b 	bl	80039bc <AES_general_SW_enc>
 8005cc6:	f8dd c000 	ldr.w	ip, [sp]
 8005cca:	6b63      	ldr	r3, [r4, #52]	; 0x34
 8005ccc:	4662      	mov	r2, ip
 8005cce:	f104 0014 	add.w	r0, r4, #20
 8005cd2:	4651      	mov	r1, sl
 8005cd4:	f7fd fe72 	bl	80039bc <AES_general_SW_enc>
 8005cd8:	2300      	movs	r3, #0
 8005cda:	461a      	mov	r2, r3
 8005cdc:	42ba      	cmp	r2, r7
 8005cde:	da0b      	bge.n	8005cf8 <AES_CCM_Encrypt_Append+0x2cc>
 8005ce0:	a904      	add	r1, sp, #16
 8005ce2:	3201      	adds	r2, #1
 8005ce4:	5858      	ldr	r0, [r3, r1]
 8005ce6:	f85a 1003 	ldr.w	r1, [sl, r3]
 8005cea:	4041      	eors	r1, r0
 8005cec:	eb09 0005 	add.w	r0, r9, r5
 8005cf0:	ba09      	rev	r1, r1
 8005cf2:	50c1      	str	r1, [r0, r3]
 8005cf4:	3304      	adds	r3, #4
 8005cf6:	e7f1      	b.n	8005cdc <AES_CCM_Encrypt_Append+0x2b0>
 8005cf8:	aa0c      	add	r2, sp, #48	; 0x30
 8005cfa:	eb02 0686 	add.w	r6, r2, r6, lsl #2
 8005cfe:	f856 3c10 	ldr.w	r3, [r6, #-16]
 8005d02:	f856 2c20 	ldr.w	r2, [r6, #-32]
 8005d06:	405a      	eors	r2, r3
 8005d08:	2300      	movs	r3, #0
 8005d0a:	9801      	ldr	r0, [sp, #4]
 8005d0c:	4283      	cmp	r3, r0
 8005d0e:	f6bf af61 	bge.w	8005bd4 <AES_CCM_Encrypt_Append+0x1a8>
 8005d12:	00d8      	lsls	r0, r3, #3
 8005d14:	eb09 010b 	add.w	r1, r9, fp
 8005d18:	f1c0 0018 	rsb	r0, r0, #24
 8005d1c:	fa22 f000 	lsr.w	r0, r2, r0
 8005d20:	54c8      	strb	r0, [r1, r3]
 8005d22:	3301      	adds	r3, #1
 8005d24:	e7f1      	b.n	8005d0a <AES_CCM_Encrypt_Append+0x2de>
 8005d26:	f44f 6042 	mov.w	r0, #3104	; 0xc20
 8005d2a:	e001      	b.n	8005d30 <AES_CCM_Encrypt_Append+0x304>
 8005d2c:	f640 401e 	movw	r0, #3102	; 0xc1e
 8005d30:	b00d      	add	sp, #52	; 0x34
 8005d32:	e8bd 8ff0 	ldmia.w	sp!, {r4, r5, r6, r7, r8, r9, sl, fp, pc}
 8005d36:	bf00      	nop
 8005d38:	40023008 	.word	0x40023008
 8005d3c:	40023000 	.word	0x40023000

08005d40 <AES_CCM_Encrypt_Finish>:
 8005d40:	b57f      	push	{r0, r1, r2, r3, r4, r5, r6, lr}
 8005d42:	4604      	mov	r4, r0
 8005d44:	460e      	mov	r6, r1
 8005d46:	4615      	mov	r5, r2
 8005d48:	4668      	mov	r0, sp
 8005d4a:	2100      	movs	r1, #0
 8005d4c:	2210      	movs	r2, #16
 8005d4e:	f008 fdf8 	bl	800e942 <memset>
 8005d52:	b364      	cbz	r4, 8005dae <AES_CCM_Encrypt_Finish+0x6e>
 8005d54:	b35e      	cbz	r6, 8005dae <AES_CCM_Encrypt_Finish+0x6e>
 8005d56:	b355      	cbz	r5, 8005dae <AES_CCM_Encrypt_Finish+0x6e>
 8005d58:	7923      	ldrb	r3, [r4, #4]
 8005d5a:	f043 0302 	orr.w	r3, r3, #2
 8005d5e:	7123      	strb	r3, [r4, #4]
 8005d60:	4620      	mov	r0, r4
 8005d62:	4669      	mov	r1, sp
 8005d64:	f7fe fa00 	bl	8004168 <AESccmFinal>
 8005d68:	2300      	movs	r3, #0
 8005d6a:	18e2      	adds	r2, r4, r3
 8005d6c:	6a51      	ldr	r1, [r2, #36]	; 0x24
 8005d6e:	f85d 2003 	ldr.w	r2, [sp, r3]
 8005d72:	404a      	eors	r2, r1
 8005d74:	f84d 2003 	str.w	r2, [sp, r3]
 8005d78:	3304      	adds	r3, #4
 8005d7a:	2b10      	cmp	r3, #16
 8005d7c:	d1f5      	bne.n	8005d6a <AES_CCM_Encrypt_Finish+0x2a>
 8005d7e:	2300      	movs	r3, #0
 8005d80:	6be2      	ldr	r2, [r4, #60]	; 0x3c
 8005d82:	4293      	cmp	r3, r2
 8005d84:	da10      	bge.n	8005da8 <AES_CCM_Encrypt_Finish+0x68>
 8005d86:	2104      	movs	r1, #4
 8005d88:	fb93 f1f1 	sdiv	r1, r3, r1
 8005d8c:	aa04      	add	r2, sp, #16
 8005d8e:	eb02 0181 	add.w	r1, r2, r1, lsl #2
 8005d92:	43da      	mvns	r2, r3
 8005d94:	f002 0203 	and.w	r2, r2, #3
 8005d98:	f851 1c10 	ldr.w	r1, [r1, #-16]
 8005d9c:	00d2      	lsls	r2, r2, #3
 8005d9e:	fa21 f202 	lsr.w	r2, r1, r2
 8005da2:	54f2      	strb	r2, [r6, r3]
 8005da4:	3301      	adds	r3, #1
 8005da6:	e7eb      	b.n	8005d80 <AES_CCM_Encrypt_Finish+0x40>
 8005da8:	602a      	str	r2, [r5, #0]
 8005daa:	2000      	movs	r0, #0
 8005dac:	e001      	b.n	8005db2 <AES_CCM_Encrypt_Finish+0x72>
 8005dae:	f44f 6042 	mov.w	r0, #3104	; 0xc20
 8005db2:	b004      	add	sp, #16
 8005db4:	bd70      	pop	{r4, r5, r6, pc}

08005db6 <AES_CCM_Decrypt_Init>:
 8005db6:	f7ff bc83 	b.w	80056c0 <AES_CCM_Encrypt_Init>

08005dba <AES_CCM_Decrypt_Append>:
 8005dba:	e92d 4ff0 	stmdb	sp!, {r4, r5, r6, r7, r8, r9, sl, fp, lr}
 8005dbe:	b089      	sub	sp, #36	; 0x24
 8005dc0:	ae04      	add	r6, sp, #16
 8005dc2:	4604      	mov	r4, r0
 8005dc4:	4688      	mov	r8, r1
 8005dc6:	4617      	mov	r7, r2
 8005dc8:	4630      	mov	r0, r6
 8005dca:	2100      	movs	r1, #0
 8005dcc:	2210      	movs	r2, #16
 8005dce:	4699      	mov	r9, r3
 8005dd0:	f008 fdb7 	bl	800e942 <memset>
 8005dd4:	2c00      	cmp	r4, #0
 8005dd6:	f000 80ba 	beq.w	8005f4e <AES_CCM_Decrypt_Append+0x194>
 8005dda:	f1b8 0f00 	cmp.w	r8, #0
 8005dde:	f000 80b6 	beq.w	8005f4e <AES_CCM_Decrypt_Append+0x194>
 8005de2:	f1b9 0f00 	cmp.w	r9, #0
 8005de6:	f000 80b2 	beq.w	8005f4e <AES_CCM_Decrypt_Append+0x194>
 8005dea:	9912      	ldr	r1, [sp, #72]	; 0x48
 8005dec:	2900      	cmp	r1, #0
 8005dee:	f000 80ae 	beq.w	8005f4e <AES_CCM_Decrypt_Append+0x194>
 8005df2:	7925      	ldrb	r5, [r4, #4]
 8005df4:	f015 0506 	ands.w	r5, r5, #6
 8005df8:	f040 80ac 	bne.w	8005f54 <AES_CCM_Decrypt_Append+0x19a>
 8005dfc:	f105 030f 	add.w	r3, r5, #15
 8005e00:	42bb      	cmp	r3, r7
 8005e02:	da28      	bge.n	8005e56 <AES_CCM_Decrypt_Append+0x9c>
 8005e04:	f104 0a48 	add.w	sl, r4, #72	; 0x48
 8005e08:	6b63      	ldr	r3, [r4, #52]	; 0x34
 8005e0a:	f104 0014 	add.w	r0, r4, #20
 8005e0e:	4631      	mov	r1, r6
 8005e10:	4652      	mov	r2, sl
 8005e12:	f7fd fdd3 	bl	80039bc <AES_general_SW_enc>
 8005e16:	6a23      	ldr	r3, [r4, #32]
 8005e18:	3301      	adds	r3, #1
 8005e1a:	6223      	str	r3, [r4, #32]
 8005e1c:	2300      	movs	r3, #0
 8005e1e:	eb08 0205 	add.w	r2, r8, r5
 8005e22:	58f1      	ldr	r1, [r6, r3]
 8005e24:	58d2      	ldr	r2, [r2, r3]
 8005e26:	ba12      	rev	r2, r2
 8005e28:	404a      	eors	r2, r1
 8005e2a:	eb09 0105 	add.w	r1, r9, r5
 8005e2e:	ba10      	rev	r0, r2
 8005e30:	50c8      	str	r0, [r1, r3]
 8005e32:	18e1      	adds	r1, r4, r3
 8005e34:	50f2      	str	r2, [r6, r3]
 8005e36:	6a49      	ldr	r1, [r1, #36]	; 0x24
 8005e38:	404a      	eors	r2, r1
 8005e3a:	f84d 2003 	str.w	r2, [sp, r3]
 8005e3e:	3304      	adds	r3, #4
 8005e40:	2b10      	cmp	r3, #16
 8005e42:	d1ec      	bne.n	8005e1e <AES_CCM_Decrypt_Append+0x64>
 8005e44:	4668      	mov	r0, sp
 8005e46:	f104 0124 	add.w	r1, r4, #36	; 0x24
 8005e4a:	4652      	mov	r2, sl
 8005e4c:	6b63      	ldr	r3, [r4, #52]	; 0x34
 8005e4e:	f7fd fdb5 	bl	80039bc <AES_general_SW_enc>
 8005e52:	3510      	adds	r5, #16
 8005e54:	e7d2      	b.n	8005dfc <AES_CCM_Decrypt_Append+0x42>
 8005e56:	42bd      	cmp	r5, r7
 8005e58:	da75      	bge.n	8005f46 <AES_CCM_Decrypt_Append+0x18c>
 8005e5a:	7923      	ldrb	r3, [r4, #4]
 8005e5c:	f104 0a48 	add.w	sl, r4, #72	; 0x48
 8005e60:	f043 0304 	orr.w	r3, r3, #4
 8005e64:	7123      	strb	r3, [r4, #4]
 8005e66:	4631      	mov	r1, r6
 8005e68:	4652      	mov	r2, sl
 8005e6a:	6b63      	ldr	r3, [r4, #52]	; 0x34
 8005e6c:	f104 0014 	add.w	r0, r4, #20
 8005e70:	f7fd fda4 	bl	80039bc <AES_general_SW_enc>
 8005e74:	2604      	movs	r6, #4
 8005e76:	ebc5 0c07 	rsb	ip, r5, r7
 8005e7a:	2300      	movs	r3, #0
 8005e7c:	fb9c f6f6 	sdiv	r6, ip, r6
 8005e80:	461a      	mov	r2, r3
 8005e82:	42b2      	cmp	r2, r6
 8005e84:	da18      	bge.n	8005eb8 <AES_CCM_Decrypt_Append+0xfe>
 8005e86:	eb08 0105 	add.w	r1, r8, r5
 8005e8a:	f10d 0e10 	add.w	lr, sp, #16
 8005e8e:	58c9      	ldr	r1, [r1, r3]
 8005e90:	f853 000e 	ldr.w	r0, [r3, lr]
 8005e94:	ba09      	rev	r1, r1
 8005e96:	4041      	eors	r1, r0
 8005e98:	eb09 0005 	add.w	r0, r9, r5
 8005e9c:	f843 100e 	str.w	r1, [r3, lr]
 8005ea0:	fa91 fe81 	rev.w	lr, r1
 8005ea4:	f840 e003 	str.w	lr, [r0, r3]
 8005ea8:	18e0      	adds	r0, r4, r3
 8005eaa:	3201      	adds	r2, #1
 8005eac:	6a40      	ldr	r0, [r0, #36]	; 0x24
 8005eae:	4041      	eors	r1, r0
 8005eb0:	f84d 1003 	str.w	r1, [sp, r3]
 8005eb4:	3304      	adds	r3, #4
 8005eb6:	e7e4      	b.n	8005e82 <AES_CCM_Decrypt_Append+0xc8>
 8005eb8:	ea26 76e6 	bic.w	r6, r6, r6, asr #31
 8005ebc:	00b3      	lsls	r3, r6, #2
 8005ebe:	a908      	add	r1, sp, #32
 8005ec0:	eb04 0286 	add.w	r2, r4, r6, lsl #2
 8005ec4:	4419      	add	r1, r3
 8005ec6:	6a52      	ldr	r2, [r2, #36]	; 0x24
 8005ec8:	f841 2c20 	str.w	r2, [r1, #-32]
 8005ecc:	ebac 0c86 	sub.w	ip, ip, r6, lsl #2
 8005ed0:	eb03 0b05 	add.w	fp, r3, r5
 8005ed4:	2000      	movs	r0, #0
 8005ed6:	4560      	cmp	r0, ip
 8005ed8:	da20      	bge.n	8005f1c <AES_CCM_Decrypt_Append+0x162>
 8005eda:	a908      	add	r1, sp, #32
 8005edc:	eb08 020b 	add.w	r2, r8, fp
 8005ee0:	eb01 0586 	add.w	r5, r1, r6, lsl #2
 8005ee4:	5c12      	ldrb	r2, [r2, r0]
 8005ee6:	f855 1c10 	ldr.w	r1, [r5, #-16]
 8005eea:	ea4f 0ec0 	mov.w	lr, r0, lsl #3
 8005eee:	f1ce 0e18 	rsb	lr, lr, #24
 8005ef2:	fa02 f20e 	lsl.w	r2, r2, lr
 8005ef6:	4051      	eors	r1, r2
 8005ef8:	eb09 020b 	add.w	r2, r9, fp
 8005efc:	f845 1c10 	str.w	r1, [r5, #-16]
 8005f00:	fa21 f10e 	lsr.w	r1, r1, lr
 8005f04:	5411      	strb	r1, [r2, r0]
 8005f06:	f855 2c20 	ldr.w	r2, [r5, #-32]
 8005f0a:	b2c9      	uxtb	r1, r1
 8005f0c:	fa01 fe0e 	lsl.w	lr, r1, lr
 8005f10:	ea8e 0202 	eor.w	r2, lr, r2
 8005f14:	f845 2c20 	str.w	r2, [r5, #-32]
 8005f18:	3001      	adds	r0, #1
 8005f1a:	e7dc      	b.n	8005ed6 <AES_CCM_Decrypt_Append+0x11c>
 8005f1c:	aa00      	add	r2, sp, #0
 8005f1e:	18e0      	adds	r0, r4, r3
 8005f20:	3601      	adds	r6, #1
 8005f22:	4413      	add	r3, r2
 8005f24:	2200      	movs	r2, #0
 8005f26:	2e03      	cmp	r6, #3
 8005f28:	f102 0204 	add.w	r2, r2, #4
 8005f2c:	dc04      	bgt.n	8005f38 <AES_CCM_Decrypt_Append+0x17e>
 8005f2e:	1881      	adds	r1, r0, r2
 8005f30:	3601      	adds	r6, #1
 8005f32:	6a49      	ldr	r1, [r1, #36]	; 0x24
 8005f34:	5099      	str	r1, [r3, r2]
 8005f36:	e7f6      	b.n	8005f26 <AES_CCM_Decrypt_Append+0x16c>
 8005f38:	4668      	mov	r0, sp
 8005f3a:	f104 0124 	add.w	r1, r4, #36	; 0x24
 8005f3e:	4652      	mov	r2, sl
 8005f40:	6b63      	ldr	r3, [r4, #52]	; 0x34
 8005f42:	f7fd fd3b 	bl	80039bc <AES_general_SW_enc>
 8005f46:	9b12      	ldr	r3, [sp, #72]	; 0x48
 8005f48:	2000      	movs	r0, #0
 8005f4a:	601f      	str	r7, [r3, #0]
 8005f4c:	e004      	b.n	8005f58 <AES_CCM_Decrypt_Append+0x19e>
 8005f4e:	f44f 6042 	mov.w	r0, #3104	; 0xc20
 8005f52:	e001      	b.n	8005f58 <AES_CCM_Decrypt_Append+0x19e>
 8005f54:	f640 401e 	movw	r0, #3102	; 0xc1e
 8005f58:	b009      	add	sp, #36	; 0x24
 8005f5a:	e8bd 8ff0 	ldmia.w	sp!, {r4, r5, r6, r7, r8, r9, sl, fp, pc}

08005f5e <AES_CCM_Decrypt_Finish>:
 8005f5e:	b5f0      	push	{r4, r5, r6, r7, lr}
 8005f60:	b085      	sub	sp, #20
 8005f62:	4604      	mov	r4, r0
 8005f64:	4615      	mov	r5, r2
 8005f66:	4668      	mov	r0, sp
 8005f68:	2100      	movs	r1, #0
 8005f6a:	2210      	movs	r2, #16
 8005f6c:	f008 fce9 	bl	800e942 <memset>
 8005f70:	2c00      	cmp	r4, #0
 8005f72:	d04f      	beq.n	8006014 <AES_CCM_Decrypt_Finish+0xb6>
 8005f74:	2d00      	cmp	r5, #0
 8005f76:	d04d      	beq.n	8006014 <AES_CCM_Decrypt_Finish+0xb6>
 8005f78:	6ba3      	ldr	r3, [r4, #56]	; 0x38
 8005f7a:	2b00      	cmp	r3, #0
 8005f7c:	d04d      	beq.n	800601a <AES_CCM_Decrypt_Finish+0xbc>
 8005f7e:	6be3      	ldr	r3, [r4, #60]	; 0x3c
 8005f80:	2b10      	cmp	r3, #16
 8005f82:	d84a      	bhi.n	800601a <AES_CCM_Decrypt_Finish+0xbc>
 8005f84:	7923      	ldrb	r3, [r4, #4]
 8005f86:	2600      	movs	r6, #0
 8005f88:	f043 0302 	orr.w	r3, r3, #2
 8005f8c:	602e      	str	r6, [r5, #0]
 8005f8e:	4620      	mov	r0, r4
 8005f90:	7123      	strb	r3, [r4, #4]
 8005f92:	4669      	mov	r1, sp
 8005f94:	f7fe f8e8 	bl	8004168 <AESccmFinal>
 8005f98:	4633      	mov	r3, r6
 8005f9a:	18e2      	adds	r2, r4, r3
 8005f9c:	6a51      	ldr	r1, [r2, #36]	; 0x24
 8005f9e:	f85d 2003 	ldr.w	r2, [sp, r3]
 8005fa2:	404a      	eors	r2, r1
 8005fa4:	f84d 2003 	str.w	r2, [sp, r3]
 8005fa8:	3304      	adds	r3, #4
 8005faa:	2b10      	cmp	r3, #16
 8005fac:	d1f5      	bne.n	8005f9a <AES_CCM_Decrypt_Finish+0x3c>
 8005fae:	6be0      	ldr	r0, [r4, #60]	; 0x3c
 8005fb0:	2104      	movs	r1, #4
 8005fb2:	2300      	movs	r3, #0
 8005fb4:	fb90 f1f1 	sdiv	r1, r0, r1
 8005fb8:	461a      	mov	r2, r3
 8005fba:	428a      	cmp	r2, r1
 8005fbc:	da09      	bge.n	8005fd2 <AES_CCM_Decrypt_Finish+0x74>
 8005fbe:	6ba5      	ldr	r5, [r4, #56]	; 0x38
 8005fc0:	f855 6022 	ldr.w	r6, [r5, r2, lsl #2]
 8005fc4:	f85d 5022 	ldr.w	r5, [sp, r2, lsl #2]
 8005fc8:	ba36      	rev	r6, r6
 8005fca:	4075      	eors	r5, r6
 8005fcc:	432b      	orrs	r3, r5
 8005fce:	3201      	adds	r2, #1
 8005fd0:	e7f3      	b.n	8005fba <AES_CCM_Decrypt_Finish+0x5c>
 8005fd2:	ea21 71e1 	bic.w	r1, r1, r1, asr #31
 8005fd6:	eba0 0081 	sub.w	r0, r0, r1, lsl #2
 8005fda:	2200      	movs	r2, #0
 8005fdc:	0089      	lsls	r1, r1, #2
 8005fde:	4282      	cmp	r2, r0
 8005fe0:	da11      	bge.n	8006006 <AES_CCM_Decrypt_Finish+0xa8>
 8005fe2:	ad04      	add	r5, sp, #16
 8005fe4:	440d      	add	r5, r1
 8005fe6:	00d7      	lsls	r7, r2, #3
 8005fe8:	f855 5c10 	ldr.w	r5, [r5, #-16]
 8005fec:	f1c7 0718 	rsb	r7, r7, #24
 8005ff0:	fa25 f707 	lsr.w	r7, r5, r7
 8005ff4:	6ba5      	ldr	r5, [r4, #56]	; 0x38
 8005ff6:	4415      	add	r5, r2
 8005ff8:	3201      	adds	r2, #1
 8005ffa:	5c6e      	ldrb	r6, [r5, r1]
 8005ffc:	ea87 0506 	eor.w	r5, r7, r6
 8006000:	b2ed      	uxtb	r5, r5
 8006002:	432b      	orrs	r3, r5
 8006004:	e7eb      	b.n	8005fde <AES_CCM_Decrypt_Finish+0x80>
 8006006:	2b00      	cmp	r3, #0
 8006008:	f240 30eb 	movw	r0, #1003	; 0x3eb
 800600c:	bf18      	it	ne
 800600e:	f44f 707b 	movne.w	r0, #1004	; 0x3ec
 8006012:	e004      	b.n	800601e <AES_CCM_Decrypt_Finish+0xc0>
 8006014:	f44f 6042 	mov.w	r0, #3104	; 0xc20
 8006018:	e001      	b.n	800601e <AES_CCM_Decrypt_Finish+0xc0>
 800601a:	f640 401f 	movw	r0, #3103	; 0xc1f
 800601e:	b005      	add	sp, #20
 8006020:	bdf0      	pop	{r4, r5, r6, r7, pc}

08006022 <AES_CMAC_Encrypt_Init>:
 8006022:	b510      	push	{r4, lr}
 8006024:	4604      	mov	r4, r0
 8006026:	b160      	cbz	r0, 8006042 <AES_CMAC_Encrypt_Init+0x20>
 8006028:	6881      	ldr	r1, [r0, #8]
 800602a:	2200      	movs	r2, #0
 800602c:	2302      	movs	r3, #2
 800602e:	f7fe fa8f 	bl	8004550 <AESstdInit>
 8006032:	b940      	cbnz	r0, 8006046 <AES_CMAC_Encrypt_Init+0x24>
 8006034:	2310      	movs	r3, #16
 8006036:	6123      	str	r3, [r4, #16]
 8006038:	6160      	str	r0, [r4, #20]
 800603a:	61a0      	str	r0, [r4, #24]
 800603c:	61e0      	str	r0, [r4, #28]
 800603e:	6220      	str	r0, [r4, #32]
 8006040:	bd10      	pop	{r4, pc}
 8006042:	f44f 6042 	mov.w	r0, #3104	; 0xc20
 8006046:	bd10      	pop	{r4, pc}

08006048 <AES_CMAC_Encrypt_Append>:
 8006048:	e92d 43f0 	stmdb	sp!, {r4, r5, r6, r7, r8, r9, lr}
 800604c:	b08b      	sub	sp, #44	; 0x2c
 800604e:	2300      	movs	r3, #0
 8006050:	460f      	mov	r7, r1
 8006052:	4616      	mov	r6, r2
 8006054:	9301      	str	r3, [sp, #4]
 8006056:	4604      	mov	r4, r0
 8006058:	2800      	cmp	r0, #0
 800605a:	f000 8161 	beq.w	8006320 <AES_CMAC_Encrypt_Append+0x2d8>
 800605e:	b911      	cbnz	r1, 8006066 <AES_CMAC_Encrypt_Append+0x1e>
 8006060:	429a      	cmp	r2, r3
 8006062:	f300 815d 	bgt.w	8006320 <AES_CMAC_Encrypt_Append+0x2d8>
 8006066:	2e00      	cmp	r6, #0
 8006068:	f2c0 815d 	blt.w	8006326 <AES_CMAC_Encrypt_Append+0x2de>
 800606c:	2e0f      	cmp	r6, #15
 800606e:	7923      	ldrb	r3, [r4, #4]
 8006070:	dc02      	bgt.n	8006078 <AES_CMAC_Encrypt_Append+0x30>
 8006072:	069a      	lsls	r2, r3, #26
 8006074:	f140 8157 	bpl.w	8006326 <AES_CMAC_Encrypt_Append+0x2de>
 8006078:	f013 0506 	ands.w	r5, r3, #6
 800607c:	f040 8156 	bne.w	800632c <AES_CMAC_Encrypt_Append+0x2e4>
 8006080:	f043 0340 	orr.w	r3, r3, #64	; 0x40
 8006084:	7123      	strb	r3, [r4, #4]
 8006086:	4bac      	ldr	r3, [pc, #688]	; (8006338 <AES_CMAC_Encrypt_Append+0x2f0>)
 8006088:	2201      	movs	r2, #1
 800608a:	601a      	str	r2, [r3, #0]
 800608c:	681b      	ldr	r3, [r3, #0]
 800608e:	9301      	str	r3, [sp, #4]
 8006090:	4baa      	ldr	r3, [pc, #680]	; (800633c <AES_CMAC_Encrypt_Append+0x2f4>)
 8006092:	681a      	ldr	r2, [r3, #0]
 8006094:	9201      	str	r2, [sp, #4]
 8006096:	9a01      	ldr	r2, [sp, #4]
 8006098:	3201      	adds	r2, #1
 800609a:	d156      	bne.n	800614a <AES_CMAC_Encrypt_Append+0x102>
 800609c:	9a01      	ldr	r2, [sp, #4]
 800609e:	601a      	str	r2, [r3, #0]
 80060a0:	681b      	ldr	r3, [r3, #0]
 80060a2:	9301      	str	r3, [sp, #4]
 80060a4:	9b01      	ldr	r3, [sp, #4]
 80060a6:	bb93      	cbnz	r3, 800610e <AES_CMAC_Encrypt_Append+0xc6>
 80060a8:	461d      	mov	r5, r3
 80060aa:	f105 0810 	add.w	r8, r5, #16
 80060ae:	45b0      	cmp	r8, r6
 80060b0:	da51      	bge.n	8006156 <AES_CMAC_Encrypt_Append+0x10e>
 80060b2:	2300      	movs	r3, #0
 80060b4:	f1a7 0210 	sub.w	r2, r7, #16
 80060b8:	4442      	add	r2, r8
 80060ba:	18e1      	adds	r1, r4, r3
 80060bc:	58d2      	ldr	r2, [r2, r3]
 80060be:	6949      	ldr	r1, [r1, #20]
 80060c0:	ba12      	rev	r2, r2
 80060c2:	a802      	add	r0, sp, #8
 80060c4:	404a      	eors	r2, r1
 80060c6:	501a      	str	r2, [r3, r0]
 80060c8:	3304      	adds	r3, #4
 80060ca:	2b10      	cmp	r3, #16
 80060cc:	d1f2      	bne.n	80060b4 <AES_CMAC_Encrypt_Append+0x6c>
 80060ce:	f104 0114 	add.w	r1, r4, #20
 80060d2:	f104 0228 	add.w	r2, r4, #40	; 0x28
 80060d6:	6a63      	ldr	r3, [r4, #36]	; 0x24
 80060d8:	f7fd fc70 	bl	80039bc <AES_general_SW_enc>
 80060dc:	4645      	mov	r5, r8
 80060de:	e7e4      	b.n	80060aa <AES_CMAC_Encrypt_Append+0x62>
 80060e0:	18fa      	adds	r2, r7, r3
 80060e2:	4442      	add	r2, r8
 80060e4:	eb04 0183 	add.w	r1, r4, r3, lsl #2
 80060e8:	f852 2c10 	ldr.w	r2, [r2, #-16]
 80060ec:	6949      	ldr	r1, [r1, #20]
 80060ee:	ba12      	rev	r2, r2
 80060f0:	a802      	add	r0, sp, #8
 80060f2:	430a      	orrs	r2, r1
 80060f4:	f840 2023 	str.w	r2, [r0, r3, lsl #2]
 80060f8:	3301      	adds	r3, #1
 80060fa:	2b04      	cmp	r3, #4
 80060fc:	d1f0      	bne.n	80060e0 <AES_CMAC_Encrypt_Append+0x98>
 80060fe:	f104 0114 	add.w	r1, r4, #20
 8006102:	f104 0228 	add.w	r2, r4, #40	; 0x28
 8006106:	6a63      	ldr	r3, [r4, #36]	; 0x24
 8006108:	f7fd fc58 	bl	80039bc <AES_general_SW_enc>
 800610c:	4645      	mov	r5, r8
 800610e:	f105 0810 	add.w	r8, r5, #16
 8006112:	45b0      	cmp	r8, r6
 8006114:	da1f      	bge.n	8006156 <AES_CMAC_Encrypt_Append+0x10e>
 8006116:	2300      	movs	r3, #0
 8006118:	e7e2      	b.n	80060e0 <AES_CMAC_Encrypt_Append+0x98>
 800611a:	eb07 0208 	add.w	r2, r7, r8
 800611e:	441a      	add	r2, r3
 8006120:	eb04 0183 	add.w	r1, r4, r3, lsl #2
 8006124:	f852 2c10 	ldr.w	r2, [r2, #-16]
 8006128:	6949      	ldr	r1, [r1, #20]
 800612a:	ba12      	rev	r2, r2
 800612c:	a802      	add	r0, sp, #8
 800612e:	430a      	orrs	r2, r1
 8006130:	f840 2023 	str.w	r2, [r0, r3, lsl #2]
 8006134:	3301      	adds	r3, #1
 8006136:	2b04      	cmp	r3, #4
 8006138:	d1ef      	bne.n	800611a <AES_CMAC_Encrypt_Append+0xd2>
 800613a:	f104 0114 	add.w	r1, r4, #20
 800613e:	f104 0228 	add.w	r2, r4, #40	; 0x28
 8006142:	6a63      	ldr	r3, [r4, #36]	; 0x24
 8006144:	f7fd fc3a 	bl	80039bc <AES_general_SW_enc>
 8006148:	4645      	mov	r5, r8
 800614a:	f105 0810 	add.w	r8, r5, #16
 800614e:	45b0      	cmp	r8, r6
 8006150:	da01      	bge.n	8006156 <AES_CMAC_Encrypt_Append+0x10e>
 8006152:	2300      	movs	r3, #0
 8006154:	e7e1      	b.n	800611a <AES_CMAC_Encrypt_Append+0xd2>
 8006156:	7922      	ldrb	r2, [r4, #4]
 8006158:	f002 0220 	and.w	r2, r2, #32
 800615c:	f002 03ff 	and.w	r3, r2, #255	; 0xff
 8006160:	b99a      	cbnz	r2, 800618a <AES_CMAC_Encrypt_Append+0x142>
 8006162:	b196      	cbz	r6, 800618a <AES_CMAC_Encrypt_Append+0x142>
 8006164:	197a      	adds	r2, r7, r5
 8006166:	18e1      	adds	r1, r4, r3
 8006168:	58d2      	ldr	r2, [r2, r3]
 800616a:	6949      	ldr	r1, [r1, #20]
 800616c:	ba12      	rev	r2, r2
 800616e:	a802      	add	r0, sp, #8
 8006170:	404a      	eors	r2, r1
 8006172:	501a      	str	r2, [r3, r0]
 8006174:	3304      	adds	r3, #4
 8006176:	2b10      	cmp	r3, #16
 8006178:	d1f4      	bne.n	8006164 <AES_CMAC_Encrypt_Append+0x11c>
 800617a:	f104 0114 	add.w	r1, r4, #20
 800617e:	f104 0228 	add.w	r2, r4, #40	; 0x28
 8006182:	6a63      	ldr	r3, [r4, #36]	; 0x24
 8006184:	f7fd fc1a 	bl	80039bc <AES_general_SW_enc>
 8006188:	e047      	b.n	800621a <AES_CMAC_Encrypt_Append+0x1d2>
 800618a:	f10d 0818 	add.w	r8, sp, #24
 800618e:	2100      	movs	r1, #0
 8006190:	2210      	movs	r2, #16
 8006192:	4640      	mov	r0, r8
 8006194:	f104 0928 	add.w	r9, r4, #40	; 0x28
 8006198:	f008 fbd3 	bl	800e942 <memset>
 800619c:	4640      	mov	r0, r8
 800619e:	4641      	mov	r1, r8
 80061a0:	464a      	mov	r2, r9
 80061a2:	6a63      	ldr	r3, [r4, #36]	; 0x24
 80061a4:	f7fd fc0a 	bl	80039bc <AES_general_SW_enc>
 80061a8:	f8dd e018 	ldr.w	lr, [sp, #24]
 80061ac:	9807      	ldr	r0, [sp, #28]
 80061ae:	9908      	ldr	r1, [sp, #32]
 80061b0:	9b09      	ldr	r3, [sp, #36]	; 0x24
 80061b2:	ea4f 024e 	mov.w	r2, lr, lsl #1
 80061b6:	ea42 72d0 	orr.w	r2, r2, r0, lsr #31
 80061ba:	ea4f 7cde 	mov.w	ip, lr, lsr #31
 80061be:	0040      	lsls	r0, r0, #1
 80061c0:	f04f 0e87 	mov.w	lr, #135	; 0x87
 80061c4:	ea40 70d1 	orr.w	r0, r0, r1, lsr #31
 80061c8:	fb0e fc0c 	mul.w	ip, lr, ip
 80061cc:	0049      	lsls	r1, r1, #1
 80061ce:	ea41 71d3 	orr.w	r1, r1, r3, lsr #31
 80061d2:	ea8c 0343 	eor.w	r3, ip, r3, lsl #1
 80061d6:	f105 0c10 	add.w	ip, r5, #16
 80061da:	45b4      	cmp	ip, r6
 80061dc:	9206      	str	r2, [sp, #24]
 80061de:	9007      	str	r0, [sp, #28]
 80061e0:	9108      	str	r1, [sp, #32]
 80061e2:	9309      	str	r3, [sp, #36]	; 0x24
 80061e4:	d11b      	bne.n	800621e <AES_CMAC_Encrypt_Append+0x1d6>
 80061e6:	2300      	movs	r3, #0
 80061e8:	197a      	adds	r2, r7, r5
 80061ea:	58d1      	ldr	r1, [r2, r3]
 80061ec:	f858 2003 	ldr.w	r2, [r8, r3]
 80061f0:	ba09      	rev	r1, r1
 80061f2:	404a      	eors	r2, r1
 80061f4:	18e1      	adds	r1, r4, r3
 80061f6:	6949      	ldr	r1, [r1, #20]
 80061f8:	404a      	eors	r2, r1
 80061fa:	a902      	add	r1, sp, #8
 80061fc:	505a      	str	r2, [r3, r1]
 80061fe:	3304      	adds	r3, #4
 8006200:	2b10      	cmp	r3, #16
 8006202:	d1f1      	bne.n	80061e8 <AES_CMAC_Encrypt_Append+0x1a0>
 8006204:	6a63      	ldr	r3, [r4, #36]	; 0x24
 8006206:	a802      	add	r0, sp, #8
 8006208:	f104 0114 	add.w	r1, r4, #20
 800620c:	464a      	mov	r2, r9
 800620e:	f7fd fbd5 	bl	80039bc <AES_general_SW_enc>
 8006212:	7923      	ldrb	r3, [r4, #4]
 8006214:	f043 0304 	orr.w	r3, r3, #4
 8006218:	7123      	strb	r3, [r4, #4]
 800621a:	2000      	movs	r0, #0
 800621c:	e088      	b.n	8006330 <AES_CMAC_Encrypt_Append+0x2e8>
 800621e:	ea4f 0c42 	mov.w	ip, r2, lsl #1
 8006222:	ea4c 7cd0 	orr.w	ip, ip, r0, lsr #31
 8006226:	0fd2      	lsrs	r2, r2, #31
 8006228:	0040      	lsls	r0, r0, #1
 800622a:	ea40 70d1 	orr.w	r0, r0, r1, lsr #31
 800622e:	fb0e fe02 	mul.w	lr, lr, r2
 8006232:	0049      	lsls	r1, r1, #1
 8006234:	ea41 71d3 	orr.w	r1, r1, r3, lsr #31
 8006238:	ea8e 0343 	eor.w	r3, lr, r3, lsl #1
 800623c:	9108      	str	r1, [sp, #32]
 800623e:	9309      	str	r3, [sp, #36]	; 0x24
 8006240:	1b76      	subs	r6, r6, r5
 8006242:	2104      	movs	r1, #4
 8006244:	2300      	movs	r3, #0
 8006246:	f8cd c018 	str.w	ip, [sp, #24]
 800624a:	9007      	str	r0, [sp, #28]
 800624c:	fb96 f1f1 	sdiv	r1, r6, r1
 8006250:	461a      	mov	r2, r3
 8006252:	428a      	cmp	r2, r1
 8006254:	da13      	bge.n	800627e <AES_CMAC_Encrypt_Append+0x236>
 8006256:	1978      	adds	r0, r7, r5
 8006258:	3201      	adds	r2, #1
 800625a:	58c0      	ldr	r0, [r0, r3]
 800625c:	fa90 fe80 	rev.w	lr, r0
 8006260:	18e0      	adds	r0, r4, r3
 8006262:	f8d0 c014 	ldr.w	ip, [r0, #20]
 8006266:	f858 0003 	ldr.w	r0, [r8, r3]
 800626a:	ea8c 0c00 	eor.w	ip, ip, r0
 800626e:	ea8c 000e 	eor.w	r0, ip, lr
 8006272:	f10d 0e08 	add.w	lr, sp, #8
 8006276:	f843 000e 	str.w	r0, [r3, lr]
 800627a:	3304      	adds	r3, #4
 800627c:	e7e9      	b.n	8006252 <AES_CMAC_Encrypt_Append+0x20a>
 800627e:	ea21 71e1 	bic.w	r1, r1, r1, asr #31
 8006282:	008b      	lsls	r3, r1, #2
 8006284:	a80a      	add	r0, sp, #40	; 0x28
 8006286:	4418      	add	r0, r3
 8006288:	eb04 0e81 	add.w	lr, r4, r1, lsl #2
 800628c:	f850 2c10 	ldr.w	r2, [r0, #-16]
 8006290:	f8de e014 	ldr.w	lr, [lr, #20]
 8006294:	ea82 0e0e 	eor.w	lr, r2, lr
 8006298:	f840 ec20 	str.w	lr, [r0, #-32]
 800629c:	eba6 0681 	sub.w	r6, r6, r1, lsl #2
 80062a0:	eb03 0e05 	add.w	lr, r3, r5
 80062a4:	2200      	movs	r2, #0
 80062a6:	42b2      	cmp	r2, r6
 80062a8:	da12      	bge.n	80062d0 <AES_CMAC_Encrypt_Append+0x288>
 80062aa:	eb07 000e 	add.w	r0, r7, lr
 80062ae:	ad0a      	add	r5, sp, #40	; 0x28
 80062b0:	5c80      	ldrb	r0, [r0, r2]
 80062b2:	441d      	add	r5, r3
 80062b4:	ea4f 0cc2 	mov.w	ip, r2, lsl #3
 80062b8:	f1cc 0c18 	rsb	ip, ip, #24
 80062bc:	fa00 fc0c 	lsl.w	ip, r0, ip
 80062c0:	f855 0c20 	ldr.w	r0, [r5, #-32]
 80062c4:	ea8c 0000 	eor.w	r0, ip, r0
 80062c8:	f845 0c20 	str.w	r0, [r5, #-32]
 80062cc:	3201      	adds	r2, #1
 80062ce:	e7ea      	b.n	80062a6 <AES_CMAC_Encrypt_Append+0x25e>
 80062d0:	aa0a      	add	r2, sp, #40	; 0x28
 80062d2:	ea26 76e6 	bic.w	r6, r6, r6, asr #31
 80062d6:	441a      	add	r2, r3
 80062d8:	b14e      	cbz	r6, 80062ee <AES_CMAC_Encrypt_Append+0x2a6>
 80062da:	f1c6 0603 	rsb	r6, r6, #3
 80062de:	2080      	movs	r0, #128	; 0x80
 80062e0:	00f6      	lsls	r6, r6, #3
 80062e2:	fa00 f606 	lsl.w	r6, r0, r6
 80062e6:	f852 0c20 	ldr.w	r0, [r2, #-32]
 80062ea:	4070      	eors	r0, r6
 80062ec:	e003      	b.n	80062f6 <AES_CMAC_Encrypt_Append+0x2ae>
 80062ee:	f852 0c20 	ldr.w	r0, [r2, #-32]
 80062f2:	f100 4000 	add.w	r0, r0, #2147483648	; 0x80000000
 80062f6:	f842 0c20 	str.w	r0, [r2, #-32]
 80062fa:	a802      	add	r0, sp, #8
 80062fc:	18e5      	adds	r5, r4, r3
 80062fe:	4498      	add	r8, r3
 8006300:	3101      	adds	r1, #1
 8006302:	4403      	add	r3, r0
 8006304:	2200      	movs	r2, #0
 8006306:	2903      	cmp	r1, #3
 8006308:	f102 0204 	add.w	r2, r2, #4
 800630c:	f73f af7a 	bgt.w	8006204 <AES_CMAC_Encrypt_Append+0x1bc>
 8006310:	18a8      	adds	r0, r5, r2
 8006312:	3101      	adds	r1, #1
 8006314:	6946      	ldr	r6, [r0, #20]
 8006316:	f858 0002 	ldr.w	r0, [r8, r2]
 800631a:	4070      	eors	r0, r6
 800631c:	5098      	str	r0, [r3, r2]
 800631e:	e7f2      	b.n	8006306 <AES_CMAC_Encrypt_Append+0x2be>
 8006320:	f44f 6042 	mov.w	r0, #3104	; 0xc20
 8006324:	e004      	b.n	8006330 <AES_CMAC_Encrypt_Append+0x2e8>
 8006326:	f640 401d 	movw	r0, #3101	; 0xc1d
 800632a:	e001      	b.n	8006330 <AES_CMAC_Encrypt_Append+0x2e8>
 800632c:	f640 401e 	movw	r0, #3102	; 0xc1e
 8006330:	b00b      	add	sp, #44	; 0x2c
 8006332:	e8bd 83f0 	ldmia.w	sp!, {r4, r5, r6, r7, r8, r9, pc}
 8006336:	bf00      	nop
 8006338:	40023008 	.word	0x40023008
 800633c:	40023000 	.word	0x40023000

08006340 <AES_CMAC_Encrypt_Finish>:
 8006340:	b570      	push	{r4, r5, r6, lr}
 8006342:	460e      	mov	r6, r1
 8006344:	4615      	mov	r5, r2
 8006346:	4604      	mov	r4, r0
 8006348:	b348      	cbz	r0, 800639e <AES_CMAC_Encrypt_Finish+0x5e>
 800634a:	b342      	cbz	r2, 800639e <AES_CMAC_Encrypt_Finish+0x5e>
 800634c:	f8d0 311c 	ldr.w	r3, [r0, #284]	; 0x11c
 8006350:	3b01      	subs	r3, #1
 8006352:	2b0f      	cmp	r3, #15
 8006354:	d826      	bhi.n	80063a4 <AES_CMAC_Encrypt_Finish+0x64>
 8006356:	7903      	ldrb	r3, [r0, #4]
 8006358:	f003 0340 	and.w	r3, r3, #64	; 0x40
 800635c:	f003 01ff 	and.w	r1, r3, #255	; 0xff
 8006360:	b913      	cbnz	r3, 8006368 <AES_CMAC_Encrypt_Finish+0x28>
 8006362:	460a      	mov	r2, r1
 8006364:	f7ff fe70 	bl	8006048 <AES_CMAC_Encrypt_Append>
 8006368:	7923      	ldrb	r3, [r4, #4]
 800636a:	f043 0302 	orr.w	r3, r3, #2
 800636e:	7123      	strb	r3, [r4, #4]
 8006370:	2300      	movs	r3, #0
 8006372:	f8d4 211c 	ldr.w	r2, [r4, #284]	; 0x11c
 8006376:	4293      	cmp	r3, r2
 8006378:	da0e      	bge.n	8006398 <AES_CMAC_Encrypt_Finish+0x58>
 800637a:	2104      	movs	r1, #4
 800637c:	fb93 f1f1 	sdiv	r1, r3, r1
 8006380:	eb04 0181 	add.w	r1, r4, r1, lsl #2
 8006384:	43da      	mvns	r2, r3
 8006386:	6949      	ldr	r1, [r1, #20]
 8006388:	f002 0203 	and.w	r2, r2, #3
 800638c:	00d2      	lsls	r2, r2, #3
 800638e:	fa21 f202 	lsr.w	r2, r1, r2
 8006392:	54f2      	strb	r2, [r6, r3]
 8006394:	3301      	adds	r3, #1
 8006396:	e7ec      	b.n	8006372 <AES_CMAC_Encrypt_Finish+0x32>
 8006398:	602a      	str	r2, [r5, #0]
 800639a:	2000      	movs	r0, #0
 800639c:	bd70      	pop	{r4, r5, r6, pc}
 800639e:	f44f 6042 	mov.w	r0, #3104	; 0xc20
 80063a2:	bd70      	pop	{r4, r5, r6, pc}
 80063a4:	f640 401f 	movw	r0, #3103	; 0xc1f
 80063a8:	bd70      	pop	{r4, r5, r6, pc}

080063aa <AES_CMAC_Decrypt_Init>:
 80063aa:	f7ff be3a 	b.w	8006022 <AES_CMAC_Encrypt_Init>

080063ae <AES_CMAC_Decrypt_Append>:
 80063ae:	f7ff be4b 	b.w	8006048 <AES_CMAC_Encrypt_Append>

080063b2 <AES_CMAC_Decrypt_Finish>:
 80063b2:	b5f8      	push	{r3, r4, r5, r6, r7, lr}
 80063b4:	4604      	mov	r4, r0
 80063b6:	2800      	cmp	r0, #0
 80063b8:	d048      	beq.n	800644c <AES_CMAC_Decrypt_Finish+0x9a>
 80063ba:	2a00      	cmp	r2, #0
 80063bc:	d046      	beq.n	800644c <AES_CMAC_Decrypt_Finish+0x9a>
 80063be:	2300      	movs	r3, #0
 80063c0:	6013      	str	r3, [r2, #0]
 80063c2:	7903      	ldrb	r3, [r0, #4]
 80063c4:	f003 0340 	and.w	r3, r3, #64	; 0x40
 80063c8:	f003 01ff 	and.w	r1, r3, #255	; 0xff
 80063cc:	b913      	cbnz	r3, 80063d4 <AES_CMAC_Decrypt_Finish+0x22>
 80063ce:	460a      	mov	r2, r1
 80063d0:	f7ff fe3a 	bl	8006048 <AES_CMAC_Encrypt_Append>
 80063d4:	7923      	ldrb	r3, [r4, #4]
 80063d6:	f8d4 011c 	ldr.w	r0, [r4, #284]	; 0x11c
 80063da:	f043 0302 	orr.w	r3, r3, #2
 80063de:	7123      	strb	r3, [r4, #4]
 80063e0:	1e43      	subs	r3, r0, #1
 80063e2:	2b0f      	cmp	r3, #15
 80063e4:	d835      	bhi.n	8006452 <AES_CMAC_Decrypt_Finish+0xa0>
 80063e6:	2300      	movs	r3, #0
 80063e8:	1081      	asrs	r1, r0, #2
 80063ea:	461a      	mov	r2, r3
 80063ec:	428a      	cmp	r2, r1
 80063ee:	da0b      	bge.n	8006408 <AES_CMAC_Decrypt_Finish+0x56>
 80063f0:	f8d4 5118 	ldr.w	r5, [r4, #280]	; 0x118
 80063f4:	eb04 0682 	add.w	r6, r4, r2, lsl #2
 80063f8:	f855 5022 	ldr.w	r5, [r5, r2, lsl #2]
 80063fc:	6976      	ldr	r6, [r6, #20]
 80063fe:	ba2d      	rev	r5, r5
 8006400:	4075      	eors	r5, r6
 8006402:	432b      	orrs	r3, r5
 8006404:	3201      	adds	r2, #1
 8006406:	e7f1      	b.n	80063ec <AES_CMAC_Decrypt_Finish+0x3a>
 8006408:	ea21 71e1 	bic.w	r1, r1, r1, asr #31
 800640c:	eba0 0081 	sub.w	r0, r0, r1, lsl #2
 8006410:	008e      	lsls	r6, r1, #2
 8006412:	2200      	movs	r2, #0
 8006414:	4282      	cmp	r2, r0
 8006416:	da12      	bge.n	800643e <AES_CMAC_Decrypt_Finish+0x8c>
 8006418:	eb04 0581 	add.w	r5, r4, r1, lsl #2
 800641c:	ea4f 0cc2 	mov.w	ip, r2, lsl #3
 8006420:	696d      	ldr	r5, [r5, #20]
 8006422:	f1cc 0c18 	rsb	ip, ip, #24
 8006426:	fa25 fc0c 	lsr.w	ip, r5, ip
 800642a:	f8d4 5118 	ldr.w	r5, [r4, #280]	; 0x118
 800642e:	4415      	add	r5, r2
 8006430:	3201      	adds	r2, #1
 8006432:	5daf      	ldrb	r7, [r5, r6]
 8006434:	ea8c 0507 	eor.w	r5, ip, r7
 8006438:	b2ed      	uxtb	r5, r5
 800643a:	432b      	orrs	r3, r5
 800643c:	e7ea      	b.n	8006414 <AES_CMAC_Decrypt_Finish+0x62>
 800643e:	2b00      	cmp	r3, #0
 8006440:	f240 30eb 	movw	r0, #1003	; 0x3eb
 8006444:	bf18      	it	ne
 8006446:	f44f 707b 	movne.w	r0, #1004	; 0x3ec
 800644a:	bdf8      	pop	{r3, r4, r5, r6, r7, pc}
 800644c:	f44f 6042 	mov.w	r0, #3104	; 0xc20
 8006450:	bdf8      	pop	{r3, r4, r5, r6, r7, pc}
 8006452:	f640 401f 	movw	r0, #3103	; 0xc1f
 8006456:	bdf8      	pop	{r3, r4, r5, r6, r7, pc}

08006458 <AES_KeyWrap_Encrypt_Init>:
 8006458:	b510      	push	{r4, lr}
 800645a:	b130      	cbz	r0, 800646a <AES_KeyWrap_Encrypt_Init+0x12>
 800645c:	2408      	movs	r4, #8
 800645e:	6104      	str	r4, [r0, #16]
 8006460:	2304      	movs	r3, #4
 8006462:	e8bd 4010 	ldmia.w	sp!, {r4, lr}
 8006466:	f7fe b873 	b.w	8004550 <AESstdInit>
 800646a:	f44f 6042 	mov.w	r0, #3104	; 0xc20
 800646e:	bd10      	pop	{r4, pc}

08006470 <AES_KeyWrap_Encrypt_Append>:
 8006470:	e92d 4ff0 	stmdb	sp!, {r4, r5, r6, r7, r8, r9, sl, fp, lr}
 8006474:	f2ad 4d2c 	subw	sp, sp, #1068	; 0x42c
 8006478:	f10d 0928 	add.w	r9, sp, #40	; 0x28
 800647c:	4604      	mov	r4, r0
 800647e:	460f      	mov	r7, r1
 8006480:	4616      	mov	r6, r2
 8006482:	2100      	movs	r1, #0
 8006484:	f44f 6280 	mov.w	r2, #1024	; 0x400
 8006488:	4648      	mov	r0, r9
 800648a:	4698      	mov	r8, r3
 800648c:	f008 fa59 	bl	800e942 <memset>
 8006490:	a802      	add	r0, sp, #8
 8006492:	2100      	movs	r1, #0
 8006494:	2210      	movs	r2, #16
 8006496:	f008 fa54 	bl	800e942 <memset>
 800649a:	2c00      	cmp	r4, #0
 800649c:	d072      	beq.n	8006584 <AES_KeyWrap_Encrypt_Append+0x114>
 800649e:	2f00      	cmp	r7, #0
 80064a0:	d070      	beq.n	8006584 <AES_KeyWrap_Encrypt_Append+0x114>
 80064a2:	f1b8 0f00 	cmp.w	r8, #0
 80064a6:	d06d      	beq.n	8006584 <AES_KeyWrap_Encrypt_Append+0x114>
 80064a8:	f8dd 3450 	ldr.w	r3, [sp, #1104]	; 0x450
 80064ac:	2b00      	cmp	r3, #0
 80064ae:	d069      	beq.n	8006584 <AES_KeyWrap_Encrypt_Append+0x114>
 80064b0:	f016 0507 	ands.w	r5, r6, #7
 80064b4:	d169      	bne.n	800658a <AES_KeyWrap_Encrypt_Append+0x11a>
 80064b6:	1e73      	subs	r3, r6, #1
 80064b8:	2bff      	cmp	r3, #255	; 0xff
 80064ba:	d866      	bhi.n	800658a <AES_KeyWrap_Encrypt_Append+0x11a>
 80064bc:	7923      	ldrb	r3, [r4, #4]
 80064be:	f013 0f06 	tst.w	r3, #6
 80064c2:	d165      	bne.n	8006590 <AES_KeyWrap_Encrypt_Append+0x120>
 80064c4:	f043 0304 	orr.w	r3, r3, #4
 80064c8:	7123      	strb	r3, [r4, #4]
 80064ca:	10b1      	asrs	r1, r6, #2
 80064cc:	462b      	mov	r3, r5
 80064ce:	428b      	cmp	r3, r1
 80064d0:	da06      	bge.n	80064e0 <AES_KeyWrap_Encrypt_Append+0x70>
 80064d2:	f857 2023 	ldr.w	r2, [r7, r3, lsl #2]
 80064d6:	ba12      	rev	r2, r2
 80064d8:	f849 2023 	str.w	r2, [r9, r3, lsl #2]
 80064dc:	3301      	adds	r3, #1
 80064de:	e7f6      	b.n	80064ce <AES_KeyWrap_Encrypt_Append+0x5e>
 80064e0:	ea4f 0bd6 	mov.w	fp, r6, lsr #3
 80064e4:	f04f 0c00 	mov.w	ip, #0
 80064e8:	f04f 0906 	mov.w	r9, #6
 80064ec:	af0a      	add	r7, sp, #40	; 0x28
 80064ee:	f04f 0a00 	mov.w	sl, #0
 80064f2:	45da      	cmp	sl, fp
 80064f4:	f107 0708 	add.w	r7, r7, #8
 80064f8:	da25      	bge.n	8006546 <AES_KeyWrap_Encrypt_Append+0xd6>
 80064fa:	6963      	ldr	r3, [r4, #20]
 80064fc:	9306      	str	r3, [sp, #24]
 80064fe:	69a3      	ldr	r3, [r4, #24]
 8006500:	9307      	str	r3, [sp, #28]
 8006502:	f857 3c08 	ldr.w	r3, [r7, #-8]
 8006506:	9308      	str	r3, [sp, #32]
 8006508:	f857 3c04 	ldr.w	r3, [r7, #-4]
 800650c:	9309      	str	r3, [sp, #36]	; 0x24
 800650e:	f104 0228 	add.w	r2, r4, #40	; 0x28
 8006512:	6a63      	ldr	r3, [r4, #36]	; 0x24
 8006514:	f8cd c004 	str.w	ip, [sp, #4]
 8006518:	a806      	add	r0, sp, #24
 800651a:	a902      	add	r1, sp, #8
 800651c:	f7fd fa4e 	bl	80039bc <AES_general_SW_enc>
 8006520:	f8dd c004 	ldr.w	ip, [sp, #4]
 8006524:	9b02      	ldr	r3, [sp, #8]
 8006526:	6163      	str	r3, [r4, #20]
 8006528:	f10c 0201 	add.w	r2, ip, #1
 800652c:	9b03      	ldr	r3, [sp, #12]
 800652e:	4452      	add	r2, sl
 8006530:	4053      	eors	r3, r2
 8006532:	61a3      	str	r3, [r4, #24]
 8006534:	9b04      	ldr	r3, [sp, #16]
 8006536:	f847 3c08 	str.w	r3, [r7, #-8]
 800653a:	9b05      	ldr	r3, [sp, #20]
 800653c:	f847 3c04 	str.w	r3, [r7, #-4]
 8006540:	f10a 0a01 	add.w	sl, sl, #1
 8006544:	e7d5      	b.n	80064f2 <AES_KeyWrap_Encrypt_Append+0x82>
 8006546:	f1b9 0901 	subs.w	r9, r9, #1
 800654a:	44dc      	add	ip, fp
 800654c:	d1ce      	bne.n	80064ec <AES_KeyWrap_Encrypt_Append+0x7c>
 800654e:	6963      	ldr	r3, [r4, #20]
 8006550:	ba1b      	rev	r3, r3
 8006552:	f8c8 3000 	str.w	r3, [r8]
 8006556:	69a3      	ldr	r3, [r4, #24]
 8006558:	ba1b      	rev	r3, r3
 800655a:	f8c8 3004 	str.w	r3, [r8, #4]
 800655e:	ea4f 0b4b 	mov.w	fp, fp, lsl #1
 8006562:	45d9      	cmp	r9, fp
 8006564:	da09      	bge.n	800657a <AES_KeyWrap_Encrypt_Append+0x10a>
 8006566:	ab0a      	add	r3, sp, #40	; 0x28
 8006568:	f853 2029 	ldr.w	r2, [r3, r9, lsl #2]
 800656c:	eb08 0389 	add.w	r3, r8, r9, lsl #2
 8006570:	ba12      	rev	r2, r2
 8006572:	609a      	str	r2, [r3, #8]
 8006574:	f109 0901 	add.w	r9, r9, #1
 8006578:	e7f3      	b.n	8006562 <AES_KeyWrap_Encrypt_Append+0xf2>
 800657a:	f8dd 3450 	ldr.w	r3, [sp, #1104]	; 0x450
 800657e:	3608      	adds	r6, #8
 8006580:	601e      	str	r6, [r3, #0]
 8006582:	e007      	b.n	8006594 <AES_KeyWrap_Encrypt_Append+0x124>
 8006584:	f44f 6542 	mov.w	r5, #3104	; 0xc20
 8006588:	e004      	b.n	8006594 <AES_KeyWrap_Encrypt_Append+0x124>
 800658a:	f640 451d 	movw	r5, #3101	; 0xc1d
 800658e:	e001      	b.n	8006594 <AES_KeyWrap_Encrypt_Append+0x124>
 8006590:	f640 451e 	movw	r5, #3102	; 0xc1e
 8006594:	4628      	mov	r0, r5
 8006596:	f20d 4d2c 	addw	sp, sp, #1068	; 0x42c
 800659a:	e8bd 8ff0 	ldmia.w	sp!, {r4, r5, r6, r7, r8, r9, sl, fp, pc}

0800659e <AES_KeyWrap_Encrypt_Finish>:
 800659e:	b138      	cbz	r0, 80065b0 <AES_KeyWrap_Encrypt_Finish+0x12>
 80065a0:	b132      	cbz	r2, 80065b0 <AES_KeyWrap_Encrypt_Finish+0x12>
 80065a2:	7903      	ldrb	r3, [r0, #4]
 80065a4:	f043 0302 	orr.w	r3, r3, #2
 80065a8:	7103      	strb	r3, [r0, #4]
 80065aa:	2000      	movs	r0, #0
 80065ac:	6010      	str	r0, [r2, #0]
 80065ae:	4770      	bx	lr
 80065b0:	f44f 6042 	mov.w	r0, #3104	; 0xc20
 80065b4:	4770      	bx	lr

080065b6 <AES_KeyWrap_Decrypt_Init>:
 80065b6:	b510      	push	{r4, lr}
 80065b8:	b130      	cbz	r0, 80065c8 <AES_KeyWrap_Decrypt_Init+0x12>
 80065ba:	2408      	movs	r4, #8
 80065bc:	6104      	str	r4, [r0, #16]
 80065be:	2305      	movs	r3, #5
 80065c0:	e8bd 4010 	ldmia.w	sp!, {r4, lr}
 80065c4:	f7fd bfc4 	b.w	8004550 <AESstdInit>
 80065c8:	f44f 6042 	mov.w	r0, #3104	; 0xc20
 80065cc:	bd10      	pop	{r4, pc}

080065ce <AES_KeyWrap_Decrypt_Append>:
 80065ce:	e92d 4ff0 	stmdb	sp!, {r4, r5, r6, r7, r8, r9, sl, fp, lr}
 80065d2:	b0cf      	sub	sp, #316	; 0x13c
 80065d4:	f10d 0830 	add.w	r8, sp, #48	; 0x30
 80065d8:	4605      	mov	r5, r0
 80065da:	460f      	mov	r7, r1
 80065dc:	4616      	mov	r6, r2
 80065de:	2100      	movs	r1, #0
 80065e0:	f44f 7284 	mov.w	r2, #264	; 0x108
 80065e4:	4640      	mov	r0, r8
 80065e6:	9301      	str	r3, [sp, #4]
 80065e8:	f008 f9ab 	bl	800e942 <memset>
 80065ec:	a804      	add	r0, sp, #16
 80065ee:	2100      	movs	r1, #0
 80065f0:	2210      	movs	r2, #16
 80065f2:	f008 f9a6 	bl	800e942 <memset>
 80065f6:	2d00      	cmp	r5, #0
 80065f8:	d072      	beq.n	80066e0 <AES_KeyWrap_Decrypt_Append+0x112>
 80065fa:	2f00      	cmp	r7, #0
 80065fc:	d070      	beq.n	80066e0 <AES_KeyWrap_Decrypt_Append+0x112>
 80065fe:	9901      	ldr	r1, [sp, #4]
 8006600:	2900      	cmp	r1, #0
 8006602:	d06d      	beq.n	80066e0 <AES_KeyWrap_Decrypt_Append+0x112>
 8006604:	9a58      	ldr	r2, [sp, #352]	; 0x160
 8006606:	2a00      	cmp	r2, #0
 8006608:	d06a      	beq.n	80066e0 <AES_KeyWrap_Decrypt_Append+0x112>
 800660a:	f016 0407 	ands.w	r4, r6, #7
 800660e:	d16a      	bne.n	80066e6 <AES_KeyWrap_Decrypt_Append+0x118>
 8006610:	f1a6 0308 	sub.w	r3, r6, #8
 8006614:	f5b3 7f80 	cmp.w	r3, #256	; 0x100
 8006618:	d865      	bhi.n	80066e6 <AES_KeyWrap_Decrypt_Append+0x118>
 800661a:	792b      	ldrb	r3, [r5, #4]
 800661c:	f013 0f06 	tst.w	r3, #6
 8006620:	d164      	bne.n	80066ec <AES_KeyWrap_Decrypt_Append+0x11e>
 8006622:	f043 0304 	orr.w	r3, r3, #4
 8006626:	712b      	strb	r3, [r5, #4]
 8006628:	10b1      	asrs	r1, r6, #2
 800662a:	4623      	mov	r3, r4
 800662c:	f857 2023 	ldr.w	r2, [r7, r3, lsl #2]
 8006630:	ba12      	rev	r2, r2
 8006632:	f848 2023 	str.w	r2, [r8, r3, lsl #2]
 8006636:	3301      	adds	r3, #1
 8006638:	428b      	cmp	r3, r1
 800663a:	dbf7      	blt.n	800662c <AES_KeyWrap_Decrypt_Append+0x5e>
 800663c:	ea4f 0cd6 	mov.w	ip, r6, lsr #3
 8006640:	f10c 37ff 	add.w	r7, ip, #4294967295
 8006644:	e898 000c 	ldmia.w	r8, {r2, r3}
 8006648:	eb07 0a87 	add.w	sl, r7, r7, lsl #2
 800664c:	eb08 08c7 	add.w	r8, r8, r7, lsl #3
 8006650:	f8cd 8008 	str.w	r8, [sp, #8]
 8006654:	44ba      	add	sl, r7
 8006656:	ea4f 0b47 	mov.w	fp, r7, lsl #1
 800665a:	f04f 0806 	mov.w	r8, #6
 800665e:	f1cc 0101 	rsb	r1, ip, #1
 8006662:	4451      	add	r1, sl
 8006664:	9e02      	ldr	r6, [sp, #8]
 8006666:	9103      	str	r1, [sp, #12]
 8006668:	46d1      	mov	r9, sl
 800666a:	9903      	ldr	r1, [sp, #12]
 800666c:	4589      	cmp	r9, r1
 800666e:	f1a6 0608 	sub.w	r6, r6, #8
 8006672:	d01b      	beq.n	80066ac <AES_KeyWrap_Decrypt_Append+0xde>
 8006674:	ea89 0303 	eor.w	r3, r9, r3
 8006678:	9309      	str	r3, [sp, #36]	; 0x24
 800667a:	68b3      	ldr	r3, [r6, #8]
 800667c:	930a      	str	r3, [sp, #40]	; 0x28
 800667e:	68f3      	ldr	r3, [r6, #12]
 8006680:	9208      	str	r2, [sp, #32]
 8006682:	930b      	str	r3, [sp, #44]	; 0x2c
 8006684:	a904      	add	r1, sp, #16
 8006686:	f105 0228 	add.w	r2, r5, #40	; 0x28
 800668a:	6a6b      	ldr	r3, [r5, #36]	; 0x24
 800668c:	f8cd c000 	str.w	ip, [sp]
 8006690:	a808      	add	r0, sp, #32
 8006692:	f7fe f813 	bl	80046bc <AES_general_SW_dec>
 8006696:	9906      	ldr	r1, [sp, #24]
 8006698:	60b1      	str	r1, [r6, #8]
 800669a:	9907      	ldr	r1, [sp, #28]
 800669c:	9a04      	ldr	r2, [sp, #16]
 800669e:	9b05      	ldr	r3, [sp, #20]
 80066a0:	60f1      	str	r1, [r6, #12]
 80066a2:	f109 39ff 	add.w	r9, r9, #4294967295
 80066a6:	f8dd c000 	ldr.w	ip, [sp]
 80066aa:	e7de      	b.n	800666a <AES_KeyWrap_Decrypt_Append+0x9c>
 80066ac:	f1b8 0801 	subs.w	r8, r8, #1
 80066b0:	ebc7 0a0a 	rsb	sl, r7, sl
 80066b4:	d1d3      	bne.n	800665e <AES_KeyWrap_Decrypt_Append+0x90>
 80066b6:	61ea      	str	r2, [r5, #28]
 80066b8:	622b      	str	r3, [r5, #32]
 80066ba:	45d8      	cmp	r8, fp
 80066bc:	da0a      	bge.n	80066d4 <AES_KeyWrap_Decrypt_Append+0x106>
 80066be:	aa0c      	add	r2, sp, #48	; 0x30
 80066c0:	eb02 0388 	add.w	r3, r2, r8, lsl #2
 80066c4:	9901      	ldr	r1, [sp, #4]
 80066c6:	689b      	ldr	r3, [r3, #8]
 80066c8:	ba1b      	rev	r3, r3
 80066ca:	f841 3028 	str.w	r3, [r1, r8, lsl #2]
 80066ce:	f108 0801 	add.w	r8, r8, #1
 80066d2:	e7f2      	b.n	80066ba <AES_KeyWrap_Decrypt_Append+0xec>
 80066d4:	ea2b 73eb 	bic.w	r3, fp, fp, asr #31
 80066d8:	9a58      	ldr	r2, [sp, #352]	; 0x160
 80066da:	009b      	lsls	r3, r3, #2
 80066dc:	6013      	str	r3, [r2, #0]
 80066de:	e007      	b.n	80066f0 <AES_KeyWrap_Decrypt_Append+0x122>
 80066e0:	f44f 6442 	mov.w	r4, #3104	; 0xc20
 80066e4:	e004      	b.n	80066f0 <AES_KeyWrap_Decrypt_Append+0x122>
 80066e6:	f640 441d 	movw	r4, #3101	; 0xc1d
 80066ea:	e001      	b.n	80066f0 <AES_KeyWrap_Decrypt_Append+0x122>
 80066ec:	f640 441e 	movw	r4, #3102	; 0xc1e
 80066f0:	4620      	mov	r0, r4
 80066f2:	b04f      	add	sp, #316	; 0x13c
 80066f4:	e8bd 8ff0 	ldmia.w	sp!, {r4, r5, r6, r7, r8, r9, sl, fp, pc}

080066f8 <AES_KeyWrap_Decrypt_Finish>:
 80066f8:	b198      	cbz	r0, 8006722 <AES_KeyWrap_Decrypt_Finish+0x2a>
 80066fa:	b192      	cbz	r2, 8006722 <AES_KeyWrap_Decrypt_Finish+0x2a>
 80066fc:	7903      	ldrb	r3, [r0, #4]
 80066fe:	f043 0302 	orr.w	r3, r3, #2
 8006702:	7103      	strb	r3, [r0, #4]
 8006704:	2300      	movs	r3, #0
 8006706:	6013      	str	r3, [r2, #0]
 8006708:	6982      	ldr	r2, [r0, #24]
 800670a:	6a03      	ldr	r3, [r0, #32]
 800670c:	6941      	ldr	r1, [r0, #20]
 800670e:	4053      	eors	r3, r2
 8006710:	69c2      	ldr	r2, [r0, #28]
 8006712:	4051      	eors	r1, r2
 8006714:	4319      	orrs	r1, r3
 8006716:	f240 30eb 	movw	r0, #1003	; 0x3eb
 800671a:	bf18      	it	ne
 800671c:	f44f 707b 	movne.w	r0, #1004	; 0x3ec
 8006720:	4770      	bx	lr
 8006722:	f44f 6042 	mov.w	r0, #3104	; 0xc20
 8006726:	4770      	bx	lr

08006728 <AES_XTS_Encrypt_Init>:
 8006728:	2300      	movs	r3, #0
 800672a:	f7fd bf7d 	b.w	8004628 <AES_XTS_Common_Init>

0800672e <AES_XTS_Encrypt_Append>:
 800672e:	b573      	push	{r0, r1, r4, r5, r6, lr}
 8006730:	4614      	mov	r4, r2
 8006732:	b148      	cbz	r0, 8006748 <AES_XTS_Encrypt_Append+0x1a>
 8006734:	b141      	cbz	r1, 8006748 <AES_XTS_Encrypt_Append+0x1a>
 8006736:	b13b      	cbz	r3, 8006748 <AES_XTS_Encrypt_Append+0x1a>
 8006738:	2500      	movs	r5, #0
 800673a:	9500      	str	r5, [sp, #0]
 800673c:	f7fe f918 	bl	8004970 <AES_XTS_Common_Append.part.5>
 8006740:	b920      	cbnz	r0, 800674c <AES_XTS_Encrypt_Append+0x1e>
 8006742:	9b06      	ldr	r3, [sp, #24]
 8006744:	601c      	str	r4, [r3, #0]
 8006746:	e001      	b.n	800674c <AES_XTS_Encrypt_Append+0x1e>
 8006748:	f44f 6042 	mov.w	r0, #3104	; 0xc20
 800674c:	b002      	add	sp, #8
 800674e:	bd70      	pop	{r4, r5, r6, pc}

08006750 <AES_XTS_Encrypt_Finish>:
 8006750:	b138      	cbz	r0, 8006762 <AES_XTS_Encrypt_Finish+0x12>
 8006752:	b132      	cbz	r2, 8006762 <AES_XTS_Encrypt_Finish+0x12>
 8006754:	7903      	ldrb	r3, [r0, #4]
 8006756:	f043 0302 	orr.w	r3, r3, #2
 800675a:	7103      	strb	r3, [r0, #4]
 800675c:	2000      	movs	r0, #0
 800675e:	6010      	str	r0, [r2, #0]
 8006760:	4770      	bx	lr
 8006762:	f44f 6042 	mov.w	r0, #3104	; 0xc20
 8006766:	4770      	bx	lr

08006768 <AES_XTS_Decrypt_Init>:
 8006768:	2301      	movs	r3, #1
 800676a:	f7fd bf5d 	b.w	8004628 <AES_XTS_Common_Init>

0800676e <AES_XTS_Decrypt_Append>:
 800676e:	b573      	push	{r0, r1, r4, r5, r6, lr}
 8006770:	4614      	mov	r4, r2
 8006772:	b148      	cbz	r0, 8006788 <AES_XTS_Decrypt_Append+0x1a>
 8006774:	b141      	cbz	r1, 8006788 <AES_XTS_Decrypt_Append+0x1a>
 8006776:	b13b      	cbz	r3, 8006788 <AES_XTS_Decrypt_Append+0x1a>
 8006778:	2501      	movs	r5, #1
 800677a:	9500      	str	r5, [sp, #0]
 800677c:	f7fe f8f8 	bl	8004970 <AES_XTS_Common_Append.part.5>
 8006780:	b920      	cbnz	r0, 800678c <AES_XTS_Decrypt_Append+0x1e>
 8006782:	9b06      	ldr	r3, [sp, #24]
 8006784:	601c      	str	r4, [r3, #0]
 8006786:	e001      	b.n	800678c <AES_XTS_Decrypt_Append+0x1e>
 8006788:	f44f 6042 	mov.w	r0, #3104	; 0xc20
 800678c:	b002      	add	sp, #8
 800678e:	bd70      	pop	{r4, r5, r6, pc}

08006790 <AES_XTS_Decrypt_Finish>:
 8006790:	f7ff bfde 	b.w	8006750 <AES_XTS_Encrypt_Finish>

08006794 <AES_OFB_Encrypt_Init>:
 8006794:	b5f8      	push	{r3, r4, r5, r6, r7, lr}
 8006796:	2302      	movs	r3, #2
 8006798:	4604      	mov	r4, r0
 800679a:	4617      	mov	r7, r2
 800679c:	f7fd fed8 	bl	8004550 <AESstdInit>
 80067a0:	b9f8      	cbnz	r0, 80067e2 <AES_OFB_Encrypt_Init+0x4e>
 80067a2:	6922      	ldr	r2, [r4, #16]
 80067a4:	6160      	str	r0, [r4, #20]
 80067a6:	61a0      	str	r0, [r4, #24]
 80067a8:	61e0      	str	r0, [r4, #28]
 80067aa:	6220      	str	r0, [r4, #32]
 80067ac:	4601      	mov	r1, r0
 80067ae:	4291      	cmp	r1, r2
 80067b0:	da17      	bge.n	80067e2 <AES_OFB_Encrypt_Init+0x4e>
 80067b2:	4b0c      	ldr	r3, [pc, #48]	; (80067e4 <AES_OFB_Encrypt_Init+0x50>)
 80067b4:	5c7e      	ldrb	r6, [r7, r1]
 80067b6:	2504      	movs	r5, #4
 80067b8:	400b      	ands	r3, r1
 80067ba:	fb91 f5f5 	sdiv	r5, r1, r5
 80067be:	2b00      	cmp	r3, #0
 80067c0:	eb04 0585 	add.w	r5, r4, r5, lsl #2
 80067c4:	da03      	bge.n	80067ce <AES_OFB_Encrypt_Init+0x3a>
 80067c6:	3b01      	subs	r3, #1
 80067c8:	f063 0303 	orn	r3, r3, #3
 80067cc:	3301      	adds	r3, #1
 80067ce:	f1c3 0303 	rsb	r3, r3, #3
 80067d2:	00db      	lsls	r3, r3, #3
 80067d4:	fa06 f303 	lsl.w	r3, r6, r3
 80067d8:	696e      	ldr	r6, [r5, #20]
 80067da:	431e      	orrs	r6, r3
 80067dc:	616e      	str	r6, [r5, #20]
 80067de:	3101      	adds	r1, #1
 80067e0:	e7e5      	b.n	80067ae <AES_OFB_Encrypt_Init+0x1a>
 80067e2:	bdf8      	pop	{r3, r4, r5, r6, r7, pc}
 80067e4:	80000003 	.word	0x80000003

080067e8 <AES_OFB_Encrypt_Append>:
 80067e8:	e92d 47ff 	stmdb	sp!, {r0, r1, r2, r3, r4, r5, r6, r7, r8, r9, sl, lr}
 80067ec:	f8dd 8030 	ldr.w	r8, [sp, #48]	; 0x30
 80067f0:	460f      	mov	r7, r1
 80067f2:	4616      	mov	r6, r2
 80067f4:	4699      	mov	r9, r3
 80067f6:	4604      	mov	r4, r0
 80067f8:	2800      	cmp	r0, #0
 80067fa:	d07c      	beq.n	80068f6 <AES_OFB_Encrypt_Append+0x10e>
 80067fc:	2900      	cmp	r1, #0
 80067fe:	d07a      	beq.n	80068f6 <AES_OFB_Encrypt_Append+0x10e>
 8006800:	2b00      	cmp	r3, #0
 8006802:	d078      	beq.n	80068f6 <AES_OFB_Encrypt_Append+0x10e>
 8006804:	f1b8 0f00 	cmp.w	r8, #0
 8006808:	d075      	beq.n	80068f6 <AES_OFB_Encrypt_Append+0x10e>
 800680a:	7905      	ldrb	r5, [r0, #4]
 800680c:	f015 0506 	ands.w	r5, r5, #6
 8006810:	d174      	bne.n	80068fc <AES_OFB_Encrypt_Append+0x114>
 8006812:	f105 030f 	add.w	r3, r5, #15
 8006816:	42b3      	cmp	r3, r6
 8006818:	da1f      	bge.n	800685a <AES_OFB_Encrypt_Append+0x72>
 800681a:	2300      	movs	r3, #0
 800681c:	197a      	adds	r2, r7, r5
 800681e:	58d2      	ldr	r2, [r2, r3]
 8006820:	ba12      	rev	r2, r2
 8006822:	f84d 2003 	str.w	r2, [sp, r3]
 8006826:	3304      	adds	r3, #4
 8006828:	2b10      	cmp	r3, #16
 800682a:	d1f7      	bne.n	800681c <AES_OFB_Encrypt_Append+0x34>
 800682c:	f104 0014 	add.w	r0, r4, #20
 8006830:	4601      	mov	r1, r0
 8006832:	f104 0228 	add.w	r2, r4, #40	; 0x28
 8006836:	6a63      	ldr	r3, [r4, #36]	; 0x24
 8006838:	f7fd f8c0 	bl	80039bc <AES_general_SW_enc>
 800683c:	2000      	movs	r0, #0
 800683e:	1823      	adds	r3, r4, r0
 8006840:	695a      	ldr	r2, [r3, #20]
 8006842:	f85d 3000 	ldr.w	r3, [sp, r0]
 8006846:	4053      	eors	r3, r2
 8006848:	eb09 0205 	add.w	r2, r9, r5
 800684c:	ba1b      	rev	r3, r3
 800684e:	5013      	str	r3, [r2, r0]
 8006850:	3004      	adds	r0, #4
 8006852:	2810      	cmp	r0, #16
 8006854:	d1f3      	bne.n	800683e <AES_OFB_Encrypt_Append+0x56>
 8006856:	3510      	adds	r5, #16
 8006858:	e7db      	b.n	8006812 <AES_OFB_Encrypt_Append+0x2a>
 800685a:	42b5      	cmp	r5, r6
 800685c:	db03      	blt.n	8006866 <AES_OFB_Encrypt_Append+0x7e>
 800685e:	f8c8 6000 	str.w	r6, [r8]
 8006862:	2000      	movs	r0, #0
 8006864:	e04c      	b.n	8006900 <AES_OFB_Encrypt_Append+0x118>
 8006866:	7923      	ldrb	r3, [r4, #4]
 8006868:	f104 0014 	add.w	r0, r4, #20
 800686c:	f043 0304 	orr.w	r3, r3, #4
 8006870:	4601      	mov	r1, r0
 8006872:	7123      	strb	r3, [r4, #4]
 8006874:	f104 0228 	add.w	r2, r4, #40	; 0x28
 8006878:	6a63      	ldr	r3, [r4, #36]	; 0x24
 800687a:	f7fd f89f 	bl	80039bc <AES_general_SW_enc>
 800687e:	1b71      	subs	r1, r6, r5
 8006880:	2304      	movs	r3, #4
 8006882:	2000      	movs	r0, #0
 8006884:	fb91 f3f3 	sdiv	r3, r1, r3
 8006888:	4602      	mov	r2, r0
 800688a:	429a      	cmp	r2, r3
 800688c:	da14      	bge.n	80068b8 <AES_OFB_Encrypt_Append+0xd0>
 800688e:	eb07 0c05 	add.w	ip, r7, r5
 8006892:	3201      	adds	r2, #1
 8006894:	f85c a000 	ldr.w	sl, [ip, r0]
 8006898:	eb04 0c00 	add.w	ip, r4, r0
 800689c:	fa9a fa8a 	rev.w	sl, sl
 80068a0:	f8dc c014 	ldr.w	ip, [ip, #20]
 80068a4:	ea8a 0a0c 	eor.w	sl, sl, ip
 80068a8:	eb09 0c05 	add.w	ip, r9, r5
 80068ac:	fa9a fa8a 	rev.w	sl, sl
 80068b0:	f84c a000 	str.w	sl, [ip, r0]
 80068b4:	3004      	adds	r0, #4
 80068b6:	e7e8      	b.n	800688a <AES_OFB_Encrypt_Append+0xa2>
 80068b8:	ea23 73e3 	bic.w	r3, r3, r3, asr #31
 80068bc:	eba1 0183 	sub.w	r1, r1, r3, lsl #2
 80068c0:	eb05 0583 	add.w	r5, r5, r3, lsl #2
 80068c4:	2000      	movs	r0, #0
 80068c6:	4288      	cmp	r0, r1
 80068c8:	dac9      	bge.n	800685e <AES_OFB_Encrypt_Append+0x76>
 80068ca:	eb04 0a83 	add.w	sl, r4, r3, lsl #2
 80068ce:	ea4f 0cc0 	mov.w	ip, r0, lsl #3
 80068d2:	f8da a014 	ldr.w	sl, [sl, #20]
 80068d6:	f1cc 0c18 	rsb	ip, ip, #24
 80068da:	fa2a fc0c 	lsr.w	ip, sl, ip
 80068de:	eb07 0a05 	add.w	sl, r7, r5
 80068e2:	eb09 0205 	add.w	r2, r9, r5
 80068e6:	f81a a000 	ldrb.w	sl, [sl, r0]
 80068ea:	ea8c 0c0a 	eor.w	ip, ip, sl
 80068ee:	f802 c000 	strb.w	ip, [r2, r0]
 80068f2:	3001      	adds	r0, #1
 80068f4:	e7e7      	b.n	80068c6 <AES_OFB_Encrypt_Append+0xde>
 80068f6:	f44f 6042 	mov.w	r0, #3104	; 0xc20
 80068fa:	e001      	b.n	8006900 <AES_OFB_Encrypt_Append+0x118>
 80068fc:	f640 401e 	movw	r0, #3102	; 0xc1e
 8006900:	b004      	add	sp, #16
 8006902:	e8bd 87f0 	ldmia.w	sp!, {r4, r5, r6, r7, r8, r9, sl, pc}

08006906 <AES_OFB_Encrypt_Finish>:
 8006906:	b138      	cbz	r0, 8006918 <AES_OFB_Encrypt_Finish+0x12>
 8006908:	b132      	cbz	r2, 8006918 <AES_OFB_Encrypt_Finish+0x12>
 800690a:	7903      	ldrb	r3, [r0, #4]
 800690c:	f043 0302 	orr.w	r3, r3, #2
 8006910:	7103      	strb	r3, [r0, #4]
 8006912:	2000      	movs	r0, #0
 8006914:	6010      	str	r0, [r2, #0]
 8006916:	4770      	bx	lr
 8006918:	f44f 6042 	mov.w	r0, #3104	; 0xc20
 800691c:	4770      	bx	lr

0800691e <AES_OFB_Decrypt_Init>:
 800691e:	f7ff bf39 	b.w	8006794 <AES_OFB_Encrypt_Init>

08006922 <AES_OFB_Decrypt_Append>:
 8006922:	f7ff bf61 	b.w	80067e8 <AES_OFB_Encrypt_Append>

08006926 <AES_OFB_Decrypt_Finish>:
 8006926:	f7ff bfee 	b.w	8006906 <AES_OFB_Encrypt_Finish>
	...

0800692c <AES_CFB_Encrypt_Init>:
 800692c:	b5f8      	push	{r3, r4, r5, r6, r7, lr}
 800692e:	2302      	movs	r3, #2
 8006930:	4604      	mov	r4, r0
 8006932:	4617      	mov	r7, r2
 8006934:	f7fd fe0c 	bl	8004550 <AESstdInit>
 8006938:	b9f8      	cbnz	r0, 800697a <AES_CFB_Encrypt_Init+0x4e>
 800693a:	6922      	ldr	r2, [r4, #16]
 800693c:	6160      	str	r0, [r4, #20]
 800693e:	61a0      	str	r0, [r4, #24]
 8006940:	61e0      	str	r0, [r4, #28]
 8006942:	6220      	str	r0, [r4, #32]
 8006944:	4601      	mov	r1, r0
 8006946:	4291      	cmp	r1, r2
 8006948:	da17      	bge.n	800697a <AES_CFB_Encrypt_Init+0x4e>
 800694a:	4b0c      	ldr	r3, [pc, #48]	; (800697c <AES_CFB_Encrypt_Init+0x50>)
 800694c:	5c7e      	ldrb	r6, [r7, r1]
 800694e:	2504      	movs	r5, #4
 8006950:	400b      	ands	r3, r1
 8006952:	fb91 f5f5 	sdiv	r5, r1, r5
 8006956:	2b00      	cmp	r3, #0
 8006958:	eb04 0585 	add.w	r5, r4, r5, lsl #2
 800695c:	da03      	bge.n	8006966 <AES_CFB_Encrypt_Init+0x3a>
 800695e:	3b01      	subs	r3, #1
 8006960:	f063 0303 	orn	r3, r3, #3
 8006964:	3301      	adds	r3, #1
 8006966:	f1c3 0303 	rsb	r3, r3, #3
 800696a:	00db      	lsls	r3, r3, #3
 800696c:	fa06 f303 	lsl.w	r3, r6, r3
 8006970:	696e      	ldr	r6, [r5, #20]
 8006972:	431e      	orrs	r6, r3
 8006974:	616e      	str	r6, [r5, #20]
 8006976:	3101      	adds	r1, #1
 8006978:	e7e5      	b.n	8006946 <AES_CFB_Encrypt_Init+0x1a>
 800697a:	bdf8      	pop	{r3, r4, r5, r6, r7, pc}
 800697c:	80000003 	.word	0x80000003

08006980 <AES_CFB_Encrypt_Append>:
 8006980:	e92d 47ff 	stmdb	sp!, {r0, r1, r2, r3, r4, r5, r6, r7, r8, r9, sl, lr}
 8006984:	f8dd 8030 	ldr.w	r8, [sp, #48]	; 0x30
 8006988:	460f      	mov	r7, r1
 800698a:	4616      	mov	r6, r2
 800698c:	4699      	mov	r9, r3
 800698e:	4604      	mov	r4, r0
 8006990:	2800      	cmp	r0, #0
 8006992:	d07c      	beq.n	8006a8e <AES_CFB_Encrypt_Append+0x10e>
 8006994:	2900      	cmp	r1, #0
 8006996:	d07a      	beq.n	8006a8e <AES_CFB_Encrypt_Append+0x10e>
 8006998:	2b00      	cmp	r3, #0
 800699a:	d078      	beq.n	8006a8e <AES_CFB_Encrypt_Append+0x10e>
 800699c:	f1b8 0f00 	cmp.w	r8, #0
 80069a0:	d075      	beq.n	8006a8e <AES_CFB_Encrypt_Append+0x10e>
 80069a2:	7905      	ldrb	r5, [r0, #4]
 80069a4:	f015 0506 	ands.w	r5, r5, #6
 80069a8:	d174      	bne.n	8006a94 <AES_CFB_Encrypt_Append+0x114>
 80069aa:	f105 030f 	add.w	r3, r5, #15
 80069ae:	42b3      	cmp	r3, r6
 80069b0:	da20      	bge.n	80069f4 <AES_CFB_Encrypt_Append+0x74>
 80069b2:	2300      	movs	r3, #0
 80069b4:	197a      	adds	r2, r7, r5
 80069b6:	58d2      	ldr	r2, [r2, r3]
 80069b8:	ba12      	rev	r2, r2
 80069ba:	f84d 2003 	str.w	r2, [sp, r3]
 80069be:	3304      	adds	r3, #4
 80069c0:	2b10      	cmp	r3, #16
 80069c2:	d1f7      	bne.n	80069b4 <AES_CFB_Encrypt_Append+0x34>
 80069c4:	f104 0014 	add.w	r0, r4, #20
 80069c8:	4601      	mov	r1, r0
 80069ca:	f104 0228 	add.w	r2, r4, #40	; 0x28
 80069ce:	6a63      	ldr	r3, [r4, #36]	; 0x24
 80069d0:	f7fc fff4 	bl	80039bc <AES_general_SW_enc>
 80069d4:	2000      	movs	r0, #0
 80069d6:	1822      	adds	r2, r4, r0
 80069d8:	f85d 3000 	ldr.w	r3, [sp, r0]
 80069dc:	6951      	ldr	r1, [r2, #20]
 80069de:	404b      	eors	r3, r1
 80069e0:	6153      	str	r3, [r2, #20]
 80069e2:	eb09 0205 	add.w	r2, r9, r5
 80069e6:	ba1b      	rev	r3, r3
 80069e8:	5013      	str	r3, [r2, r0]
 80069ea:	3004      	adds	r0, #4
 80069ec:	2810      	cmp	r0, #16
 80069ee:	d1f2      	bne.n	80069d6 <AES_CFB_Encrypt_Append+0x56>
 80069f0:	3510      	adds	r5, #16
 80069f2:	e7da      	b.n	80069aa <AES_CFB_Encrypt_Append+0x2a>
 80069f4:	42b5      	cmp	r5, r6
 80069f6:	db03      	blt.n	8006a00 <AES_CFB_Encrypt_Append+0x80>
 80069f8:	f8c8 6000 	str.w	r6, [r8]
 80069fc:	2000      	movs	r0, #0
 80069fe:	e04b      	b.n	8006a98 <AES_CFB_Encrypt_Append+0x118>
 8006a00:	7923      	ldrb	r3, [r4, #4]
 8006a02:	f104 0014 	add.w	r0, r4, #20
 8006a06:	f043 0304 	orr.w	r3, r3, #4
 8006a0a:	7123      	strb	r3, [r4, #4]
 8006a0c:	4601      	mov	r1, r0
 8006a0e:	f104 0228 	add.w	r2, r4, #40	; 0x28
 8006a12:	6a63      	ldr	r3, [r4, #36]	; 0x24
 8006a14:	f7fc ffd2 	bl	80039bc <AES_general_SW_enc>
 8006a18:	1b72      	subs	r2, r6, r5
 8006a1a:	f04f 0c04 	mov.w	ip, #4
 8006a1e:	fb92 fcfc 	sdiv	ip, r2, ip
 8006a22:	4623      	mov	r3, r4
 8006a24:	2000      	movs	r0, #0
 8006a26:	4560      	cmp	r0, ip
 8006a28:	f103 0304 	add.w	r3, r3, #4
 8006a2c:	da10      	bge.n	8006a50 <AES_CFB_Encrypt_Append+0xd0>
 8006a2e:	1979      	adds	r1, r7, r5
 8006a30:	f851 1020 	ldr.w	r1, [r1, r0, lsl #2]
 8006a34:	fa91 fa81 	rev.w	sl, r1
 8006a38:	6919      	ldr	r1, [r3, #16]
 8006a3a:	ea8a 0101 	eor.w	r1, sl, r1
 8006a3e:	6119      	str	r1, [r3, #16]
 8006a40:	fa91 fa81 	rev.w	sl, r1
 8006a44:	eb09 0105 	add.w	r1, r9, r5
 8006a48:	f841 a020 	str.w	sl, [r1, r0, lsl #2]
 8006a4c:	3001      	adds	r0, #1
 8006a4e:	e7ea      	b.n	8006a26 <AES_CFB_Encrypt_Append+0xa6>
 8006a50:	ea2c 73ec 	bic.w	r3, ip, ip, asr #31
 8006a54:	eba2 0283 	sub.w	r2, r2, r3, lsl #2
 8006a58:	eb05 0583 	add.w	r5, r5, r3, lsl #2
 8006a5c:	2000      	movs	r0, #0
 8006a5e:	4290      	cmp	r0, r2
 8006a60:	daca      	bge.n	80069f8 <AES_CFB_Encrypt_Append+0x78>
 8006a62:	eb04 0a83 	add.w	sl, r4, r3, lsl #2
 8006a66:	ea4f 0cc0 	mov.w	ip, r0, lsl #3
 8006a6a:	f8da a014 	ldr.w	sl, [sl, #20]
 8006a6e:	f1cc 0c18 	rsb	ip, ip, #24
 8006a72:	fa2a fc0c 	lsr.w	ip, sl, ip
 8006a76:	eb07 0a05 	add.w	sl, r7, r5
 8006a7a:	eb09 0105 	add.w	r1, r9, r5
 8006a7e:	f81a a000 	ldrb.w	sl, [sl, r0]
 8006a82:	ea8c 0c0a 	eor.w	ip, ip, sl
 8006a86:	f801 c000 	strb.w	ip, [r1, r0]
 8006a8a:	3001      	adds	r0, #1
 8006a8c:	e7e7      	b.n	8006a5e <AES_CFB_Encrypt_Append+0xde>
 8006a8e:	f44f 6042 	mov.w	r0, #3104	; 0xc20
 8006a92:	e001      	b.n	8006a98 <AES_CFB_Encrypt_Append+0x118>
 8006a94:	f640 401e 	movw	r0, #3102	; 0xc1e
 8006a98:	b004      	add	sp, #16
 8006a9a:	e8bd 87f0 	ldmia.w	sp!, {r4, r5, r6, r7, r8, r9, sl, pc}

08006a9e <AES_CFB_Encrypt_Finish>:
 8006a9e:	b138      	cbz	r0, 8006ab0 <AES_CFB_Encrypt_Finish+0x12>
 8006aa0:	b132      	cbz	r2, 8006ab0 <AES_CFB_Encrypt_Finish+0x12>
 8006aa2:	7903      	ldrb	r3, [r0, #4]
 8006aa4:	f043 0302 	orr.w	r3, r3, #2
 8006aa8:	7103      	strb	r3, [r0, #4]
 8006aaa:	2000      	movs	r0, #0
 8006aac:	6010      	str	r0, [r2, #0]
 8006aae:	4770      	bx	lr
 8006ab0:	f44f 6042 	mov.w	r0, #3104	; 0xc20
 8006ab4:	4770      	bx	lr

08006ab6 <AES_CFB_Decrypt_Init>:
 8006ab6:	f7ff bf39 	b.w	800692c <AES_CFB_Encrypt_Init>

08006aba <AES_CFB_Decrypt_Append>:
 8006aba:	e92d 47ff 	stmdb	sp!, {r0, r1, r2, r3, r4, r5, r6, r7, r8, r9, sl, lr}
 8006abe:	f8dd 8030 	ldr.w	r8, [sp, #48]	; 0x30
 8006ac2:	460f      	mov	r7, r1
 8006ac4:	4616      	mov	r6, r2
 8006ac6:	4699      	mov	r9, r3
 8006ac8:	4604      	mov	r4, r0
 8006aca:	2800      	cmp	r0, #0
 8006acc:	d07f      	beq.n	8006bce <AES_CFB_Decrypt_Append+0x114>
 8006ace:	2900      	cmp	r1, #0
 8006ad0:	d07d      	beq.n	8006bce <AES_CFB_Decrypt_Append+0x114>
 8006ad2:	2b00      	cmp	r3, #0
 8006ad4:	d07b      	beq.n	8006bce <AES_CFB_Decrypt_Append+0x114>
 8006ad6:	f1b8 0f00 	cmp.w	r8, #0
 8006ada:	d078      	beq.n	8006bce <AES_CFB_Decrypt_Append+0x114>
 8006adc:	7905      	ldrb	r5, [r0, #4]
 8006ade:	f015 0506 	ands.w	r5, r5, #6
 8006ae2:	d177      	bne.n	8006bd4 <AES_CFB_Decrypt_Append+0x11a>
 8006ae4:	f105 030f 	add.w	r3, r5, #15
 8006ae8:	42b3      	cmp	r3, r6
 8006aea:	da23      	bge.n	8006b34 <AES_CFB_Decrypt_Append+0x7a>
 8006aec:	2300      	movs	r3, #0
 8006aee:	197a      	adds	r2, r7, r5
 8006af0:	58d2      	ldr	r2, [r2, r3]
 8006af2:	ba12      	rev	r2, r2
 8006af4:	f84d 2003 	str.w	r2, [sp, r3]
 8006af8:	3304      	adds	r3, #4
 8006afa:	2b10      	cmp	r3, #16
 8006afc:	d1f7      	bne.n	8006aee <AES_CFB_Decrypt_Append+0x34>
 8006afe:	f104 0014 	add.w	r0, r4, #20
 8006b02:	4601      	mov	r1, r0
 8006b04:	6a63      	ldr	r3, [r4, #36]	; 0x24
 8006b06:	f104 0228 	add.w	r2, r4, #40	; 0x28
 8006b0a:	f7fc ff57 	bl	80039bc <AES_general_SW_enc>
 8006b0e:	4623      	mov	r3, r4
 8006b10:	2000      	movs	r0, #0
 8006b12:	6959      	ldr	r1, [r3, #20]
 8006b14:	f85d 2000 	ldr.w	r2, [sp, r0]
 8006b18:	eb09 0c05 	add.w	ip, r9, r5
 8006b1c:	4051      	eors	r1, r2
 8006b1e:	ba09      	rev	r1, r1
 8006b20:	f84c 1000 	str.w	r1, [ip, r0]
 8006b24:	3004      	adds	r0, #4
 8006b26:	2810      	cmp	r0, #16
 8006b28:	615a      	str	r2, [r3, #20]
 8006b2a:	f103 0304 	add.w	r3, r3, #4
 8006b2e:	d1f0      	bne.n	8006b12 <AES_CFB_Decrypt_Append+0x58>
 8006b30:	3510      	adds	r5, #16
 8006b32:	e7d7      	b.n	8006ae4 <AES_CFB_Decrypt_Append+0x2a>
 8006b34:	42b5      	cmp	r5, r6
 8006b36:	db03      	blt.n	8006b40 <AES_CFB_Decrypt_Append+0x86>
 8006b38:	f8c8 6000 	str.w	r6, [r8]
 8006b3c:	2000      	movs	r0, #0
 8006b3e:	e04b      	b.n	8006bd8 <AES_CFB_Decrypt_Append+0x11e>
 8006b40:	7923      	ldrb	r3, [r4, #4]
 8006b42:	f104 0014 	add.w	r0, r4, #20
 8006b46:	f043 0304 	orr.w	r3, r3, #4
 8006b4a:	7123      	strb	r3, [r4, #4]
 8006b4c:	4601      	mov	r1, r0
 8006b4e:	f104 0228 	add.w	r2, r4, #40	; 0x28
 8006b52:	6a63      	ldr	r3, [r4, #36]	; 0x24
 8006b54:	f7fc ff32 	bl	80039bc <AES_general_SW_enc>
 8006b58:	1b72      	subs	r2, r6, r5
 8006b5a:	f04f 0c04 	mov.w	ip, #4
 8006b5e:	fb92 fcfc 	sdiv	ip, r2, ip
 8006b62:	4623      	mov	r3, r4
 8006b64:	2000      	movs	r0, #0
 8006b66:	4560      	cmp	r0, ip
 8006b68:	f103 0304 	add.w	r3, r3, #4
 8006b6c:	da10      	bge.n	8006b90 <AES_CFB_Decrypt_Append+0xd6>
 8006b6e:	1979      	adds	r1, r7, r5
 8006b70:	f851 1020 	ldr.w	r1, [r1, r0, lsl #2]
 8006b74:	fa91 fa81 	rev.w	sl, r1
 8006b78:	6919      	ldr	r1, [r3, #16]
 8006b7a:	ea8a 0101 	eor.w	r1, sl, r1
 8006b7e:	6119      	str	r1, [r3, #16]
 8006b80:	fa91 fa81 	rev.w	sl, r1
 8006b84:	eb09 0105 	add.w	r1, r9, r5
 8006b88:	f841 a020 	str.w	sl, [r1, r0, lsl #2]
 8006b8c:	3001      	adds	r0, #1
 8006b8e:	e7ea      	b.n	8006b66 <AES_CFB_Decrypt_Append+0xac>
 8006b90:	ea2c 73ec 	bic.w	r3, ip, ip, asr #31
 8006b94:	eba2 0283 	sub.w	r2, r2, r3, lsl #2
 8006b98:	eb05 0583 	add.w	r5, r5, r3, lsl #2
 8006b9c:	2000      	movs	r0, #0
 8006b9e:	4290      	cmp	r0, r2
 8006ba0:	daca      	bge.n	8006b38 <AES_CFB_Decrypt_Append+0x7e>
 8006ba2:	eb04 0a83 	add.w	sl, r4, r3, lsl #2
 8006ba6:	ea4f 0cc0 	mov.w	ip, r0, lsl #3
 8006baa:	f8da a014 	ldr.w	sl, [sl, #20]
 8006bae:	f1cc 0c18 	rsb	ip, ip, #24
 8006bb2:	fa2a fc0c 	lsr.w	ip, sl, ip
 8006bb6:	eb07 0a05 	add.w	sl, r7, r5
 8006bba:	eb09 0105 	add.w	r1, r9, r5
 8006bbe:	f81a a000 	ldrb.w	sl, [sl, r0]
 8006bc2:	ea8c 0c0a 	eor.w	ip, ip, sl
 8006bc6:	f801 c000 	strb.w	ip, [r1, r0]
 8006bca:	3001      	adds	r0, #1
 8006bcc:	e7e7      	b.n	8006b9e <AES_CFB_Decrypt_Append+0xe4>
 8006bce:	f44f 6042 	mov.w	r0, #3104	; 0xc20
 8006bd2:	e001      	b.n	8006bd8 <AES_CFB_Decrypt_Append+0x11e>
 8006bd4:	f640 401e 	movw	r0, #3102	; 0xc1e
 8006bd8:	b004      	add	sp, #16
 8006bda:	e8bd 87f0 	ldmia.w	sp!, {r4, r5, r6, r7, r8, r9, sl, pc}

08006bde <AES_CFB_Decrypt_Finish>:
 8006bde:	b138      	cbz	r0, 8006bf0 <AES_CFB_Decrypt_Finish+0x12>
 8006be0:	b132      	cbz	r2, 8006bf0 <AES_CFB_Decrypt_Finish+0x12>
 8006be2:	7903      	ldrb	r3, [r0, #4]
 8006be4:	f043 0302 	orr.w	r3, r3, #2
 8006be8:	7103      	strb	r3, [r0, #4]
 8006bea:	2000      	movs	r0, #0
 8006bec:	6010      	str	r0, [r2, #0]
 8006bee:	4770      	bx	lr
 8006bf0:	f44f 6042 	mov.w	r0, #3104	; 0xc20
 8006bf4:	4770      	bx	lr

08006bf6 <DES_ECB_Encrypt_Init>:
 8006bf6:	2302      	movs	r3, #2
 8006bf8:	f7fc bdc4 	b.w	8003784 <DESstdInit>

08006bfc <DES_ECB_Encrypt_Append>:
 8006bfc:	e92d 47f3 	stmdb	sp!, {r0, r1, r4, r5, r6, r7, r8, r9, sl, lr}
 8006c00:	f8dd a028 	ldr.w	sl, [sp, #40]	; 0x28
 8006c04:	460f      	mov	r7, r1
 8006c06:	4616      	mov	r6, r2
 8006c08:	4698      	mov	r8, r3
 8006c0a:	4681      	mov	r9, r0
 8006c0c:	b360      	cbz	r0, 8006c68 <DES_ECB_Encrypt_Append+0x6c>
 8006c0e:	b359      	cbz	r1, 8006c68 <DES_ECB_Encrypt_Append+0x6c>
 8006c10:	b353      	cbz	r3, 8006c68 <DES_ECB_Encrypt_Append+0x6c>
 8006c12:	f1ba 0f00 	cmp.w	sl, #0
 8006c16:	d027      	beq.n	8006c68 <DES_ECB_Encrypt_Append+0x6c>
 8006c18:	f012 0407 	ands.w	r4, r2, #7
 8006c1c:	d127      	bne.n	8006c6e <DES_ECB_Encrypt_Append+0x72>
 8006c1e:	2a07      	cmp	r2, #7
 8006c20:	dd25      	ble.n	8006c6e <DES_ECB_Encrypt_Append+0x72>
 8006c22:	7903      	ldrb	r3, [r0, #4]
 8006c24:	079b      	lsls	r3, r3, #30
 8006c26:	d425      	bmi.n	8006c74 <DES_ECB_Encrypt_Append+0x78>
 8006c28:	4625      	mov	r5, r4
 8006c2a:	597b      	ldr	r3, [r7, r5]
 8006c2c:	ba1b      	rev	r3, r3
 8006c2e:	9300      	str	r3, [sp, #0]
 8006c30:	197b      	adds	r3, r7, r5
 8006c32:	4668      	mov	r0, sp
 8006c34:	685b      	ldr	r3, [r3, #4]
 8006c36:	f109 011c 	add.w	r1, r9, #28
 8006c3a:	ba1b      	rev	r3, r3
 8006c3c:	9301      	str	r3, [sp, #4]
 8006c3e:	f7fb f8d5 	bl	8001dec <desfunc>
 8006c42:	9b00      	ldr	r3, [sp, #0]
 8006c44:	ba1b      	rev	r3, r3
 8006c46:	f848 3005 	str.w	r3, [r8, r5]
 8006c4a:	9b01      	ldr	r3, [sp, #4]
 8006c4c:	eb08 0205 	add.w	r2, r8, r5
 8006c50:	3508      	adds	r5, #8
 8006c52:	ba1b      	rev	r3, r3
 8006c54:	42b5      	cmp	r5, r6
 8006c56:	6053      	str	r3, [r2, #4]
 8006c58:	dbe7      	blt.n	8006c2a <DES_ECB_Encrypt_Append+0x2e>
 8006c5a:	3e01      	subs	r6, #1
 8006c5c:	f026 0607 	bic.w	r6, r6, #7
 8006c60:	3608      	adds	r6, #8
 8006c62:	f8ca 6000 	str.w	r6, [sl]
 8006c66:	e007      	b.n	8006c78 <DES_ECB_Encrypt_Append+0x7c>
 8006c68:	f640 44e8 	movw	r4, #3304	; 0xce8
 8006c6c:	e004      	b.n	8006c78 <DES_ECB_Encrypt_Append+0x7c>
 8006c6e:	f640 44e5 	movw	r4, #3301	; 0xce5
 8006c72:	e001      	b.n	8006c78 <DES_ECB_Encrypt_Append+0x7c>
 8006c74:	f640 44e6 	movw	r4, #3302	; 0xce6
 8006c78:	4620      	mov	r0, r4
 8006c7a:	b002      	add	sp, #8
 8006c7c:	e8bd 87f0 	ldmia.w	sp!, {r4, r5, r6, r7, r8, r9, sl, pc}

08006c80 <DES_ECB_Encrypt_Finish>:
 8006c80:	b138      	cbz	r0, 8006c92 <DES_ECB_Encrypt_Finish+0x12>
 8006c82:	b132      	cbz	r2, 8006c92 <DES_ECB_Encrypt_Finish+0x12>
 8006c84:	7903      	ldrb	r3, [r0, #4]
 8006c86:	f043 0302 	orr.w	r3, r3, #2
 8006c8a:	7103      	strb	r3, [r0, #4]
 8006c8c:	2000      	movs	r0, #0
 8006c8e:	6010      	str	r0, [r2, #0]
 8006c90:	4770      	bx	lr
 8006c92:	f640 40e8 	movw	r0, #3304	; 0xce8
 8006c96:	4770      	bx	lr

08006c98 <DES_ECB_Decrypt_Init>:
 8006c98:	2303      	movs	r3, #3
 8006c9a:	f7fc bd73 	b.w	8003784 <DESstdInit>

08006c9e <DES_ECB_Decrypt_Append>:
 8006c9e:	f7ff bfad 	b.w	8006bfc <DES_ECB_Encrypt_Append>

08006ca2 <DES_ECB_Decrypt_Finish>:
 8006ca2:	b138      	cbz	r0, 8006cb4 <DES_ECB_Decrypt_Finish+0x12>
 8006ca4:	b132      	cbz	r2, 8006cb4 <DES_ECB_Decrypt_Finish+0x12>
 8006ca6:	7903      	ldrb	r3, [r0, #4]
 8006ca8:	f043 0302 	orr.w	r3, r3, #2
 8006cac:	7103      	strb	r3, [r0, #4]
 8006cae:	2000      	movs	r0, #0
 8006cb0:	6010      	str	r0, [r2, #0]
 8006cb2:	4770      	bx	lr
 8006cb4:	f640 40e8 	movw	r0, #3304	; 0xce8
 8006cb8:	4770      	bx	lr

08006cba <DES_CBC_Encrypt_Init>:
 8006cba:	2304      	movs	r3, #4
 8006cbc:	f7fc bd62 	b.w	8003784 <DESstdInit>

08006cc0 <DES_CBC_Encrypt_Append>:
 8006cc0:	e92d 47f0 	stmdb	sp!, {r4, r5, r6, r7, r8, r9, sl, lr}
 8006cc4:	f8dd a020 	ldr.w	sl, [sp, #32]
 8006cc8:	4688      	mov	r8, r1
 8006cca:	4617      	mov	r7, r2
 8006ccc:	4699      	mov	r9, r3
 8006cce:	4604      	mov	r4, r0
 8006cd0:	b378      	cbz	r0, 8006d32 <DES_CBC_Encrypt_Append+0x72>
 8006cd2:	b371      	cbz	r1, 8006d32 <DES_CBC_Encrypt_Append+0x72>
 8006cd4:	b36b      	cbz	r3, 8006d32 <DES_CBC_Encrypt_Append+0x72>
 8006cd6:	f1ba 0f00 	cmp.w	sl, #0
 8006cda:	d02a      	beq.n	8006d32 <DES_CBC_Encrypt_Append+0x72>
 8006cdc:	f012 0507 	ands.w	r5, r2, #7
 8006ce0:	d12a      	bne.n	8006d38 <DES_CBC_Encrypt_Append+0x78>
 8006ce2:	2a07      	cmp	r2, #7
 8006ce4:	dd28      	ble.n	8006d38 <DES_CBC_Encrypt_Append+0x78>
 8006ce6:	7903      	ldrb	r3, [r0, #4]
 8006ce8:	079b      	lsls	r3, r3, #30
 8006cea:	d428      	bmi.n	8006d3e <DES_CBC_Encrypt_Append+0x7e>
 8006cec:	462e      	mov	r6, r5
 8006cee:	f858 3006 	ldr.w	r3, [r8, r6]
 8006cf2:	ba1a      	rev	r2, r3
 8006cf4:	6963      	ldr	r3, [r4, #20]
 8006cf6:	4053      	eors	r3, r2
 8006cf8:	6163      	str	r3, [r4, #20]
 8006cfa:	eb08 0306 	add.w	r3, r8, r6
 8006cfe:	f104 0014 	add.w	r0, r4, #20
 8006d02:	685a      	ldr	r2, [r3, #4]
 8006d04:	69a3      	ldr	r3, [r4, #24]
 8006d06:	ba12      	rev	r2, r2
 8006d08:	4053      	eors	r3, r2
 8006d0a:	61a3      	str	r3, [r4, #24]
 8006d0c:	f104 011c 	add.w	r1, r4, #28
 8006d10:	f7fb f86c 	bl	8001dec <desfunc>
 8006d14:	6963      	ldr	r3, [r4, #20]
 8006d16:	ba1b      	rev	r3, r3
 8006d18:	f849 3006 	str.w	r3, [r9, r6]
 8006d1c:	69a3      	ldr	r3, [r4, #24]
 8006d1e:	eb09 0206 	add.w	r2, r9, r6
 8006d22:	3608      	adds	r6, #8
 8006d24:	ba1b      	rev	r3, r3
 8006d26:	42be      	cmp	r6, r7
 8006d28:	6053      	str	r3, [r2, #4]
 8006d2a:	dbe0      	blt.n	8006cee <DES_CBC_Encrypt_Append+0x2e>
 8006d2c:	f8ca 7000 	str.w	r7, [sl]
 8006d30:	e007      	b.n	8006d42 <DES_CBC_Encrypt_Append+0x82>
 8006d32:	f640 45e8 	movw	r5, #3304	; 0xce8
 8006d36:	e004      	b.n	8006d42 <DES_CBC_Encrypt_Append+0x82>
 8006d38:	f640 45e5 	movw	r5, #3301	; 0xce5
 8006d3c:	e001      	b.n	8006d42 <DES_CBC_Encrypt_Append+0x82>
 8006d3e:	f640 45e6 	movw	r5, #3302	; 0xce6
 8006d42:	4628      	mov	r0, r5
 8006d44:	e8bd 87f0 	ldmia.w	sp!, {r4, r5, r6, r7, r8, r9, sl, pc}

08006d48 <DES_CBC_Encrypt_Finish>:
 8006d48:	b138      	cbz	r0, 8006d5a <DES_CBC_Encrypt_Finish+0x12>
 8006d4a:	b132      	cbz	r2, 8006d5a <DES_CBC_Encrypt_Finish+0x12>
 8006d4c:	7903      	ldrb	r3, [r0, #4]
 8006d4e:	f043 0302 	orr.w	r3, r3, #2
 8006d52:	7103      	strb	r3, [r0, #4]
 8006d54:	2000      	movs	r0, #0
 8006d56:	6010      	str	r0, [r2, #0]
 8006d58:	4770      	bx	lr
 8006d5a:	f640 40e8 	movw	r0, #3304	; 0xce8
 8006d5e:	4770      	bx	lr

08006d60 <DES_CBC_Decrypt_Init>:
 8006d60:	2305      	movs	r3, #5
 8006d62:	f7fc bd0f 	b.w	8003784 <DESstdInit>

08006d66 <DES_CBC_Decrypt_Append>:
 8006d66:	e92d 4ff7 	stmdb	sp!, {r0, r1, r2, r4, r5, r6, r7, r8, r9, sl, fp, lr}
 8006d6a:	4688      	mov	r8, r1
 8006d6c:	4617      	mov	r7, r2
 8006d6e:	4699      	mov	r9, r3
 8006d70:	4606      	mov	r6, r0
 8006d72:	2800      	cmp	r0, #0
 8006d74:	d037      	beq.n	8006de6 <DES_CBC_Decrypt_Append+0x80>
 8006d76:	2900      	cmp	r1, #0
 8006d78:	d035      	beq.n	8006de6 <DES_CBC_Decrypt_Append+0x80>
 8006d7a:	2b00      	cmp	r3, #0
 8006d7c:	d033      	beq.n	8006de6 <DES_CBC_Decrypt_Append+0x80>
 8006d7e:	9b0c      	ldr	r3, [sp, #48]	; 0x30
 8006d80:	b38b      	cbz	r3, 8006de6 <DES_CBC_Decrypt_Append+0x80>
 8006d82:	f012 0407 	ands.w	r4, r2, #7
 8006d86:	d131      	bne.n	8006dec <DES_CBC_Decrypt_Append+0x86>
 8006d88:	2a07      	cmp	r2, #7
 8006d8a:	dd2f      	ble.n	8006dec <DES_CBC_Decrypt_Append+0x86>
 8006d8c:	7903      	ldrb	r3, [r0, #4]
 8006d8e:	079b      	lsls	r3, r3, #30
 8006d90:	d42f      	bmi.n	8006df2 <DES_CBC_Decrypt_Append+0x8c>
 8006d92:	4625      	mov	r5, r4
 8006d94:	eb08 0205 	add.w	r2, r8, r5
 8006d98:	f858 3005 	ldr.w	r3, [r8, r5]
 8006d9c:	6852      	ldr	r2, [r2, #4]
 8006d9e:	fa93 fa83 	rev.w	sl, r3
 8006da2:	fa92 fb82 	rev.w	fp, r2
 8006da6:	f106 011c 	add.w	r1, r6, #28
 8006daa:	4668      	mov	r0, sp
 8006dac:	f8cd a000 	str.w	sl, [sp]
 8006db0:	f8cd b004 	str.w	fp, [sp, #4]
 8006db4:	f7fb f81a 	bl	8001dec <desfunc>
 8006db8:	6971      	ldr	r1, [r6, #20]
 8006dba:	9a00      	ldr	r2, [sp, #0]
 8006dbc:	f8c6 a014 	str.w	sl, [r6, #20]
 8006dc0:	404a      	eors	r2, r1
 8006dc2:	ba12      	rev	r2, r2
 8006dc4:	f849 2005 	str.w	r2, [r9, r5]
 8006dc8:	9b01      	ldr	r3, [sp, #4]
 8006dca:	69b2      	ldr	r2, [r6, #24]
 8006dcc:	f8c6 b018 	str.w	fp, [r6, #24]
 8006dd0:	eb09 0105 	add.w	r1, r9, r5
 8006dd4:	4053      	eors	r3, r2
 8006dd6:	3508      	adds	r5, #8
 8006dd8:	ba1b      	rev	r3, r3
 8006dda:	42bd      	cmp	r5, r7
 8006ddc:	604b      	str	r3, [r1, #4]
 8006dde:	dbd9      	blt.n	8006d94 <DES_CBC_Decrypt_Append+0x2e>
 8006de0:	9b0c      	ldr	r3, [sp, #48]	; 0x30
 8006de2:	601f      	str	r7, [r3, #0]
 8006de4:	e007      	b.n	8006df6 <DES_CBC_Decrypt_Append+0x90>
 8006de6:	f640 44e8 	movw	r4, #3304	; 0xce8
 8006dea:	e004      	b.n	8006df6 <DES_CBC_Decrypt_Append+0x90>
 8006dec:	f640 44e5 	movw	r4, #3301	; 0xce5
 8006df0:	e001      	b.n	8006df6 <DES_CBC_Decrypt_Append+0x90>
 8006df2:	f640 44e6 	movw	r4, #3302	; 0xce6
 8006df6:	4620      	mov	r0, r4
 8006df8:	b003      	add	sp, #12
 8006dfa:	e8bd 8ff0 	ldmia.w	sp!, {r4, r5, r6, r7, r8, r9, sl, fp, pc}

08006dfe <DES_CBC_Decrypt_Finish>:
 8006dfe:	b138      	cbz	r0, 8006e10 <DES_CBC_Decrypt_Finish+0x12>
 8006e00:	b132      	cbz	r2, 8006e10 <DES_CBC_Decrypt_Finish+0x12>
 8006e02:	7903      	ldrb	r3, [r0, #4]
 8006e04:	f043 0302 	orr.w	r3, r3, #2
 8006e08:	7103      	strb	r3, [r0, #4]
 8006e0a:	2000      	movs	r0, #0
 8006e0c:	6010      	str	r0, [r2, #0]
 8006e0e:	4770      	bx	lr
 8006e10:	f640 40e8 	movw	r0, #3304	; 0xce8
 8006e14:	4770      	bx	lr

08006e16 <TDES_ECB_Encrypt_Init>:
 8006e16:	2302      	movs	r3, #2
 8006e18:	f7fc bcfb 	b.w	8003812 <TDESstdInit>

08006e1c <TDES_ECB_Encrypt_Append>:
 8006e1c:	e92d 47f3 	stmdb	sp!, {r0, r1, r4, r5, r6, r7, r8, r9, sl, lr}
 8006e20:	f8dd a028 	ldr.w	sl, [sp, #40]	; 0x28
 8006e24:	4688      	mov	r8, r1
 8006e26:	4616      	mov	r6, r2
 8006e28:	4699      	mov	r9, r3
 8006e2a:	4607      	mov	r7, r0
 8006e2c:	2800      	cmp	r0, #0
 8006e2e:	d03a      	beq.n	8006ea6 <TDES_ECB_Encrypt_Append+0x8a>
 8006e30:	2900      	cmp	r1, #0
 8006e32:	d038      	beq.n	8006ea6 <TDES_ECB_Encrypt_Append+0x8a>
 8006e34:	2b00      	cmp	r3, #0
 8006e36:	d036      	beq.n	8006ea6 <TDES_ECB_Encrypt_Append+0x8a>
 8006e38:	f1ba 0f00 	cmp.w	sl, #0
 8006e3c:	d033      	beq.n	8006ea6 <TDES_ECB_Encrypt_Append+0x8a>
 8006e3e:	f012 0407 	ands.w	r4, r2, #7
 8006e42:	d133      	bne.n	8006eac <TDES_ECB_Encrypt_Append+0x90>
 8006e44:	2a07      	cmp	r2, #7
 8006e46:	dd31      	ble.n	8006eac <TDES_ECB_Encrypt_Append+0x90>
 8006e48:	7903      	ldrb	r3, [r0, #4]
 8006e4a:	079b      	lsls	r3, r3, #30
 8006e4c:	d431      	bmi.n	8006eb2 <TDES_ECB_Encrypt_Append+0x96>
 8006e4e:	4625      	mov	r5, r4
 8006e50:	f858 3005 	ldr.w	r3, [r8, r5]
 8006e54:	ba1b      	rev	r3, r3
 8006e56:	9300      	str	r3, [sp, #0]
 8006e58:	eb08 0305 	add.w	r3, r8, r5
 8006e5c:	4668      	mov	r0, sp
 8006e5e:	685b      	ldr	r3, [r3, #4]
 8006e60:	f107 011c 	add.w	r1, r7, #28
 8006e64:	ba1b      	rev	r3, r3
 8006e66:	9301      	str	r3, [sp, #4]
 8006e68:	f7fa ffc0 	bl	8001dec <desfunc>
 8006e6c:	4668      	mov	r0, sp
 8006e6e:	f107 019c 	add.w	r1, r7, #156	; 0x9c
 8006e72:	f7fa ffbb 	bl	8001dec <desfunc>
 8006e76:	4668      	mov	r0, sp
 8006e78:	f507 718e 	add.w	r1, r7, #284	; 0x11c
 8006e7c:	f7fa ffb6 	bl	8001dec <desfunc>
 8006e80:	9b00      	ldr	r3, [sp, #0]
 8006e82:	ba1b      	rev	r3, r3
 8006e84:	f849 3005 	str.w	r3, [r9, r5]
 8006e88:	9b01      	ldr	r3, [sp, #4]
 8006e8a:	eb09 0205 	add.w	r2, r9, r5
 8006e8e:	3508      	adds	r5, #8
 8006e90:	ba1b      	rev	r3, r3
 8006e92:	42b5      	cmp	r5, r6
 8006e94:	6053      	str	r3, [r2, #4]
 8006e96:	dbdb      	blt.n	8006e50 <TDES_ECB_Encrypt_Append+0x34>
 8006e98:	3e01      	subs	r6, #1
 8006e9a:	f026 0607 	bic.w	r6, r6, #7
 8006e9e:	3608      	adds	r6, #8
 8006ea0:	f8ca 6000 	str.w	r6, [sl]
 8006ea4:	e007      	b.n	8006eb6 <TDES_ECB_Encrypt_Append+0x9a>
 8006ea6:	f640 44f2 	movw	r4, #3314	; 0xcf2
 8006eaa:	e004      	b.n	8006eb6 <TDES_ECB_Encrypt_Append+0x9a>
 8006eac:	f640 44ef 	movw	r4, #3311	; 0xcef
 8006eb0:	e001      	b.n	8006eb6 <TDES_ECB_Encrypt_Append+0x9a>
 8006eb2:	f44f 644f 	mov.w	r4, #3312	; 0xcf0
 8006eb6:	4620      	mov	r0, r4
 8006eb8:	b002      	add	sp, #8
 8006eba:	e8bd 87f0 	ldmia.w	sp!, {r4, r5, r6, r7, r8, r9, sl, pc}

08006ebe <TDES_ECB_Encrypt_Finish>:
 8006ebe:	b138      	cbz	r0, 8006ed0 <TDES_ECB_Encrypt_Finish+0x12>
 8006ec0:	b132      	cbz	r2, 8006ed0 <TDES_ECB_Encrypt_Finish+0x12>
 8006ec2:	7903      	ldrb	r3, [r0, #4]
 8006ec4:	f043 0302 	orr.w	r3, r3, #2
 8006ec8:	7103      	strb	r3, [r0, #4]
 8006eca:	2000      	movs	r0, #0
 8006ecc:	6010      	str	r0, [r2, #0]
 8006ece:	4770      	bx	lr
 8006ed0:	f640 40f2 	movw	r0, #3314	; 0xcf2
 8006ed4:	4770      	bx	lr

08006ed6 <TDES_ECB_Decrypt_Init>:
 8006ed6:	2303      	movs	r3, #3
 8006ed8:	f7fc bc9b 	b.w	8003812 <TDESstdInit>

08006edc <TDES_ECB_Decrypt_Append>:
 8006edc:	f7ff bf9e 	b.w	8006e1c <TDES_ECB_Encrypt_Append>

08006ee0 <TDES_ECB_Decrypt_Finish>:
 8006ee0:	b138      	cbz	r0, 8006ef2 <TDES_ECB_Decrypt_Finish+0x12>
 8006ee2:	b132      	cbz	r2, 8006ef2 <TDES_ECB_Decrypt_Finish+0x12>
 8006ee4:	7903      	ldrb	r3, [r0, #4]
 8006ee6:	f043 0302 	orr.w	r3, r3, #2
 8006eea:	7103      	strb	r3, [r0, #4]
 8006eec:	2000      	movs	r0, #0
 8006eee:	6010      	str	r0, [r2, #0]
 8006ef0:	4770      	bx	lr
 8006ef2:	f640 40f2 	movw	r0, #3314	; 0xcf2
 8006ef6:	4770      	bx	lr

08006ef8 <TDES_CBC_Encrypt_Init>:
 8006ef8:	2304      	movs	r3, #4
 8006efa:	f7fc bc8a 	b.w	8003812 <TDESstdInit>

08006efe <TDES_CBC_Encrypt_Append>:
 8006efe:	e92d 4ff8 	stmdb	sp!, {r3, r4, r5, r6, r7, r8, r9, sl, fp, lr}
 8006f02:	f8dd b028 	ldr.w	fp, [sp, #40]	; 0x28
 8006f06:	4688      	mov	r8, r1
 8006f08:	4617      	mov	r7, r2
 8006f0a:	4699      	mov	r9, r3
 8006f0c:	4604      	mov	r4, r0
 8006f0e:	2800      	cmp	r0, #0
 8006f10:	d03c      	beq.n	8006f8c <TDES_CBC_Encrypt_Append+0x8e>
 8006f12:	2900      	cmp	r1, #0
 8006f14:	d03a      	beq.n	8006f8c <TDES_CBC_Encrypt_Append+0x8e>
 8006f16:	2b00      	cmp	r3, #0
 8006f18:	d038      	beq.n	8006f8c <TDES_CBC_Encrypt_Append+0x8e>
 8006f1a:	f1bb 0f00 	cmp.w	fp, #0
 8006f1e:	d035      	beq.n	8006f8c <TDES_CBC_Encrypt_Append+0x8e>
 8006f20:	f012 0507 	ands.w	r5, r2, #7
 8006f24:	d135      	bne.n	8006f92 <TDES_CBC_Encrypt_Append+0x94>
 8006f26:	2a07      	cmp	r2, #7
 8006f28:	dd33      	ble.n	8006f92 <TDES_CBC_Encrypt_Append+0x94>
 8006f2a:	7903      	ldrb	r3, [r0, #4]
 8006f2c:	079b      	lsls	r3, r3, #30
 8006f2e:	d433      	bmi.n	8006f98 <TDES_CBC_Encrypt_Append+0x9a>
 8006f30:	462e      	mov	r6, r5
 8006f32:	f858 3006 	ldr.w	r3, [r8, r6]
 8006f36:	ba1a      	rev	r2, r3
 8006f38:	6963      	ldr	r3, [r4, #20]
 8006f3a:	4053      	eors	r3, r2
 8006f3c:	6163      	str	r3, [r4, #20]
 8006f3e:	eb08 0306 	add.w	r3, r8, r6
 8006f42:	f104 0a14 	add.w	sl, r4, #20
 8006f46:	685a      	ldr	r2, [r3, #4]
 8006f48:	69a3      	ldr	r3, [r4, #24]
 8006f4a:	ba12      	rev	r2, r2
 8006f4c:	4053      	eors	r3, r2
 8006f4e:	61a3      	str	r3, [r4, #24]
 8006f50:	4650      	mov	r0, sl
 8006f52:	f104 011c 	add.w	r1, r4, #28
 8006f56:	f7fa ff49 	bl	8001dec <desfunc>
 8006f5a:	4650      	mov	r0, sl
 8006f5c:	f104 019c 	add.w	r1, r4, #156	; 0x9c
 8006f60:	f7fa ff44 	bl	8001dec <desfunc>
 8006f64:	4650      	mov	r0, sl
 8006f66:	f504 718e 	add.w	r1, r4, #284	; 0x11c
 8006f6a:	f7fa ff3f 	bl	8001dec <desfunc>
 8006f6e:	6963      	ldr	r3, [r4, #20]
 8006f70:	ba1b      	rev	r3, r3
 8006f72:	f849 3006 	str.w	r3, [r9, r6]
 8006f76:	69a3      	ldr	r3, [r4, #24]
 8006f78:	eb09 0206 	add.w	r2, r9, r6
 8006f7c:	3608      	adds	r6, #8
 8006f7e:	ba1b      	rev	r3, r3
 8006f80:	42be      	cmp	r6, r7
 8006f82:	6053      	str	r3, [r2, #4]
 8006f84:	dbd5      	blt.n	8006f32 <TDES_CBC_Encrypt_Append+0x34>
 8006f86:	f8cb 7000 	str.w	r7, [fp]
 8006f8a:	e007      	b.n	8006f9c <TDES_CBC_Encrypt_Append+0x9e>
 8006f8c:	f640 45f2 	movw	r5, #3314	; 0xcf2
 8006f90:	e004      	b.n	8006f9c <TDES_CBC_Encrypt_Append+0x9e>
 8006f92:	f640 45ef 	movw	r5, #3311	; 0xcef
 8006f96:	e001      	b.n	8006f9c <TDES_CBC_Encrypt_Append+0x9e>
 8006f98:	f44f 654f 	mov.w	r5, #3312	; 0xcf0
 8006f9c:	4628      	mov	r0, r5
 8006f9e:	e8bd 8ff8 	ldmia.w	sp!, {r3, r4, r5, r6, r7, r8, r9, sl, fp, pc}

08006fa2 <TDES_CBC_Encrypt_Finish>:
 8006fa2:	b138      	cbz	r0, 8006fb4 <TDES_CBC_Encrypt_Finish+0x12>
 8006fa4:	b132      	cbz	r2, 8006fb4 <TDES_CBC_Encrypt_Finish+0x12>
 8006fa6:	7903      	ldrb	r3, [r0, #4]
 8006fa8:	f043 0302 	orr.w	r3, r3, #2
 8006fac:	7103      	strb	r3, [r0, #4]
 8006fae:	2000      	movs	r0, #0
 8006fb0:	6010      	str	r0, [r2, #0]
 8006fb2:	4770      	bx	lr
 8006fb4:	f640 40f2 	movw	r0, #3314	; 0xcf2
 8006fb8:	4770      	bx	lr

08006fba <TDES_CBC_Decrypt_Init>:
 8006fba:	2305      	movs	r3, #5
 8006fbc:	f7fc bc29 	b.w	8003812 <TDESstdInit>

08006fc0 <TDES_CBC_Decrypt_Append>:
 8006fc0:	e92d 4ff7 	stmdb	sp!, {r0, r1, r2, r4, r5, r6, r7, r8, r9, sl, fp, lr}
 8006fc4:	4688      	mov	r8, r1
 8006fc6:	4617      	mov	r7, r2
 8006fc8:	4699      	mov	r9, r3
 8006fca:	4605      	mov	r5, r0
 8006fcc:	2800      	cmp	r0, #0
 8006fce:	d042      	beq.n	8007056 <TDES_CBC_Decrypt_Append+0x96>
 8006fd0:	2900      	cmp	r1, #0
 8006fd2:	d040      	beq.n	8007056 <TDES_CBC_Decrypt_Append+0x96>
 8006fd4:	2b00      	cmp	r3, #0
 8006fd6:	d03e      	beq.n	8007056 <TDES_CBC_Decrypt_Append+0x96>
 8006fd8:	9b0c      	ldr	r3, [sp, #48]	; 0x30
 8006fda:	2b00      	cmp	r3, #0
 8006fdc:	d03b      	beq.n	8007056 <TDES_CBC_Decrypt_Append+0x96>
 8006fde:	f012 0407 	ands.w	r4, r2, #7
 8006fe2:	d13b      	bne.n	800705c <TDES_CBC_Decrypt_Append+0x9c>
 8006fe4:	2a07      	cmp	r2, #7
 8006fe6:	dd39      	ble.n	800705c <TDES_CBC_Decrypt_Append+0x9c>
 8006fe8:	7903      	ldrb	r3, [r0, #4]
 8006fea:	079b      	lsls	r3, r3, #30
 8006fec:	d439      	bmi.n	8007062 <TDES_CBC_Decrypt_Append+0xa2>
 8006fee:	4626      	mov	r6, r4
 8006ff0:	eb08 0206 	add.w	r2, r8, r6
 8006ff4:	f858 3006 	ldr.w	r3, [r8, r6]
 8006ff8:	6852      	ldr	r2, [r2, #4]
 8006ffa:	fa93 fa83 	rev.w	sl, r3
 8006ffe:	fa92 fb82 	rev.w	fp, r2
 8007002:	4668      	mov	r0, sp
 8007004:	f105 011c 	add.w	r1, r5, #28
 8007008:	f8cd a000 	str.w	sl, [sp]
 800700c:	f8cd b004 	str.w	fp, [sp, #4]
 8007010:	f7fa feec 	bl	8001dec <desfunc>
 8007014:	4668      	mov	r0, sp
 8007016:	f105 019c 	add.w	r1, r5, #156	; 0x9c
 800701a:	f7fa fee7 	bl	8001dec <desfunc>
 800701e:	f505 718e 	add.w	r1, r5, #284	; 0x11c
 8007022:	4668      	mov	r0, sp
 8007024:	f7fa fee2 	bl	8001dec <desfunc>
 8007028:	6969      	ldr	r1, [r5, #20]
 800702a:	9a00      	ldr	r2, [sp, #0]
 800702c:	f8c5 a014 	str.w	sl, [r5, #20]
 8007030:	404a      	eors	r2, r1
 8007032:	ba12      	rev	r2, r2
 8007034:	f849 2006 	str.w	r2, [r9, r6]
 8007038:	9b01      	ldr	r3, [sp, #4]
 800703a:	69aa      	ldr	r2, [r5, #24]
 800703c:	f8c5 b018 	str.w	fp, [r5, #24]
 8007040:	eb09 0106 	add.w	r1, r9, r6
 8007044:	4053      	eors	r3, r2
 8007046:	3608      	adds	r6, #8
 8007048:	ba1b      	rev	r3, r3
 800704a:	42be      	cmp	r6, r7
 800704c:	604b      	str	r3, [r1, #4]
 800704e:	dbcf      	blt.n	8006ff0 <TDES_CBC_Decrypt_Append+0x30>
 8007050:	9b0c      	ldr	r3, [sp, #48]	; 0x30
 8007052:	601f      	str	r7, [r3, #0]
 8007054:	e007      	b.n	8007066 <TDES_CBC_Decrypt_Append+0xa6>
 8007056:	f640 44f2 	movw	r4, #3314	; 0xcf2
 800705a:	e004      	b.n	8007066 <TDES_CBC_Decrypt_Append+0xa6>
 800705c:	f640 44ef 	movw	r4, #3311	; 0xcef
 8007060:	e001      	b.n	8007066 <TDES_CBC_Decrypt_Append+0xa6>
 8007062:	f44f 644f 	mov.w	r4, #3312	; 0xcf0
 8007066:	4620      	mov	r0, r4
 8007068:	b003      	add	sp, #12
 800706a:	e8bd 8ff0 	ldmia.w	sp!, {r4, r5, r6, r7, r8, r9, sl, fp, pc}

0800706e <TDES_CBC_Decrypt_Finish>:
 800706e:	b138      	cbz	r0, 8007080 <TDES_CBC_Decrypt_Finish+0x12>
 8007070:	b132      	cbz	r2, 8007080 <TDES_CBC_Decrypt_Finish+0x12>
 8007072:	7903      	ldrb	r3, [r0, #4]
 8007074:	f043 0302 	orr.w	r3, r3, #2
 8007078:	7103      	strb	r3, [r0, #4]
 800707a:	2000      	movs	r0, #0
 800707c:	6010      	str	r0, [r2, #0]
 800707e:	4770      	bx	lr
 8007080:	f640 40f2 	movw	r0, #3314	; 0xcf2
 8007084:	4770      	bx	lr

08007086 <ARC4_Encrypt_Init>:
 8007086:	b570      	push	{r4, r5, r6, lr}
 8007088:	b348      	cbz	r0, 80070de <ARC4_Encrypt_Init+0x58>
 800708a:	68c3      	ldr	r3, [r0, #12]
 800708c:	2b00      	cmp	r3, #0
 800708e:	dd29      	ble.n	80070e4 <ARC4_Encrypt_Init+0x5e>
 8007090:	7903      	ldrb	r3, [r0, #4]
 8007092:	6081      	str	r1, [r0, #8]
 8007094:	f023 0302 	bic.w	r3, r3, #2
 8007098:	7103      	strb	r3, [r0, #4]
 800709a:	2300      	movs	r3, #0
 800709c:	7403      	strb	r3, [r0, #16]
 800709e:	7443      	strb	r3, [r0, #17]
 80070a0:	f100 0112 	add.w	r1, r0, #18
 80070a4:	f44f 7380 	mov.w	r3, #256	; 0x100
 80070a8:	f113 33ff 	adds.w	r3, r3, #4294967295
 80070ac:	d301      	bcc.n	80070b2 <ARC4_Encrypt_Init+0x2c>
 80070ae:	54cb      	strb	r3, [r1, r3]
 80070b0:	e7fa      	b.n	80070a8 <ARC4_Encrypt_Init+0x22>
 80070b2:	2300      	movs	r3, #0
 80070b4:	461a      	mov	r2, r3
 80070b6:	461c      	mov	r4, r3
 80070b8:	6886      	ldr	r6, [r0, #8]
 80070ba:	5ccd      	ldrb	r5, [r1, r3]
 80070bc:	5cb6      	ldrb	r6, [r6, r2]
 80070be:	442e      	add	r6, r5
 80070c0:	4434      	add	r4, r6
 80070c2:	b2e4      	uxtb	r4, r4
 80070c4:	3201      	adds	r2, #1
 80070c6:	5d0e      	ldrb	r6, [r1, r4]
 80070c8:	54ce      	strb	r6, [r1, r3]
 80070ca:	550d      	strb	r5, [r1, r4]
 80070cc:	68c5      	ldr	r5, [r0, #12]
 80070ce:	3301      	adds	r3, #1
 80070d0:	42aa      	cmp	r2, r5
 80070d2:	bfa8      	it	ge
 80070d4:	2200      	movge	r2, #0
 80070d6:	f5b3 7f80 	cmp.w	r3, #256	; 0x100
 80070da:	d1ed      	bne.n	80070b8 <ARC4_Encrypt_Init+0x32>
 80070dc:	e005      	b.n	80070ea <ARC4_Encrypt_Init+0x64>
 80070de:	f640 4084 	movw	r0, #3204	; 0xc84
 80070e2:	bd70      	pop	{r4, r5, r6, pc}
 80070e4:	f640 4083 	movw	r0, #3203	; 0xc83
 80070e8:	bd70      	pop	{r4, r5, r6, pc}
 80070ea:	2000      	movs	r0, #0
 80070ec:	bd70      	pop	{r4, r5, r6, pc}
	...

080070f0 <ARC4_Encrypt_Append>:
 80070f0:	e92d 47f3 	stmdb	sp!, {r0, r1, r4, r5, r6, r7, r8, r9, sl, lr}
 80070f4:	2400      	movs	r4, #0
 80070f6:	f8dd c028 	ldr.w	ip, [sp, #40]	; 0x28
 80070fa:	9401      	str	r4, [sp, #4]
 80070fc:	2800      	cmp	r0, #0
 80070fe:	f000 80a4 	beq.w	800724a <ARC4_Encrypt_Append+0x15a>
 8007102:	2900      	cmp	r1, #0
 8007104:	f000 80a1 	beq.w	800724a <ARC4_Encrypt_Append+0x15a>
 8007108:	2b00      	cmp	r3, #0
 800710a:	f000 809e 	beq.w	800724a <ARC4_Encrypt_Append+0x15a>
 800710e:	f1bc 0f00 	cmp.w	ip, #0
 8007112:	f000 809a 	beq.w	800724a <ARC4_Encrypt_Append+0x15a>
 8007116:	7904      	ldrb	r4, [r0, #4]
 8007118:	f004 0402 	and.w	r4, r4, #2
 800711c:	f004 08ff 	and.w	r8, r4, #255	; 0xff
 8007120:	2c00      	cmp	r4, #0
 8007122:	f040 8095 	bne.w	8007250 <ARC4_Encrypt_Append+0x160>
 8007126:	4f4d      	ldr	r7, [pc, #308]	; (800725c <ARC4_Encrypt_Append+0x16c>)
 8007128:	7c06      	ldrb	r6, [r0, #16]
 800712a:	7c45      	ldrb	r5, [r0, #17]
 800712c:	f04f 0901 	mov.w	r9, #1
 8007130:	f8c7 9000 	str.w	r9, [r7]
 8007134:	683f      	ldr	r7, [r7, #0]
 8007136:	9701      	str	r7, [sp, #4]
 8007138:	4f49      	ldr	r7, [pc, #292]	; (8007260 <ARC4_Encrypt_Append+0x170>)
 800713a:	f8d7 9000 	ldr.w	r9, [r7]
 800713e:	f8cd 9004 	str.w	r9, [sp, #4]
 8007142:	f8dd 9004 	ldr.w	r9, [sp, #4]
 8007146:	f1b9 3fff 	cmp.w	r9, #4294967295
 800714a:	f100 0412 	add.w	r4, r0, #18
 800714e:	d001      	beq.n	8007154 <ARC4_Encrypt_Append+0x64>
 8007150:	4647      	mov	r7, r8
 8007152:	e04f      	b.n	80071f4 <ARC4_Encrypt_Append+0x104>
 8007154:	f8dd 9004 	ldr.w	r9, [sp, #4]
 8007158:	f8c7 9000 	str.w	r9, [r7]
 800715c:	683f      	ldr	r7, [r7, #0]
 800715e:	9701      	str	r7, [sp, #4]
 8007160:	9f01      	ldr	r7, [sp, #4]
 8007162:	b10f      	cbz	r7, 8007168 <ARC4_Encrypt_Append+0x78>
 8007164:	4647      	mov	r7, r8
 8007166:	e022      	b.n	80071ae <ARC4_Encrypt_Append+0xbe>
 8007168:	4297      	cmp	r7, r2
 800716a:	da1b      	bge.n	80071a4 <ARC4_Encrypt_Append+0xb4>
 800716c:	f106 0a01 	add.w	sl, r6, #1
 8007170:	44ba      	add	sl, r7
 8007172:	fa5f fa8a 	uxtb.w	sl, sl
 8007176:	f814 800a 	ldrb.w	r8, [r4, sl]
 800717a:	4445      	add	r5, r8
 800717c:	b2ed      	uxtb	r5, r5
 800717e:	f814 9005 	ldrb.w	r9, [r4, r5]
 8007182:	f804 900a 	strb.w	r9, [r4, sl]
 8007186:	f804 8005 	strb.w	r8, [r4, r5]
 800718a:	44c8      	add	r8, r9
 800718c:	fa5f f888 	uxtb.w	r8, r8
 8007190:	f814 9008 	ldrb.w	r9, [r4, r8]
 8007194:	f811 8007 	ldrb.w	r8, [r1, r7]
 8007198:	ea89 0808 	eor.w	r8, r9, r8
 800719c:	f803 8007 	strb.w	r8, [r3, r7]
 80071a0:	3701      	adds	r7, #1
 80071a2:	e7e1      	b.n	8007168 <ARC4_Encrypt_Append+0x78>
 80071a4:	ea22 72e2 	bic.w	r2, r2, r2, asr #31
 80071a8:	4416      	add	r6, r2
 80071aa:	b2f6      	uxtb	r6, r6
 80071ac:	e047      	b.n	800723e <ARC4_Encrypt_Append+0x14e>
 80071ae:	4297      	cmp	r7, r2
 80071b0:	da43      	bge.n	800723a <ARC4_Encrypt_Append+0x14a>
 80071b2:	1c6e      	adds	r6, r5, #1
 80071b4:	f046 060f 	orr.w	r6, r6, #15
 80071b8:	5d65      	ldrb	r5, [r4, r5]
 80071ba:	b2f6      	uxtb	r6, r6
 80071bc:	4435      	add	r5, r6
 80071be:	f065 050f 	orn	r5, r5, #15
 80071c2:	b2ed      	uxtb	r5, r5
 80071c4:	f814 8006 	ldrb.w	r8, [r4, r6]
 80071c8:	f814 9005 	ldrb.w	r9, [r4, r5]
 80071cc:	f804 9006 	strb.w	r9, [r4, r6]
 80071d0:	f804 8005 	strb.w	r8, [r4, r5]
 80071d4:	ea4f 0848 	mov.w	r8, r8, lsl #1
 80071d8:	fa5f f888 	uxtb.w	r8, r8
 80071dc:	f814 9008 	ldrb.w	r9, [r4, r8]
 80071e0:	f811 8007 	ldrb.w	r8, [r1, r7]
 80071e4:	ea89 0808 	eor.w	r8, r9, r8
 80071e8:	f048 0855 	orr.w	r8, r8, #85	; 0x55
 80071ec:	f803 8007 	strb.w	r8, [r3, r7]
 80071f0:	3701      	adds	r7, #1
 80071f2:	e7dc      	b.n	80071ae <ARC4_Encrypt_Append+0xbe>
 80071f4:	4297      	cmp	r7, r2
 80071f6:	da20      	bge.n	800723a <ARC4_Encrypt_Append+0x14a>
 80071f8:	1c6e      	adds	r6, r5, #1
 80071fa:	f046 060f 	orr.w	r6, r6, #15
 80071fe:	5d65      	ldrb	r5, [r4, r5]
 8007200:	b2f6      	uxtb	r6, r6
 8007202:	4435      	add	r5, r6
 8007204:	f065 050f 	orn	r5, r5, #15
 8007208:	b2ed      	uxtb	r5, r5
 800720a:	f814 8006 	ldrb.w	r8, [r4, r6]
 800720e:	f814 9005 	ldrb.w	r9, [r4, r5]
 8007212:	f804 9006 	strb.w	r9, [r4, r6]
 8007216:	f804 8005 	strb.w	r8, [r4, r5]
 800721a:	ea4f 0848 	mov.w	r8, r8, lsl #1
 800721e:	fa5f f888 	uxtb.w	r8, r8
 8007222:	f814 9008 	ldrb.w	r9, [r4, r8]
 8007226:	f811 8007 	ldrb.w	r8, [r1, r7]
 800722a:	ea89 0808 	eor.w	r8, r9, r8
 800722e:	f048 0855 	orr.w	r8, r8, #85	; 0x55
 8007232:	f803 8007 	strb.w	r8, [r3, r7]
 8007236:	3701      	adds	r7, #1
 8007238:	e7dc      	b.n	80071f4 <ARC4_Encrypt_Append+0x104>
 800723a:	ea22 72e2 	bic.w	r2, r2, r2, asr #31
 800723e:	7406      	strb	r6, [r0, #16]
 8007240:	7445      	strb	r5, [r0, #17]
 8007242:	f8cc 2000 	str.w	r2, [ip]
 8007246:	2000      	movs	r0, #0
 8007248:	e004      	b.n	8007254 <ARC4_Encrypt_Append+0x164>
 800724a:	f640 4084 	movw	r0, #3204	; 0xc84
 800724e:	e001      	b.n	8007254 <ARC4_Encrypt_Append+0x164>
 8007250:	f640 4082 	movw	r0, #3202	; 0xc82
 8007254:	b002      	add	sp, #8
 8007256:	e8bd 87f0 	ldmia.w	sp!, {r4, r5, r6, r7, r8, r9, sl, pc}
 800725a:	bf00      	nop
 800725c:	40023008 	.word	0x40023008
 8007260:	40023000 	.word	0x40023000

08007264 <ARC4_Encrypt_Finish>:
 8007264:	b138      	cbz	r0, 8007276 <ARC4_Encrypt_Finish+0x12>
 8007266:	b132      	cbz	r2, 8007276 <ARC4_Encrypt_Finish+0x12>
 8007268:	7903      	ldrb	r3, [r0, #4]
 800726a:	f043 0302 	orr.w	r3, r3, #2
 800726e:	7103      	strb	r3, [r0, #4]
 8007270:	2000      	movs	r0, #0
 8007272:	6010      	str	r0, [r2, #0]
 8007274:	4770      	bx	lr
 8007276:	f44f 6042 	mov.w	r0, #3104	; 0xc20
 800727a:	4770      	bx	lr

0800727c <ARC4_Decrypt_Init>:
 800727c:	f7ff bf03 	b.w	8007086 <ARC4_Encrypt_Init>

08007280 <ARC4_Decrypt_Append>:
 8007280:	f7ff bf36 	b.w	80070f0 <ARC4_Encrypt_Append>

08007284 <ARC4_Decrypt_Finish>:
 8007284:	f7ff bfee 	b.w	8007264 <ARC4_Encrypt_Finish>

08007288 <crl_u_MD5_Init>:
 8007288:	2300      	movs	r3, #0
 800728a:	64c3      	str	r3, [r0, #76]	; 0x4c
 800728c:	6503      	str	r3, [r0, #80]	; 0x50
 800728e:	4b08      	ldr	r3, [pc, #32]	; (80072b0 <crl_u_MD5_Init+0x28>)
 8007290:	6543      	str	r3, [r0, #84]	; 0x54
 8007292:	f103 3388 	add.w	r3, r3, #2290649224	; 0x88888888
 8007296:	6583      	str	r3, [r0, #88]	; 0x58
 8007298:	f103 4329 	add.w	r3, r3, #2835349504	; 0xa9000000
 800729c:	f5a3 1396 	sub.w	r3, r3, #1228800	; 0x12c000
 80072a0:	f6a3 638b 	subw	r3, r3, #3723	; 0xe8b
 80072a4:	65c3      	str	r3, [r0, #92]	; 0x5c
 80072a6:	f1a3 3388 	sub.w	r3, r3, #2290649224	; 0x88888888
 80072aa:	6603      	str	r3, [r0, #96]	; 0x60
 80072ac:	4770      	bx	lr
 80072ae:	bf00      	nop
 80072b0:	67452301 	.word	0x67452301

080072b4 <MD5_Init>:
 80072b4:	b508      	push	{r3, lr}
 80072b6:	b138      	cbz	r0, 80072c8 <MD5_Init+0x14>
 80072b8:	7902      	ldrb	r2, [r0, #4]
 80072ba:	f022 0206 	bic.w	r2, r2, #6
 80072be:	7102      	strb	r2, [r0, #4]
 80072c0:	f7ff ffe2 	bl	8007288 <crl_u_MD5_Init>
 80072c4:	2000      	movs	r0, #0
 80072c6:	bd08      	pop	{r3, pc}
 80072c8:	f640 70a3 	movw	r0, #4003	; 0xfa3
 80072cc:	bd08      	pop	{r3, pc}

080072ce <crl_u_MD5_Update>:
 80072ce:	e92d 41f0 	stmdb	sp!, {r4, r5, r6, r7, r8, lr}
 80072d2:	4604      	mov	r4, r0
 80072d4:	4688      	mov	r8, r1
 80072d6:	6cc7      	ldr	r7, [r0, #76]	; 0x4c
 80072d8:	4615      	mov	r5, r2
 80072da:	2a00      	cmp	r2, #0
 80072dc:	d03a      	beq.n	8007354 <crl_u_MD5_Update+0x86>
 80072de:	6d03      	ldr	r3, [r0, #80]	; 0x50
 80072e0:	00d2      	lsls	r2, r2, #3
 80072e2:	19d1      	adds	r1, r2, r7
 80072e4:	eb03 7355 	add.w	r3, r3, r5, lsr #29
 80072e8:	4291      	cmp	r1, r2
 80072ea:	6503      	str	r3, [r0, #80]	; 0x50
 80072ec:	f3c7 07c5 	ubfx	r7, r7, #3, #6
 80072f0:	bf38      	it	cc
 80072f2:	3301      	addcc	r3, #1
 80072f4:	64c1      	str	r1, [r0, #76]	; 0x4c
 80072f6:	bf38      	it	cc
 80072f8:	6503      	strcc	r3, [r0, #80]	; 0x50
 80072fa:	462e      	mov	r6, r5
 80072fc:	b1af      	cbz	r7, 800732a <crl_u_MD5_Update+0x5c>
 80072fe:	197b      	adds	r3, r7, r5
 8007300:	2b40      	cmp	r3, #64	; 0x40
 8007302:	bfcc      	ite	gt
 8007304:	f1c7 0640 	rsbgt	r6, r7, #64	; 0x40
 8007308:	462e      	movle	r6, r5
 800730a:	4438      	add	r0, r7
 800730c:	300c      	adds	r0, #12
 800730e:	4641      	mov	r1, r8
 8007310:	4632      	mov	r2, r6
 8007312:	4437      	add	r7, r6
 8007314:	f007 faf0 	bl	800e8f8 <memcpy>
 8007318:	2f3f      	cmp	r7, #63	; 0x3f
 800731a:	dd1b      	ble.n	8007354 <crl_u_MD5_Update+0x86>
 800731c:	4620      	mov	r0, r4
 800731e:	f104 010c 	add.w	r1, r4, #12
 8007322:	44b0      	add	r8, r6
 8007324:	1bae      	subs	r6, r5, r6
 8007326:	f7fb fe5b 	bl	8002fe0 <md5_process>
 800732a:	4635      	mov	r5, r6
 800732c:	eb08 0106 	add.w	r1, r8, r6
 8007330:	2d3f      	cmp	r5, #63	; 0x3f
 8007332:	ebc5 0101 	rsb	r1, r5, r1
 8007336:	dd04      	ble.n	8007342 <crl_u_MD5_Update+0x74>
 8007338:	4620      	mov	r0, r4
 800733a:	f7fb fe51 	bl	8002fe0 <md5_process>
 800733e:	3d40      	subs	r5, #64	; 0x40
 8007340:	e7f4      	b.n	800732c <crl_u_MD5_Update+0x5e>
 8007342:	2d00      	cmp	r5, #0
 8007344:	dd06      	ble.n	8007354 <crl_u_MD5_Update+0x86>
 8007346:	f104 000c 	add.w	r0, r4, #12
 800734a:	462a      	mov	r2, r5
 800734c:	e8bd 41f0 	ldmia.w	sp!, {r4, r5, r6, r7, r8, lr}
 8007350:	f007 bad2 	b.w	800e8f8 <memcpy>
 8007354:	e8bd 81f0 	ldmia.w	sp!, {r4, r5, r6, r7, r8, pc}

08007358 <MD5_Append>:
 8007358:	b538      	push	{r3, r4, r5, lr}
 800735a:	b178      	cbz	r0, 800737c <MD5_Append+0x24>
 800735c:	b171      	cbz	r1, 800737c <MD5_Append+0x24>
 800735e:	2a00      	cmp	r2, #0
 8007360:	db0c      	blt.n	800737c <MD5_Append+0x24>
 8007362:	7903      	ldrb	r3, [r0, #4]
 8007364:	f003 0304 	and.w	r3, r3, #4
 8007368:	f003 04ff 	and.w	r4, r3, #255	; 0xff
 800736c:	b91b      	cbnz	r3, 8007376 <MD5_Append+0x1e>
 800736e:	f7ff ffae 	bl	80072ce <crl_u_MD5_Update>
 8007372:	4620      	mov	r0, r4
 8007374:	bd38      	pop	{r3, r4, r5, pc}
 8007376:	f640 70a1 	movw	r0, #4001	; 0xfa1
 800737a:	bd38      	pop	{r3, r4, r5, pc}
 800737c:	f640 70a3 	movw	r0, #4003	; 0xfa3
 8007380:	bd38      	pop	{r3, r4, r5, pc}
	...

08007384 <crl_u_MD5_Finish>:
 8007384:	b573      	push	{r0, r1, r4, r5, r6, lr}
 8007386:	4605      	mov	r5, r0
 8007388:	460e      	mov	r6, r1
 800738a:	2400      	movs	r4, #0
 800738c:	f024 0203 	bic.w	r2, r4, #3
 8007390:	442a      	add	r2, r5
 8007392:	f004 0303 	and.w	r3, r4, #3
 8007396:	6cd2      	ldr	r2, [r2, #76]	; 0x4c
 8007398:	00db      	lsls	r3, r3, #3
 800739a:	fa22 f303 	lsr.w	r3, r2, r3
 800739e:	f80d 3004 	strb.w	r3, [sp, r4]
 80073a2:	3401      	adds	r4, #1
 80073a4:	2c08      	cmp	r4, #8
 80073a6:	d1f1      	bne.n	800738c <crl_u_MD5_Finish+0x8>
 80073a8:	6ceb      	ldr	r3, [r5, #76]	; 0x4c
 80073aa:	4913      	ldr	r1, [pc, #76]	; (80073f8 <crl_u_MD5_Finish+0x74>)
 80073ac:	08da      	lsrs	r2, r3, #3
 80073ae:	f1c2 0237 	rsb	r2, r2, #55	; 0x37
 80073b2:	f002 023f 	and.w	r2, r2, #63	; 0x3f
 80073b6:	4628      	mov	r0, r5
 80073b8:	3201      	adds	r2, #1
 80073ba:	f7ff ff88 	bl	80072ce <crl_u_MD5_Update>
 80073be:	4628      	mov	r0, r5
 80073c0:	4669      	mov	r1, sp
 80073c2:	4622      	mov	r2, r4
 80073c4:	f7ff ff83 	bl	80072ce <crl_u_MD5_Update>
 80073c8:	4628      	mov	r0, r5
 80073ca:	4631      	mov	r1, r6
 80073cc:	2300      	movs	r3, #0
 80073ce:	6d42      	ldr	r2, [r0, #84]	; 0x54
 80073d0:	700a      	strb	r2, [r1, #0]
 80073d2:	6d42      	ldr	r2, [r0, #84]	; 0x54
 80073d4:	0a12      	lsrs	r2, r2, #8
 80073d6:	704a      	strb	r2, [r1, #1]
 80073d8:	f8b0 2056 	ldrh.w	r2, [r0, #86]	; 0x56
 80073dc:	708a      	strb	r2, [r1, #2]
 80073de:	3301      	adds	r3, #1
 80073e0:	f890 2057 	ldrb.w	r2, [r0, #87]	; 0x57
 80073e4:	70ca      	strb	r2, [r1, #3]
 80073e6:	2b04      	cmp	r3, #4
 80073e8:	f100 0004 	add.w	r0, r0, #4
 80073ec:	f101 0104 	add.w	r1, r1, #4
 80073f0:	d1ed      	bne.n	80073ce <crl_u_MD5_Finish+0x4a>
 80073f2:	b002      	add	sp, #8
 80073f4:	bd70      	pop	{r4, r5, r6, pc}
 80073f6:	bf00      	nop
 80073f8:	0800fb3e 	.word	0x0800fb3e

080073fc <MD5_Finish>:
 80073fc:	b5f0      	push	{r4, r5, r6, r7, lr}
 80073fe:	460d      	mov	r5, r1
 8007400:	b087      	sub	sp, #28
 8007402:	4616      	mov	r6, r2
 8007404:	4604      	mov	r4, r0
 8007406:	b1c0      	cbz	r0, 800743a <MD5_Finish+0x3e>
 8007408:	b1b9      	cbz	r1, 800743a <MD5_Finish+0x3e>
 800740a:	b1b2      	cbz	r2, 800743a <MD5_Finish+0x3e>
 800740c:	6883      	ldr	r3, [r0, #8]
 800740e:	3b01      	subs	r3, #1
 8007410:	2b0f      	cmp	r3, #15
 8007412:	d815      	bhi.n	8007440 <MD5_Finish+0x44>
 8007414:	7903      	ldrb	r3, [r0, #4]
 8007416:	af01      	add	r7, sp, #4
 8007418:	f043 0304 	orr.w	r3, r3, #4
 800741c:	7103      	strb	r3, [r0, #4]
 800741e:	4639      	mov	r1, r7
 8007420:	f7ff ffb0 	bl	8007384 <crl_u_MD5_Finish>
 8007424:	2300      	movs	r3, #0
 8007426:	68a2      	ldr	r2, [r4, #8]
 8007428:	4293      	cmp	r3, r2
 800742a:	da03      	bge.n	8007434 <MD5_Finish+0x38>
 800742c:	5cfa      	ldrb	r2, [r7, r3]
 800742e:	54ea      	strb	r2, [r5, r3]
 8007430:	3301      	adds	r3, #1
 8007432:	e7f8      	b.n	8007426 <MD5_Finish+0x2a>
 8007434:	6032      	str	r2, [r6, #0]
 8007436:	2000      	movs	r0, #0
 8007438:	e004      	b.n	8007444 <MD5_Finish+0x48>
 800743a:	f640 70a3 	movw	r0, #4003	; 0xfa3
 800743e:	e001      	b.n	8007444 <MD5_Finish+0x48>
 8007440:	f640 70a2 	movw	r0, #4002	; 0xfa2
 8007444:	b007      	add	sp, #28
 8007446:	bdf0      	pop	{r4, r5, r6, r7, pc}

08007448 <HMAC_MD5_Init>:
 8007448:	b573      	push	{r0, r1, r4, r5, r6, lr}
 800744a:	2300      	movs	r3, #0
 800744c:	9301      	str	r3, [sp, #4]
 800744e:	4604      	mov	r4, r0
 8007450:	2800      	cmp	r0, #0
 8007452:	d05d      	beq.n	8007510 <HMAC_MD5_Init+0xc8>
 8007454:	68c1      	ldr	r1, [r0, #12]
 8007456:	b911      	cbnz	r1, 800745e <HMAC_MD5_Init+0x16>
 8007458:	f640 70a2 	movw	r0, #4002	; 0xfa2
 800745c:	e05c      	b.n	8007518 <HMAC_MD5_Init+0xd0>
 800745e:	6902      	ldr	r2, [r0, #16]
 8007460:	f240 207e 	movw	r0, #638	; 0x27e
 8007464:	1e55      	subs	r5, r2, #1
 8007466:	4285      	cmp	r5, r0
 8007468:	d8f6      	bhi.n	8007458 <HMAC_MD5_Init+0x10>
 800746a:	7920      	ldrb	r0, [r4, #4]
 800746c:	2a40      	cmp	r2, #64	; 0x40
 800746e:	f000 00f9 	and.w	r0, r0, #249	; 0xf9
 8007472:	7120      	strb	r0, [r4, #4]
 8007474:	f884 0058 	strb.w	r0, [r4, #88]	; 0x58
 8007478:	dd18      	ble.n	80074ac <HMAC_MD5_Init+0x64>
 800747a:	2210      	movs	r2, #16
 800747c:	f104 0554 	add.w	r5, r4, #84	; 0x54
 8007480:	65e2      	str	r2, [r4, #92]	; 0x5c
 8007482:	f884 3058 	strb.w	r3, [r4, #88]	; 0x58
 8007486:	4628      	mov	r0, r5
 8007488:	f7ff ff14 	bl	80072b4 <MD5_Init>
 800748c:	68e1      	ldr	r1, [r4, #12]
 800748e:	6922      	ldr	r2, [r4, #16]
 8007490:	4628      	mov	r0, r5
 8007492:	f7ff ff61 	bl	8007358 <MD5_Append>
 8007496:	4628      	mov	r0, r5
 8007498:	f104 0114 	add.w	r1, r4, #20
 800749c:	aa01      	add	r2, sp, #4
 800749e:	f7ff ffad 	bl	80073fc <MD5_Finish>
 80074a2:	2800      	cmp	r0, #0
 80074a4:	d1d8      	bne.n	8007458 <HMAC_MD5_Init+0x10>
 80074a6:	9a01      	ldr	r2, [sp, #4]
 80074a8:	4623      	mov	r3, r4
 80074aa:	e008      	b.n	80074be <HMAC_MD5_Init+0x76>
 80074ac:	9b01      	ldr	r3, [sp, #4]
 80074ae:	4293      	cmp	r3, r2
 80074b0:	daf9      	bge.n	80074a6 <HMAC_MD5_Init+0x5e>
 80074b2:	18e0      	adds	r0, r4, r3
 80074b4:	5ccd      	ldrb	r5, [r1, r3]
 80074b6:	7505      	strb	r5, [r0, #20]
 80074b8:	3301      	adds	r3, #1
 80074ba:	9301      	str	r3, [sp, #4]
 80074bc:	e7f6      	b.n	80074ac <HMAC_MD5_Init+0x64>
 80074be:	1b19      	subs	r1, r3, r4
 80074c0:	4291      	cmp	r1, r2
 80074c2:	da05      	bge.n	80074d0 <HMAC_MD5_Init+0x88>
 80074c4:	7d19      	ldrb	r1, [r3, #20]
 80074c6:	f081 0136 	eor.w	r1, r1, #54	; 0x36
 80074ca:	7519      	strb	r1, [r3, #20]
 80074cc:	3301      	adds	r3, #1
 80074ce:	e7f6      	b.n	80074be <HMAC_MD5_Init+0x76>
 80074d0:	ea22 73e2 	bic.w	r3, r2, r2, asr #31
 80074d4:	2b3f      	cmp	r3, #63	; 0x3f
 80074d6:	dc04      	bgt.n	80074e2 <HMAC_MD5_Init+0x9a>
 80074d8:	18e2      	adds	r2, r4, r3
 80074da:	2136      	movs	r1, #54	; 0x36
 80074dc:	7511      	strb	r1, [r2, #20]
 80074de:	3301      	adds	r3, #1
 80074e0:	e7f8      	b.n	80074d4 <HMAC_MD5_Init+0x8c>
 80074e2:	f104 0654 	add.w	r6, r4, #84	; 0x54
 80074e6:	2500      	movs	r5, #0
 80074e8:	f884 5058 	strb.w	r5, [r4, #88]	; 0x58
 80074ec:	4630      	mov	r0, r6
 80074ee:	3414      	adds	r4, #20
 80074f0:	f7ff fee0 	bl	80072b4 <MD5_Init>
 80074f4:	4630      	mov	r0, r6
 80074f6:	4621      	mov	r1, r4
 80074f8:	2240      	movs	r2, #64	; 0x40
 80074fa:	f7ff ff2d 	bl	8007358 <MD5_Append>
 80074fe:	462b      	mov	r3, r5
 8007500:	58e2      	ldr	r2, [r4, r3]
 8007502:	f082 326a 	eor.w	r2, r2, #1785358954	; 0x6a6a6a6a
 8007506:	50e2      	str	r2, [r4, r3]
 8007508:	3304      	adds	r3, #4
 800750a:	2b40      	cmp	r3, #64	; 0x40
 800750c:	d1f8      	bne.n	8007500 <HMAC_MD5_Init+0xb8>
 800750e:	e002      	b.n	8007516 <HMAC_MD5_Init+0xce>
 8007510:	f640 70a3 	movw	r0, #4003	; 0xfa3
 8007514:	e000      	b.n	8007518 <HMAC_MD5_Init+0xd0>
 8007516:	2000      	movs	r0, #0
 8007518:	b002      	add	sp, #8
 800751a:	bd70      	pop	{r4, r5, r6, pc}

0800751c <HMAC_MD5_Append>:
 800751c:	b110      	cbz	r0, 8007524 <HMAC_MD5_Append+0x8>
 800751e:	3054      	adds	r0, #84	; 0x54
 8007520:	f7ff bf1a 	b.w	8007358 <MD5_Append>
 8007524:	f640 70a3 	movw	r0, #4003	; 0xfa3
 8007528:	4770      	bx	lr

0800752a <HMAC_MD5_Finish>:
 800752a:	e92d 41f0 	stmdb	sp!, {r4, r5, r6, r7, r8, lr}
 800752e:	2610      	movs	r6, #16
 8007530:	b086      	sub	sp, #24
 8007532:	4604      	mov	r4, r0
 8007534:	4688      	mov	r8, r1
 8007536:	4617      	mov	r7, r2
 8007538:	a802      	add	r0, sp, #8
 800753a:	2100      	movs	r1, #0
 800753c:	4632      	mov	r2, r6
 800753e:	f007 fa00 	bl	800e942 <memset>
 8007542:	b1f4      	cbz	r4, 8007582 <HMAC_MD5_Finish+0x58>
 8007544:	f104 0554 	add.w	r5, r4, #84	; 0x54
 8007548:	65e6      	str	r6, [r4, #92]	; 0x5c
 800754a:	4628      	mov	r0, r5
 800754c:	a902      	add	r1, sp, #8
 800754e:	aa01      	add	r2, sp, #4
 8007550:	f7ff ff54 	bl	80073fc <MD5_Finish>
 8007554:	b9b8      	cbnz	r0, 8007586 <HMAC_MD5_Finish+0x5c>
 8007556:	4628      	mov	r0, r5
 8007558:	f7ff feac 	bl	80072b4 <MD5_Init>
 800755c:	f104 0114 	add.w	r1, r4, #20
 8007560:	4628      	mov	r0, r5
 8007562:	2240      	movs	r2, #64	; 0x40
 8007564:	f7ff fef8 	bl	8007358 <MD5_Append>
 8007568:	a902      	add	r1, sp, #8
 800756a:	4632      	mov	r2, r6
 800756c:	4628      	mov	r0, r5
 800756e:	f7ff fef3 	bl	8007358 <MD5_Append>
 8007572:	68a3      	ldr	r3, [r4, #8]
 8007574:	65e3      	str	r3, [r4, #92]	; 0x5c
 8007576:	4628      	mov	r0, r5
 8007578:	4641      	mov	r1, r8
 800757a:	463a      	mov	r2, r7
 800757c:	f7ff ff3e 	bl	80073fc <MD5_Finish>
 8007580:	e001      	b.n	8007586 <HMAC_MD5_Finish+0x5c>
 8007582:	f640 70a3 	movw	r0, #4003	; 0xfa3
 8007586:	b006      	add	sp, #24
 8007588:	e8bd 81f0 	ldmia.w	sp!, {r4, r5, r6, r7, r8, pc}

0800758c <SHA1Init>:
 800758c:	4b0a      	ldr	r3, [pc, #40]	; (80075b8 <SHA1Init+0x2c>)
 800758e:	6543      	str	r3, [r0, #84]	; 0x54
 8007590:	f103 3388 	add.w	r3, r3, #2290649224	; 0x88888888
 8007594:	6583      	str	r3, [r0, #88]	; 0x58
 8007596:	f103 4329 	add.w	r3, r3, #2835349504	; 0xa9000000
 800759a:	f5a3 1396 	sub.w	r3, r3, #1228800	; 0x12c000
 800759e:	f6a3 638b 	subw	r3, r3, #3723	; 0xe8b
 80075a2:	65c3      	str	r3, [r0, #92]	; 0x5c
 80075a4:	f1a3 3388 	sub.w	r3, r3, #2290649224	; 0x88888888
 80075a8:	6603      	str	r3, [r0, #96]	; 0x60
 80075aa:	4b04      	ldr	r3, [pc, #16]	; (80075bc <SHA1Init+0x30>)
 80075ac:	6643      	str	r3, [r0, #100]	; 0x64
 80075ae:	2300      	movs	r3, #0
 80075b0:	64c3      	str	r3, [r0, #76]	; 0x4c
 80075b2:	6503      	str	r3, [r0, #80]	; 0x50
 80075b4:	4770      	bx	lr
 80075b6:	bf00      	nop
 80075b8:	67452301 	.word	0x67452301
 80075bc:	c3d2e1f0 	.word	0xc3d2e1f0

080075c0 <SHA1_Init>:
 80075c0:	b508      	push	{r3, lr}
 80075c2:	b138      	cbz	r0, 80075d4 <SHA1_Init+0x14>
 80075c4:	7902      	ldrb	r2, [r0, #4]
 80075c6:	f022 0206 	bic.w	r2, r2, #6
 80075ca:	7102      	strb	r2, [r0, #4]
 80075cc:	f7ff ffde 	bl	800758c <SHA1Init>
 80075d0:	2000      	movs	r0, #0
 80075d2:	bd08      	pop	{r3, pc}
 80075d4:	f640 70a3 	movw	r0, #4003	; 0xfa3
 80075d8:	bd08      	pop	{r3, pc}

080075da <SHA1Update>:
 80075da:	e92d 43f8 	stmdb	sp!, {r3, r4, r5, r6, r7, r8, r9, lr}
 80075de:	4616      	mov	r6, r2
 80075e0:	6cc2      	ldr	r2, [r0, #76]	; 0x4c
 80075e2:	00f3      	lsls	r3, r6, #3
 80075e4:	4604      	mov	r4, r0
 80075e6:	f3c2 00c5 	ubfx	r0, r2, #3, #6
 80075ea:	441a      	add	r2, r3
 80075ec:	429a      	cmp	r2, r3
 80075ee:	460f      	mov	r7, r1
 80075f0:	64e2      	str	r2, [r4, #76]	; 0x4c
 80075f2:	d202      	bcs.n	80075fa <SHA1Update+0x20>
 80075f4:	6d23      	ldr	r3, [r4, #80]	; 0x50
 80075f6:	3301      	adds	r3, #1
 80075f8:	6523      	str	r3, [r4, #80]	; 0x50
 80075fa:	6d23      	ldr	r3, [r4, #80]	; 0x50
 80075fc:	eb03 7356 	add.w	r3, r3, r6, lsr #29
 8007600:	6523      	str	r3, [r4, #80]	; 0x50
 8007602:	1833      	adds	r3, r6, r0
 8007604:	2b3f      	cmp	r3, #63	; 0x3f
 8007606:	d929      	bls.n	800765c <SHA1Update+0x82>
 8007608:	f1c0 0540 	rsb	r5, r0, #64	; 0x40
 800760c:	4420      	add	r0, r4
 800760e:	4639      	mov	r1, r7
 8007610:	300c      	adds	r0, #12
 8007612:	462a      	mov	r2, r5
 8007614:	f104 0854 	add.w	r8, r4, #84	; 0x54
 8007618:	f104 090c 	add.w	r9, r4, #12
 800761c:	f007 f96c 	bl	800e8f8 <memcpy>
 8007620:	4640      	mov	r0, r8
 8007622:	4649      	mov	r1, r9
 8007624:	f7fa ff96 	bl	8002554 <SHA1Transform>
 8007628:	f105 033f 	add.w	r3, r5, #63	; 0x3f
 800762c:	42b3      	cmp	r3, r6
 800762e:	d213      	bcs.n	8007658 <SHA1Update+0x7e>
 8007630:	1979      	adds	r1, r7, r5
 8007632:	078b      	lsls	r3, r1, #30
 8007634:	d001      	beq.n	800763a <SHA1Update+0x60>
 8007636:	4640      	mov	r0, r8
 8007638:	e00a      	b.n	8007650 <SHA1Update+0x76>
 800763a:	460b      	mov	r3, r1
 800763c:	464a      	mov	r2, r9
 800763e:	3140      	adds	r1, #64	; 0x40
 8007640:	f853 0b04 	ldr.w	r0, [r3], #4
 8007644:	f842 0b04 	str.w	r0, [r2], #4
 8007648:	428b      	cmp	r3, r1
 800764a:	d1f9      	bne.n	8007640 <SHA1Update+0x66>
 800764c:	4640      	mov	r0, r8
 800764e:	4649      	mov	r1, r9
 8007650:	f7fa ff80 	bl	8002554 <SHA1Transform>
 8007654:	3540      	adds	r5, #64	; 0x40
 8007656:	e7e7      	b.n	8007628 <SHA1Update+0x4e>
 8007658:	2000      	movs	r0, #0
 800765a:	e000      	b.n	800765e <SHA1Update+0x84>
 800765c:	2500      	movs	r5, #0
 800765e:	4420      	add	r0, r4
 8007660:	1979      	adds	r1, r7, r5
 8007662:	1b72      	subs	r2, r6, r5
 8007664:	300c      	adds	r0, #12
 8007666:	e8bd 43f8 	ldmia.w	sp!, {r3, r4, r5, r6, r7, r8, r9, lr}
 800766a:	f007 b945 	b.w	800e8f8 <memcpy>

0800766e <SHA1_Append>:
 800766e:	b538      	push	{r3, r4, r5, lr}
 8007670:	b178      	cbz	r0, 8007692 <SHA1_Append+0x24>
 8007672:	b171      	cbz	r1, 8007692 <SHA1_Append+0x24>
 8007674:	2a00      	cmp	r2, #0
 8007676:	db0c      	blt.n	8007692 <SHA1_Append+0x24>
 8007678:	7903      	ldrb	r3, [r0, #4]
 800767a:	f003 0304 	and.w	r3, r3, #4
 800767e:	f003 04ff 	and.w	r4, r3, #255	; 0xff
 8007682:	b91b      	cbnz	r3, 800768c <SHA1_Append+0x1e>
 8007684:	f7ff ffa9 	bl	80075da <SHA1Update>
 8007688:	4620      	mov	r0, r4
 800768a:	bd38      	pop	{r3, r4, r5, pc}
 800768c:	f640 70a1 	movw	r0, #4001	; 0xfa1
 8007690:	bd38      	pop	{r3, r4, r5, pc}
 8007692:	f640 70a3 	movw	r0, #4003	; 0xfa3
 8007696:	bd38      	pop	{r3, r4, r5, pc}

08007698 <SHA1Final>:
 8007698:	b5f7      	push	{r0, r1, r2, r4, r5, r6, r7, lr}
 800769a:	2300      	movs	r3, #0
 800769c:	4607      	mov	r7, r0
 800769e:	460e      	mov	r6, r1
 80076a0:	2b03      	cmp	r3, #3
 80076a2:	bfd4      	ite	le
 80076a4:	214c      	movle	r1, #76	; 0x4c
 80076a6:	2148      	movgt	r1, #72	; 0x48
 80076a8:	4439      	add	r1, r7
 80076aa:	43da      	mvns	r2, r3
 80076ac:	f002 0203 	and.w	r2, r2, #3
 80076b0:	6849      	ldr	r1, [r1, #4]
 80076b2:	00d2      	lsls	r2, r2, #3
 80076b4:	fa21 f202 	lsr.w	r2, r1, r2
 80076b8:	f80d 2003 	strb.w	r2, [sp, r3]
 80076bc:	3301      	adds	r3, #1
 80076be:	2b08      	cmp	r3, #8
 80076c0:	d1ee      	bne.n	80076a0 <SHA1Final+0x8>
 80076c2:	6cfb      	ldr	r3, [r7, #76]	; 0x4c
 80076c4:	6d3d      	ldr	r5, [r7, #80]	; 0x50
 80076c6:	2400      	movs	r4, #0
 80076c8:	431c      	orrs	r4, r3
 80076ca:	08e2      	lsrs	r2, r4, #3
 80076cc:	ea42 7245 	orr.w	r2, r2, r5, lsl #29
 80076d0:	08eb      	lsrs	r3, r5, #3
 80076d2:	243f      	movs	r4, #63	; 0x3f
 80076d4:	2500      	movs	r5, #0
 80076d6:	4014      	ands	r4, r2
 80076d8:	401d      	ands	r5, r3
 80076da:	2d00      	cmp	r5, #0
 80076dc:	bf08      	it	eq
 80076de:	2c38      	cmpeq	r4, #56	; 0x38
 80076e0:	443c      	add	r4, r7
 80076e2:	f04f 0380 	mov.w	r3, #128	; 0x80
 80076e6:	f002 023f 	and.w	r2, r2, #63	; 0x3f
 80076ea:	7323      	strb	r3, [r4, #12]
 80076ec:	f102 0201 	add.w	r2, r2, #1
 80076f0:	d214      	bcs.n	800771c <SHA1Final+0x84>
 80076f2:	2a37      	cmp	r2, #55	; 0x37
 80076f4:	f04f 0300 	mov.w	r3, #0
 80076f8:	dc03      	bgt.n	8007702 <SHA1Final+0x6a>
 80076fa:	18b9      	adds	r1, r7, r2
 80076fc:	3201      	adds	r2, #1
 80076fe:	730b      	strb	r3, [r1, #12]
 8007700:	e7f7      	b.n	80076f2 <SHA1Final+0x5a>
 8007702:	18fa      	adds	r2, r7, r3
 8007704:	f81d 1003 	ldrb.w	r1, [sp, r3]
 8007708:	f882 1044 	strb.w	r1, [r2, #68]	; 0x44
 800770c:	3301      	adds	r3, #1
 800770e:	2b08      	cmp	r3, #8
 8007710:	d1f7      	bne.n	8007702 <SHA1Final+0x6a>
 8007712:	f107 0054 	add.w	r0, r7, #84	; 0x54
 8007716:	f107 010c 	add.w	r1, r7, #12
 800771a:	e01f      	b.n	800775c <SHA1Final+0xc4>
 800771c:	2a40      	cmp	r2, #64	; 0x40
 800771e:	d004      	beq.n	800772a <SHA1Final+0x92>
 8007720:	18bb      	adds	r3, r7, r2
 8007722:	2100      	movs	r1, #0
 8007724:	7319      	strb	r1, [r3, #12]
 8007726:	3201      	adds	r2, #1
 8007728:	e7f8      	b.n	800771c <SHA1Final+0x84>
 800772a:	f107 0554 	add.w	r5, r7, #84	; 0x54
 800772e:	f107 040c 	add.w	r4, r7, #12
 8007732:	4628      	mov	r0, r5
 8007734:	4621      	mov	r1, r4
 8007736:	f7fa ff0d 	bl	8002554 <SHA1Transform>
 800773a:	2200      	movs	r2, #0
 800773c:	18b9      	adds	r1, r7, r2
 800773e:	3201      	adds	r2, #1
 8007740:	2300      	movs	r3, #0
 8007742:	2a38      	cmp	r2, #56	; 0x38
 8007744:	730b      	strb	r3, [r1, #12]
 8007746:	d1f9      	bne.n	800773c <SHA1Final+0xa4>
 8007748:	18fa      	adds	r2, r7, r3
 800774a:	f81d 1003 	ldrb.w	r1, [sp, r3]
 800774e:	f882 1044 	strb.w	r1, [r2, #68]	; 0x44
 8007752:	3301      	adds	r3, #1
 8007754:	2b08      	cmp	r3, #8
 8007756:	d1f7      	bne.n	8007748 <SHA1Final+0xb0>
 8007758:	4628      	mov	r0, r5
 800775a:	4621      	mov	r1, r4
 800775c:	f7fa fefa 	bl	8002554 <SHA1Transform>
 8007760:	2400      	movs	r4, #0
 8007762:	193b      	adds	r3, r7, r4
 8007764:	6d5b      	ldr	r3, [r3, #84]	; 0x54
 8007766:	ba1b      	rev	r3, r3
 8007768:	5133      	str	r3, [r6, r4]
 800776a:	3404      	adds	r4, #4
 800776c:	2c14      	cmp	r4, #20
 800776e:	d1f8      	bne.n	8007762 <SHA1Final+0xca>
 8007770:	f107 000c 	add.w	r0, r7, #12
 8007774:	2100      	movs	r1, #0
 8007776:	2240      	movs	r2, #64	; 0x40
 8007778:	f007 f8e3 	bl	800e942 <memset>
 800777c:	4622      	mov	r2, r4
 800777e:	f107 0054 	add.w	r0, r7, #84	; 0x54
 8007782:	2100      	movs	r1, #0
 8007784:	f007 f8dd 	bl	800e942 <memset>
 8007788:	f107 004c 	add.w	r0, r7, #76	; 0x4c
 800778c:	2100      	movs	r1, #0
 800778e:	2208      	movs	r2, #8
 8007790:	f007 f8d7 	bl	800e942 <memset>
 8007794:	b003      	add	sp, #12
 8007796:	bdf0      	pop	{r4, r5, r6, r7, pc}

08007798 <SHA1_Finish>:
 8007798:	b5f0      	push	{r4, r5, r6, r7, lr}
 800779a:	460d      	mov	r5, r1
 800779c:	b087      	sub	sp, #28
 800779e:	4616      	mov	r6, r2
 80077a0:	4604      	mov	r4, r0
 80077a2:	b1c0      	cbz	r0, 80077d6 <SHA1_Finish+0x3e>
 80077a4:	b1b9      	cbz	r1, 80077d6 <SHA1_Finish+0x3e>
 80077a6:	b1b2      	cbz	r2, 80077d6 <SHA1_Finish+0x3e>
 80077a8:	6883      	ldr	r3, [r0, #8]
 80077aa:	3b01      	subs	r3, #1
 80077ac:	2b13      	cmp	r3, #19
 80077ae:	d815      	bhi.n	80077dc <SHA1_Finish+0x44>
 80077b0:	7903      	ldrb	r3, [r0, #4]
 80077b2:	af01      	add	r7, sp, #4
 80077b4:	f043 0304 	orr.w	r3, r3, #4
 80077b8:	7103      	strb	r3, [r0, #4]
 80077ba:	4639      	mov	r1, r7
 80077bc:	f7ff ff6c 	bl	8007698 <SHA1Final>
 80077c0:	2300      	movs	r3, #0
 80077c2:	68a2      	ldr	r2, [r4, #8]
 80077c4:	4293      	cmp	r3, r2
 80077c6:	da03      	bge.n	80077d0 <SHA1_Finish+0x38>
 80077c8:	5cfa      	ldrb	r2, [r7, r3]
 80077ca:	54ea      	strb	r2, [r5, r3]
 80077cc:	3301      	adds	r3, #1
 80077ce:	e7f8      	b.n	80077c2 <SHA1_Finish+0x2a>
 80077d0:	6032      	str	r2, [r6, #0]
 80077d2:	2000      	movs	r0, #0
 80077d4:	e004      	b.n	80077e0 <SHA1_Finish+0x48>
 80077d6:	f640 70a3 	movw	r0, #4003	; 0xfa3
 80077da:	e001      	b.n	80077e0 <SHA1_Finish+0x48>
 80077dc:	f640 70a2 	movw	r0, #4002	; 0xfa2
 80077e0:	b007      	add	sp, #28
 80077e2:	bdf0      	pop	{r4, r5, r6, r7, pc}

080077e4 <HMAC_SHA1_Init>:
 80077e4:	b573      	push	{r0, r1, r4, r5, r6, lr}
 80077e6:	2300      	movs	r3, #0
 80077e8:	9301      	str	r3, [sp, #4]
 80077ea:	4604      	mov	r4, r0
 80077ec:	2800      	cmp	r0, #0
 80077ee:	d05d      	beq.n	80078ac <HMAC_SHA1_Init+0xc8>
 80077f0:	68c1      	ldr	r1, [r0, #12]
 80077f2:	b911      	cbnz	r1, 80077fa <HMAC_SHA1_Init+0x16>
 80077f4:	f640 70a2 	movw	r0, #4002	; 0xfa2
 80077f8:	e05c      	b.n	80078b4 <HMAC_SHA1_Init+0xd0>
 80077fa:	6902      	ldr	r2, [r0, #16]
 80077fc:	f240 207e 	movw	r0, #638	; 0x27e
 8007800:	1e55      	subs	r5, r2, #1
 8007802:	4285      	cmp	r5, r0
 8007804:	d8f6      	bhi.n	80077f4 <HMAC_SHA1_Init+0x10>
 8007806:	7920      	ldrb	r0, [r4, #4]
 8007808:	2a40      	cmp	r2, #64	; 0x40
 800780a:	f000 00f9 	and.w	r0, r0, #249	; 0xf9
 800780e:	7120      	strb	r0, [r4, #4]
 8007810:	f884 0058 	strb.w	r0, [r4, #88]	; 0x58
 8007814:	dd18      	ble.n	8007848 <HMAC_SHA1_Init+0x64>
 8007816:	2214      	movs	r2, #20
 8007818:	f104 0554 	add.w	r5, r4, #84	; 0x54
 800781c:	65e2      	str	r2, [r4, #92]	; 0x5c
 800781e:	f884 3058 	strb.w	r3, [r4, #88]	; 0x58
 8007822:	4628      	mov	r0, r5
 8007824:	f7ff fecc 	bl	80075c0 <SHA1_Init>
 8007828:	68e1      	ldr	r1, [r4, #12]
 800782a:	6922      	ldr	r2, [r4, #16]
 800782c:	4628      	mov	r0, r5
 800782e:	f7ff ff1e 	bl	800766e <SHA1_Append>
 8007832:	4628      	mov	r0, r5
 8007834:	f104 0114 	add.w	r1, r4, #20
 8007838:	aa01      	add	r2, sp, #4
 800783a:	f7ff ffad 	bl	8007798 <SHA1_Finish>
 800783e:	2800      	cmp	r0, #0
 8007840:	d1d8      	bne.n	80077f4 <HMAC_SHA1_Init+0x10>
 8007842:	9a01      	ldr	r2, [sp, #4]
 8007844:	4623      	mov	r3, r4
 8007846:	e008      	b.n	800785a <HMAC_SHA1_Init+0x76>
 8007848:	9b01      	ldr	r3, [sp, #4]
 800784a:	4293      	cmp	r3, r2
 800784c:	daf9      	bge.n	8007842 <HMAC_SHA1_Init+0x5e>
 800784e:	18e0      	adds	r0, r4, r3
 8007850:	5ccd      	ldrb	r5, [r1, r3]
 8007852:	7505      	strb	r5, [r0, #20]
 8007854:	3301      	adds	r3, #1
 8007856:	9301      	str	r3, [sp, #4]
 8007858:	e7f6      	b.n	8007848 <HMAC_SHA1_Init+0x64>
 800785a:	1b19      	subs	r1, r3, r4
 800785c:	4291      	cmp	r1, r2
 800785e:	da05      	bge.n	800786c <HMAC_SHA1_Init+0x88>
 8007860:	7d19      	ldrb	r1, [r3, #20]
 8007862:	f081 0136 	eor.w	r1, r1, #54	; 0x36
 8007866:	7519      	strb	r1, [r3, #20]
 8007868:	3301      	adds	r3, #1
 800786a:	e7f6      	b.n	800785a <HMAC_SHA1_Init+0x76>
 800786c:	ea22 73e2 	bic.w	r3, r2, r2, asr #31
 8007870:	2b3f      	cmp	r3, #63	; 0x3f
 8007872:	dc04      	bgt.n	800787e <HMAC_SHA1_Init+0x9a>
 8007874:	18e2      	adds	r2, r4, r3
 8007876:	2136      	movs	r1, #54	; 0x36
 8007878:	7511      	strb	r1, [r2, #20]
 800787a:	3301      	adds	r3, #1
 800787c:	e7f8      	b.n	8007870 <HMAC_SHA1_Init+0x8c>
 800787e:	f104 0654 	add.w	r6, r4, #84	; 0x54
 8007882:	2500      	movs	r5, #0
 8007884:	f884 5058 	strb.w	r5, [r4, #88]	; 0x58
 8007888:	4630      	mov	r0, r6
 800788a:	3414      	adds	r4, #20
 800788c:	f7ff fe98 	bl	80075c0 <SHA1_Init>
 8007890:	4630      	mov	r0, r6
 8007892:	4621      	mov	r1, r4
 8007894:	2240      	movs	r2, #64	; 0x40
 8007896:	f7ff feea 	bl	800766e <SHA1_Append>
 800789a:	462b      	mov	r3, r5
 800789c:	58e2      	ldr	r2, [r4, r3]
 800789e:	f082 326a 	eor.w	r2, r2, #1785358954	; 0x6a6a6a6a
 80078a2:	50e2      	str	r2, [r4, r3]
 80078a4:	3304      	adds	r3, #4
 80078a6:	2b40      	cmp	r3, #64	; 0x40
 80078a8:	d1f8      	bne.n	800789c <HMAC_SHA1_Init+0xb8>
 80078aa:	e002      	b.n	80078b2 <HMAC_SHA1_Init+0xce>
 80078ac:	f640 70a3 	movw	r0, #4003	; 0xfa3
 80078b0:	e000      	b.n	80078b4 <HMAC_SHA1_Init+0xd0>
 80078b2:	2000      	movs	r0, #0
 80078b4:	b002      	add	sp, #8
 80078b6:	bd70      	pop	{r4, r5, r6, pc}

080078b8 <HMAC_SHA1_Append>:
 80078b8:	b110      	cbz	r0, 80078c0 <HMAC_SHA1_Append+0x8>
 80078ba:	3054      	adds	r0, #84	; 0x54
 80078bc:	f7ff bed7 	b.w	800766e <SHA1_Append>
 80078c0:	f640 70a3 	movw	r0, #4003	; 0xfa3
 80078c4:	4770      	bx	lr

080078c6 <HMAC_SHA1_Finish>:
 80078c6:	e92d 41f0 	stmdb	sp!, {r4, r5, r6, r7, r8, lr}
 80078ca:	2614      	movs	r6, #20
 80078cc:	b086      	sub	sp, #24
 80078ce:	4604      	mov	r4, r0
 80078d0:	4688      	mov	r8, r1
 80078d2:	4617      	mov	r7, r2
 80078d4:	a801      	add	r0, sp, #4
 80078d6:	2100      	movs	r1, #0
 80078d8:	4632      	mov	r2, r6
 80078da:	f007 f832 	bl	800e942 <memset>
 80078de:	b1ec      	cbz	r4, 800791c <HMAC_SHA1_Finish+0x56>
 80078e0:	f104 0554 	add.w	r5, r4, #84	; 0x54
 80078e4:	65e6      	str	r6, [r4, #92]	; 0x5c
 80078e6:	4628      	mov	r0, r5
 80078e8:	a901      	add	r1, sp, #4
 80078ea:	466a      	mov	r2, sp
 80078ec:	f7ff ff54 	bl	8007798 <SHA1_Finish>
 80078f0:	b9b0      	cbnz	r0, 8007920 <HMAC_SHA1_Finish+0x5a>
 80078f2:	4628      	mov	r0, r5
 80078f4:	f7ff fe64 	bl	80075c0 <SHA1_Init>
 80078f8:	19a1      	adds	r1, r4, r6
 80078fa:	4628      	mov	r0, r5
 80078fc:	2240      	movs	r2, #64	; 0x40
 80078fe:	f7ff feb6 	bl	800766e <SHA1_Append>
 8007902:	a901      	add	r1, sp, #4
 8007904:	4632      	mov	r2, r6
 8007906:	4628      	mov	r0, r5
 8007908:	f7ff feb1 	bl	800766e <SHA1_Append>
 800790c:	68a3      	ldr	r3, [r4, #8]
 800790e:	65e3      	str	r3, [r4, #92]	; 0x5c
 8007910:	4628      	mov	r0, r5
 8007912:	4641      	mov	r1, r8
 8007914:	463a      	mov	r2, r7
 8007916:	f7ff ff3f 	bl	8007798 <SHA1_Finish>
 800791a:	e001      	b.n	8007920 <HMAC_SHA1_Finish+0x5a>
 800791c:	f640 70a3 	movw	r0, #4003	; 0xfa3
 8007920:	b006      	add	sp, #24
 8007922:	e8bd 81f0 	ldmia.w	sp!, {r4, r5, r6, r7, r8, pc}

08007926 <SHA256Update>:
 8007926:	e92d 43f8 	stmdb	sp!, {r3, r4, r5, r6, r7, r8, r9, lr}
 800792a:	4616      	mov	r6, r2
 800792c:	6cc2      	ldr	r2, [r0, #76]	; 0x4c
 800792e:	00f3      	lsls	r3, r6, #3
 8007930:	4604      	mov	r4, r0
 8007932:	f3c2 00c5 	ubfx	r0, r2, #3, #6
 8007936:	441a      	add	r2, r3
 8007938:	429a      	cmp	r2, r3
 800793a:	460f      	mov	r7, r1
 800793c:	64e2      	str	r2, [r4, #76]	; 0x4c
 800793e:	d202      	bcs.n	8007946 <SHA256Update+0x20>
 8007940:	6d23      	ldr	r3, [r4, #80]	; 0x50
 8007942:	3301      	adds	r3, #1
 8007944:	6523      	str	r3, [r4, #80]	; 0x50
 8007946:	6d23      	ldr	r3, [r4, #80]	; 0x50
 8007948:	eb03 7356 	add.w	r3, r3, r6, lsr #29
 800794c:	6523      	str	r3, [r4, #80]	; 0x50
 800794e:	1833      	adds	r3, r6, r0
 8007950:	2b3f      	cmp	r3, #63	; 0x3f
 8007952:	d929      	bls.n	80079a8 <SHA256Update+0x82>
 8007954:	f1c0 0540 	rsb	r5, r0, #64	; 0x40
 8007958:	4420      	add	r0, r4
 800795a:	4639      	mov	r1, r7
 800795c:	300c      	adds	r0, #12
 800795e:	462a      	mov	r2, r5
 8007960:	f104 0854 	add.w	r8, r4, #84	; 0x54
 8007964:	f104 090c 	add.w	r9, r4, #12
 8007968:	f006 ffc6 	bl	800e8f8 <memcpy>
 800796c:	4640      	mov	r0, r8
 800796e:	4649      	mov	r1, r9
 8007970:	f7fa ffba 	bl	80028e8 <SHA256Transform>
 8007974:	f105 033f 	add.w	r3, r5, #63	; 0x3f
 8007978:	42b3      	cmp	r3, r6
 800797a:	d213      	bcs.n	80079a4 <SHA256Update+0x7e>
 800797c:	1979      	adds	r1, r7, r5
 800797e:	078b      	lsls	r3, r1, #30
 8007980:	d001      	beq.n	8007986 <SHA256Update+0x60>
 8007982:	4640      	mov	r0, r8
 8007984:	e00a      	b.n	800799c <SHA256Update+0x76>
 8007986:	460b      	mov	r3, r1
 8007988:	464a      	mov	r2, r9
 800798a:	3140      	adds	r1, #64	; 0x40
 800798c:	f853 0b04 	ldr.w	r0, [r3], #4
 8007990:	f842 0b04 	str.w	r0, [r2], #4
 8007994:	428b      	cmp	r3, r1
 8007996:	d1f9      	bne.n	800798c <SHA256Update+0x66>
 8007998:	4640      	mov	r0, r8
 800799a:	4649      	mov	r1, r9
 800799c:	f7fa ffa4 	bl	80028e8 <SHA256Transform>
 80079a0:	3540      	adds	r5, #64	; 0x40
 80079a2:	e7e7      	b.n	8007974 <SHA256Update+0x4e>
 80079a4:	2000      	movs	r0, #0
 80079a6:	e000      	b.n	80079aa <SHA256Update+0x84>
 80079a8:	2500      	movs	r5, #0
 80079aa:	4420      	add	r0, r4
 80079ac:	1979      	adds	r1, r7, r5
 80079ae:	1b72      	subs	r2, r6, r5
 80079b0:	300c      	adds	r0, #12
 80079b2:	e8bd 43f8 	ldmia.w	sp!, {r3, r4, r5, r6, r7, r8, r9, lr}
 80079b6:	f006 bf9f 	b.w	800e8f8 <memcpy>

080079ba <SHA224_Append>:
 80079ba:	b538      	push	{r3, r4, r5, lr}
 80079bc:	b178      	cbz	r0, 80079de <SHA224_Append+0x24>
 80079be:	b171      	cbz	r1, 80079de <SHA224_Append+0x24>
 80079c0:	2a00      	cmp	r2, #0
 80079c2:	db0c      	blt.n	80079de <SHA224_Append+0x24>
 80079c4:	7903      	ldrb	r3, [r0, #4]
 80079c6:	f003 0304 	and.w	r3, r3, #4
 80079ca:	f003 04ff 	and.w	r4, r3, #255	; 0xff
 80079ce:	b91b      	cbnz	r3, 80079d8 <SHA224_Append+0x1e>
 80079d0:	f7ff ffa9 	bl	8007926 <SHA256Update>
 80079d4:	4620      	mov	r0, r4
 80079d6:	bd38      	pop	{r3, r4, r5, pc}
 80079d8:	f640 70a1 	movw	r0, #4001	; 0xfa1
 80079dc:	bd38      	pop	{r3, r4, r5, pc}
 80079de:	f640 70a3 	movw	r0, #4003	; 0xfa3
 80079e2:	bd38      	pop	{r3, r4, r5, pc}

080079e4 <SHA224Init>:
 80079e4:	4b0e      	ldr	r3, [pc, #56]	; (8007a20 <SHA224Init+0x3c>)
 80079e6:	6543      	str	r3, [r0, #84]	; 0x54
 80079e8:	4b0e      	ldr	r3, [pc, #56]	; (8007a24 <SHA224Init+0x40>)
 80079ea:	6583      	str	r3, [r0, #88]	; 0x58
 80079ec:	f103 4379 	add.w	r3, r3, #4177526784	; 0xf9000000
 80079f0:	f503 0374 	add.w	r3, r3, #15990784	; 0xf40000
 80079f4:	f503 6301 	add.w	r3, r3, #2064	; 0x810
 80079f8:	65c3      	str	r3, [r0, #92]	; 0x5c
 80079fa:	4b0b      	ldr	r3, [pc, #44]	; (8007a28 <SHA224Init+0x44>)
 80079fc:	6603      	str	r3, [r0, #96]	; 0x60
 80079fe:	4b0b      	ldr	r3, [pc, #44]	; (8007a2c <SHA224Init+0x48>)
 8007a00:	6643      	str	r3, [r0, #100]	; 0x64
 8007a02:	f103 43d1 	add.w	r3, r3, #1753219072	; 0x68800000
 8007a06:	f503 13c0 	add.w	r3, r3, #1572864	; 0x180000
 8007a0a:	f503 631e 	add.w	r3, r3, #2528	; 0x9e0
 8007a0e:	6683      	str	r3, [r0, #104]	; 0x68
 8007a10:	4b07      	ldr	r3, [pc, #28]	; (8007a30 <SHA224Init+0x4c>)
 8007a12:	66c3      	str	r3, [r0, #108]	; 0x6c
 8007a14:	4b07      	ldr	r3, [pc, #28]	; (8007a34 <SHA224Init+0x50>)
 8007a16:	6703      	str	r3, [r0, #112]	; 0x70
 8007a18:	2300      	movs	r3, #0
 8007a1a:	64c3      	str	r3, [r0, #76]	; 0x4c
 8007a1c:	6503      	str	r3, [r0, #80]	; 0x50
 8007a1e:	4770      	bx	lr
 8007a20:	c1059ed8 	.word	0xc1059ed8
 8007a24:	367cd507 	.word	0x367cd507
 8007a28:	f70e5939 	.word	0xf70e5939
 8007a2c:	ffc00b31 	.word	0xffc00b31
 8007a30:	64f98fa7 	.word	0x64f98fa7
 8007a34:	befa4fa4 	.word	0xbefa4fa4

08007a38 <SHA224_Init>:
 8007a38:	b508      	push	{r3, lr}
 8007a3a:	b138      	cbz	r0, 8007a4c <SHA224_Init+0x14>
 8007a3c:	7902      	ldrb	r2, [r0, #4]
 8007a3e:	f022 0206 	bic.w	r2, r2, #6
 8007a42:	7102      	strb	r2, [r0, #4]
 8007a44:	f7ff ffce 	bl	80079e4 <SHA224Init>
 8007a48:	2000      	movs	r0, #0
 8007a4a:	bd08      	pop	{r3, pc}
 8007a4c:	f640 70a3 	movw	r0, #4003	; 0xfa3
 8007a50:	bd08      	pop	{r3, pc}

08007a52 <SHA224Final>:
 8007a52:	b5f7      	push	{r0, r1, r2, r4, r5, r6, r7, lr}
 8007a54:	2300      	movs	r3, #0
 8007a56:	4607      	mov	r7, r0
 8007a58:	460e      	mov	r6, r1
 8007a5a:	2b03      	cmp	r3, #3
 8007a5c:	bfd4      	ite	le
 8007a5e:	214c      	movle	r1, #76	; 0x4c
 8007a60:	2148      	movgt	r1, #72	; 0x48
 8007a62:	4439      	add	r1, r7
 8007a64:	43da      	mvns	r2, r3
 8007a66:	f002 0203 	and.w	r2, r2, #3
 8007a6a:	6849      	ldr	r1, [r1, #4]
 8007a6c:	00d2      	lsls	r2, r2, #3
 8007a6e:	fa21 f202 	lsr.w	r2, r1, r2
 8007a72:	f80d 2003 	strb.w	r2, [sp, r3]
 8007a76:	3301      	adds	r3, #1
 8007a78:	2b08      	cmp	r3, #8
 8007a7a:	d1ee      	bne.n	8007a5a <SHA224Final+0x8>
 8007a7c:	6cfb      	ldr	r3, [r7, #76]	; 0x4c
 8007a7e:	6d3d      	ldr	r5, [r7, #80]	; 0x50
 8007a80:	2400      	movs	r4, #0
 8007a82:	431c      	orrs	r4, r3
 8007a84:	08e2      	lsrs	r2, r4, #3
 8007a86:	ea42 7245 	orr.w	r2, r2, r5, lsl #29
 8007a8a:	08eb      	lsrs	r3, r5, #3
 8007a8c:	243f      	movs	r4, #63	; 0x3f
 8007a8e:	2500      	movs	r5, #0
 8007a90:	4014      	ands	r4, r2
 8007a92:	401d      	ands	r5, r3
 8007a94:	2d00      	cmp	r5, #0
 8007a96:	bf08      	it	eq
 8007a98:	2c38      	cmpeq	r4, #56	; 0x38
 8007a9a:	443c      	add	r4, r7
 8007a9c:	f04f 0380 	mov.w	r3, #128	; 0x80
 8007aa0:	f002 023f 	and.w	r2, r2, #63	; 0x3f
 8007aa4:	7323      	strb	r3, [r4, #12]
 8007aa6:	f102 0201 	add.w	r2, r2, #1
 8007aaa:	d214      	bcs.n	8007ad6 <SHA224Final+0x84>
 8007aac:	2a37      	cmp	r2, #55	; 0x37
 8007aae:	f04f 0300 	mov.w	r3, #0
 8007ab2:	dc03      	bgt.n	8007abc <SHA224Final+0x6a>
 8007ab4:	18b9      	adds	r1, r7, r2
 8007ab6:	3201      	adds	r2, #1
 8007ab8:	730b      	strb	r3, [r1, #12]
 8007aba:	e7f7      	b.n	8007aac <SHA224Final+0x5a>
 8007abc:	18fa      	adds	r2, r7, r3
 8007abe:	f81d 1003 	ldrb.w	r1, [sp, r3]
 8007ac2:	f882 1044 	strb.w	r1, [r2, #68]	; 0x44
 8007ac6:	3301      	adds	r3, #1
 8007ac8:	2b08      	cmp	r3, #8
 8007aca:	d1f7      	bne.n	8007abc <SHA224Final+0x6a>
 8007acc:	f107 0054 	add.w	r0, r7, #84	; 0x54
 8007ad0:	f107 010c 	add.w	r1, r7, #12
 8007ad4:	e01f      	b.n	8007b16 <SHA224Final+0xc4>
 8007ad6:	2a40      	cmp	r2, #64	; 0x40
 8007ad8:	d004      	beq.n	8007ae4 <SHA224Final+0x92>
 8007ada:	18bb      	adds	r3, r7, r2
 8007adc:	2100      	movs	r1, #0
 8007ade:	7319      	strb	r1, [r3, #12]
 8007ae0:	3201      	adds	r2, #1
 8007ae2:	e7f8      	b.n	8007ad6 <SHA224Final+0x84>
 8007ae4:	f107 0554 	add.w	r5, r7, #84	; 0x54
 8007ae8:	f107 040c 	add.w	r4, r7, #12
 8007aec:	4628      	mov	r0, r5
 8007aee:	4621      	mov	r1, r4
 8007af0:	f7fa fefa 	bl	80028e8 <SHA256Transform>
 8007af4:	2200      	movs	r2, #0
 8007af6:	18b9      	adds	r1, r7, r2
 8007af8:	3201      	adds	r2, #1
 8007afa:	2300      	movs	r3, #0
 8007afc:	2a38      	cmp	r2, #56	; 0x38
 8007afe:	730b      	strb	r3, [r1, #12]
 8007b00:	d1f9      	bne.n	8007af6 <SHA224Final+0xa4>
 8007b02:	18fa      	adds	r2, r7, r3
 8007b04:	f81d 1003 	ldrb.w	r1, [sp, r3]
 8007b08:	f882 1044 	strb.w	r1, [r2, #68]	; 0x44
 8007b0c:	3301      	adds	r3, #1
 8007b0e:	2b08      	cmp	r3, #8
 8007b10:	d1f7      	bne.n	8007b02 <SHA224Final+0xb0>
 8007b12:	4628      	mov	r0, r5
 8007b14:	4621      	mov	r1, r4
 8007b16:	f7fa fee7 	bl	80028e8 <SHA256Transform>
 8007b1a:	2300      	movs	r3, #0
 8007b1c:	18fa      	adds	r2, r7, r3
 8007b1e:	6d52      	ldr	r2, [r2, #84]	; 0x54
 8007b20:	ba12      	rev	r2, r2
 8007b22:	50f2      	str	r2, [r6, r3]
 8007b24:	3304      	adds	r3, #4
 8007b26:	2b1c      	cmp	r3, #28
 8007b28:	d1f8      	bne.n	8007b1c <SHA224Final+0xca>
 8007b2a:	f107 000c 	add.w	r0, r7, #12
 8007b2e:	2100      	movs	r1, #0
 8007b30:	2240      	movs	r2, #64	; 0x40
 8007b32:	f006 ff06 	bl	800e942 <memset>
 8007b36:	f107 0054 	add.w	r0, r7, #84	; 0x54
 8007b3a:	2100      	movs	r1, #0
 8007b3c:	2220      	movs	r2, #32
 8007b3e:	f006 ff00 	bl	800e942 <memset>
 8007b42:	f107 004c 	add.w	r0, r7, #76	; 0x4c
 8007b46:	2100      	movs	r1, #0
 8007b48:	2208      	movs	r2, #8
 8007b4a:	f006 fefa 	bl	800e942 <memset>
 8007b4e:	b003      	add	sp, #12
 8007b50:	bdf0      	pop	{r4, r5, r6, r7, pc}

08007b52 <SHA224_Finish>:
 8007b52:	b5f0      	push	{r4, r5, r6, r7, lr}
 8007b54:	460d      	mov	r5, r1
 8007b56:	b089      	sub	sp, #36	; 0x24
 8007b58:	4616      	mov	r6, r2
 8007b5a:	4604      	mov	r4, r0
 8007b5c:	b1c0      	cbz	r0, 8007b90 <SHA224_Finish+0x3e>
 8007b5e:	b1b9      	cbz	r1, 8007b90 <SHA224_Finish+0x3e>
 8007b60:	b1b2      	cbz	r2, 8007b90 <SHA224_Finish+0x3e>
 8007b62:	6883      	ldr	r3, [r0, #8]
 8007b64:	3b01      	subs	r3, #1
 8007b66:	2b1b      	cmp	r3, #27
 8007b68:	d815      	bhi.n	8007b96 <SHA224_Finish+0x44>
 8007b6a:	7903      	ldrb	r3, [r0, #4]
 8007b6c:	af01      	add	r7, sp, #4
 8007b6e:	f043 0304 	orr.w	r3, r3, #4
 8007b72:	7103      	strb	r3, [r0, #4]
 8007b74:	4639      	mov	r1, r7
 8007b76:	f7ff ff6c 	bl	8007a52 <SHA224Final>
 8007b7a:	2300      	movs	r3, #0
 8007b7c:	68a2      	ldr	r2, [r4, #8]
 8007b7e:	4293      	cmp	r3, r2
 8007b80:	da03      	bge.n	8007b8a <SHA224_Finish+0x38>
 8007b82:	5cfa      	ldrb	r2, [r7, r3]
 8007b84:	54ea      	strb	r2, [r5, r3]
 8007b86:	3301      	adds	r3, #1
 8007b88:	e7f8      	b.n	8007b7c <SHA224_Finish+0x2a>
 8007b8a:	6032      	str	r2, [r6, #0]
 8007b8c:	2000      	movs	r0, #0
 8007b8e:	e004      	b.n	8007b9a <SHA224_Finish+0x48>
 8007b90:	f640 70a3 	movw	r0, #4003	; 0xfa3
 8007b94:	e001      	b.n	8007b9a <SHA224_Finish+0x48>
 8007b96:	f640 70a2 	movw	r0, #4002	; 0xfa2
 8007b9a:	b009      	add	sp, #36	; 0x24
 8007b9c:	bdf0      	pop	{r4, r5, r6, r7, pc}

08007b9e <HMAC_SHA224_Init>:
 8007b9e:	b573      	push	{r0, r1, r4, r5, r6, lr}
 8007ba0:	2300      	movs	r3, #0
 8007ba2:	9301      	str	r3, [sp, #4]
 8007ba4:	4604      	mov	r4, r0
 8007ba6:	2800      	cmp	r0, #0
 8007ba8:	d05d      	beq.n	8007c66 <HMAC_SHA224_Init+0xc8>
 8007baa:	68c1      	ldr	r1, [r0, #12]
 8007bac:	b911      	cbnz	r1, 8007bb4 <HMAC_SHA224_Init+0x16>
 8007bae:	f640 70a2 	movw	r0, #4002	; 0xfa2
 8007bb2:	e05c      	b.n	8007c6e <HMAC_SHA224_Init+0xd0>
 8007bb4:	6902      	ldr	r2, [r0, #16]
 8007bb6:	f240 207e 	movw	r0, #638	; 0x27e
 8007bba:	1e55      	subs	r5, r2, #1
 8007bbc:	4285      	cmp	r5, r0
 8007bbe:	d8f6      	bhi.n	8007bae <HMAC_SHA224_Init+0x10>
 8007bc0:	7920      	ldrb	r0, [r4, #4]
 8007bc2:	2a40      	cmp	r2, #64	; 0x40
 8007bc4:	f000 00f9 	and.w	r0, r0, #249	; 0xf9
 8007bc8:	7120      	strb	r0, [r4, #4]
 8007bca:	f884 0058 	strb.w	r0, [r4, #88]	; 0x58
 8007bce:	dd18      	ble.n	8007c02 <HMAC_SHA224_Init+0x64>
 8007bd0:	221c      	movs	r2, #28
 8007bd2:	f104 0554 	add.w	r5, r4, #84	; 0x54
 8007bd6:	65e2      	str	r2, [r4, #92]	; 0x5c
 8007bd8:	f884 3058 	strb.w	r3, [r4, #88]	; 0x58
 8007bdc:	4628      	mov	r0, r5
 8007bde:	f7ff ff2b 	bl	8007a38 <SHA224_Init>
 8007be2:	68e1      	ldr	r1, [r4, #12]
 8007be4:	6922      	ldr	r2, [r4, #16]
 8007be6:	4628      	mov	r0, r5
 8007be8:	f7ff fee7 	bl	80079ba <SHA224_Append>
 8007bec:	4628      	mov	r0, r5
 8007bee:	f104 0114 	add.w	r1, r4, #20
 8007bf2:	aa01      	add	r2, sp, #4
 8007bf4:	f7ff ffad 	bl	8007b52 <SHA224_Finish>
 8007bf8:	2800      	cmp	r0, #0
 8007bfa:	d1d8      	bne.n	8007bae <HMAC_SHA224_Init+0x10>
 8007bfc:	9a01      	ldr	r2, [sp, #4]
 8007bfe:	4623      	mov	r3, r4
 8007c00:	e008      	b.n	8007c14 <HMAC_SHA224_Init+0x76>
 8007c02:	9b01      	ldr	r3, [sp, #4]
 8007c04:	4293      	cmp	r3, r2
 8007c06:	daf9      	bge.n	8007bfc <HMAC_SHA224_Init+0x5e>
 8007c08:	18e0      	adds	r0, r4, r3
 8007c0a:	5ccd      	ldrb	r5, [r1, r3]
 8007c0c:	7505      	strb	r5, [r0, #20]
 8007c0e:	3301      	adds	r3, #1
 8007c10:	9301      	str	r3, [sp, #4]
 8007c12:	e7f6      	b.n	8007c02 <HMAC_SHA224_Init+0x64>
 8007c14:	1b19      	subs	r1, r3, r4
 8007c16:	4291      	cmp	r1, r2
 8007c18:	da05      	bge.n	8007c26 <HMAC_SHA224_Init+0x88>
 8007c1a:	7d19      	ldrb	r1, [r3, #20]
 8007c1c:	f081 0136 	eor.w	r1, r1, #54	; 0x36
 8007c20:	7519      	strb	r1, [r3, #20]
 8007c22:	3301      	adds	r3, #1
 8007c24:	e7f6      	b.n	8007c14 <HMAC_SHA224_Init+0x76>
 8007c26:	ea22 73e2 	bic.w	r3, r2, r2, asr #31
 8007c2a:	2b3f      	cmp	r3, #63	; 0x3f
 8007c2c:	dc04      	bgt.n	8007c38 <HMAC_SHA224_Init+0x9a>
 8007c2e:	18e2      	adds	r2, r4, r3
 8007c30:	2136      	movs	r1, #54	; 0x36
 8007c32:	7511      	strb	r1, [r2, #20]
 8007c34:	3301      	adds	r3, #1
 8007c36:	e7f8      	b.n	8007c2a <HMAC_SHA224_Init+0x8c>
 8007c38:	f104 0654 	add.w	r6, r4, #84	; 0x54
 8007c3c:	2500      	movs	r5, #0
 8007c3e:	f884 5058 	strb.w	r5, [r4, #88]	; 0x58
 8007c42:	4630      	mov	r0, r6
 8007c44:	3414      	adds	r4, #20
 8007c46:	f7ff fef7 	bl	8007a38 <SHA224_Init>
 8007c4a:	4630      	mov	r0, r6
 8007c4c:	4621      	mov	r1, r4
 8007c4e:	2240      	movs	r2, #64	; 0x40
 8007c50:	f7ff feb3 	bl	80079ba <SHA224_Append>
 8007c54:	462b      	mov	r3, r5
 8007c56:	58e2      	ldr	r2, [r4, r3]
 8007c58:	f082 326a 	eor.w	r2, r2, #1785358954	; 0x6a6a6a6a
 8007c5c:	50e2      	str	r2, [r4, r3]
 8007c5e:	3304      	adds	r3, #4
 8007c60:	2b40      	cmp	r3, #64	; 0x40
 8007c62:	d1f8      	bne.n	8007c56 <HMAC_SHA224_Init+0xb8>
 8007c64:	e002      	b.n	8007c6c <HMAC_SHA224_Init+0xce>
 8007c66:	f640 70a3 	movw	r0, #4003	; 0xfa3
 8007c6a:	e000      	b.n	8007c6e <HMAC_SHA224_Init+0xd0>
 8007c6c:	2000      	movs	r0, #0
 8007c6e:	b002      	add	sp, #8
 8007c70:	bd70      	pop	{r4, r5, r6, pc}

08007c72 <HMAC_SHA224_Append>:
 8007c72:	b110      	cbz	r0, 8007c7a <HMAC_SHA224_Append+0x8>
 8007c74:	3054      	adds	r0, #84	; 0x54
 8007c76:	f7ff bea0 	b.w	80079ba <SHA224_Append>
 8007c7a:	f640 70a3 	movw	r0, #4003	; 0xfa3
 8007c7e:	4770      	bx	lr

08007c80 <HMAC_SHA224_Finish>:
 8007c80:	e92d 41f0 	stmdb	sp!, {r4, r5, r6, r7, r8, lr}
 8007c84:	261c      	movs	r6, #28
 8007c86:	b088      	sub	sp, #32
 8007c88:	4604      	mov	r4, r0
 8007c8a:	4688      	mov	r8, r1
 8007c8c:	4617      	mov	r7, r2
 8007c8e:	a801      	add	r0, sp, #4
 8007c90:	2100      	movs	r1, #0
 8007c92:	4632      	mov	r2, r6
 8007c94:	f006 fe55 	bl	800e942 <memset>
 8007c98:	b1f4      	cbz	r4, 8007cd8 <HMAC_SHA224_Finish+0x58>
 8007c9a:	f104 0554 	add.w	r5, r4, #84	; 0x54
 8007c9e:	65e6      	str	r6, [r4, #92]	; 0x5c
 8007ca0:	4628      	mov	r0, r5
 8007ca2:	a901      	add	r1, sp, #4
 8007ca4:	466a      	mov	r2, sp
 8007ca6:	f7ff ff54 	bl	8007b52 <SHA224_Finish>
 8007caa:	b9b8      	cbnz	r0, 8007cdc <HMAC_SHA224_Finish+0x5c>
 8007cac:	4628      	mov	r0, r5
 8007cae:	f7ff fec3 	bl	8007a38 <SHA224_Init>
 8007cb2:	f104 0114 	add.w	r1, r4, #20
 8007cb6:	4628      	mov	r0, r5
 8007cb8:	2240      	movs	r2, #64	; 0x40
 8007cba:	f7ff fe7e 	bl	80079ba <SHA224_Append>
 8007cbe:	a901      	add	r1, sp, #4
 8007cc0:	4632      	mov	r2, r6
 8007cc2:	4628      	mov	r0, r5
 8007cc4:	f7ff fe79 	bl	80079ba <SHA224_Append>
 8007cc8:	68a3      	ldr	r3, [r4, #8]
 8007cca:	65e3      	str	r3, [r4, #92]	; 0x5c
 8007ccc:	4628      	mov	r0, r5
 8007cce:	4641      	mov	r1, r8
 8007cd0:	463a      	mov	r2, r7
 8007cd2:	f7ff ff3e 	bl	8007b52 <SHA224_Finish>
 8007cd6:	e001      	b.n	8007cdc <HMAC_SHA224_Finish+0x5c>
 8007cd8:	f640 70a3 	movw	r0, #4003	; 0xfa3
 8007cdc:	b008      	add	sp, #32
 8007cde:	e8bd 81f0 	ldmia.w	sp!, {r4, r5, r6, r7, r8, pc}

08007ce2 <SHA256_Append>:
 8007ce2:	b538      	push	{r3, r4, r5, lr}
 8007ce4:	b178      	cbz	r0, 8007d06 <SHA256_Append+0x24>
 8007ce6:	b171      	cbz	r1, 8007d06 <SHA256_Append+0x24>
 8007ce8:	2a00      	cmp	r2, #0
 8007cea:	db0c      	blt.n	8007d06 <SHA256_Append+0x24>
 8007cec:	7903      	ldrb	r3, [r0, #4]
 8007cee:	f003 0304 	and.w	r3, r3, #4
 8007cf2:	f003 04ff 	and.w	r4, r3, #255	; 0xff
 8007cf6:	b91b      	cbnz	r3, 8007d00 <SHA256_Append+0x1e>
 8007cf8:	f7ff fe15 	bl	8007926 <SHA256Update>
 8007cfc:	4620      	mov	r0, r4
 8007cfe:	bd38      	pop	{r3, r4, r5, pc}
 8007d00:	f640 70a1 	movw	r0, #4001	; 0xfa1
 8007d04:	bd38      	pop	{r3, r4, r5, pc}
 8007d06:	f640 70a3 	movw	r0, #4003	; 0xfa3
 8007d0a:	bd38      	pop	{r3, r4, r5, pc}

08007d0c <SHA256Init>:
 8007d0c:	4b0c      	ldr	r3, [pc, #48]	; (8007d40 <SHA256Init+0x34>)
 8007d0e:	6543      	str	r3, [r0, #84]	; 0x54
 8007d10:	4b0c      	ldr	r3, [pc, #48]	; (8007d44 <SHA256Init+0x38>)
 8007d12:	6583      	str	r3, [r0, #88]	; 0x58
 8007d14:	4b0c      	ldr	r3, [pc, #48]	; (8007d48 <SHA256Init+0x3c>)
 8007d16:	65c3      	str	r3, [r0, #92]	; 0x5c
 8007d18:	4b0c      	ldr	r3, [pc, #48]	; (8007d4c <SHA256Init+0x40>)
 8007d1a:	6603      	str	r3, [r0, #96]	; 0x60
 8007d1c:	4b0c      	ldr	r3, [pc, #48]	; (8007d50 <SHA256Init+0x44>)
 8007d1e:	6643      	str	r3, [r0, #100]	; 0x64
 8007d20:	4b0c      	ldr	r3, [pc, #48]	; (8007d54 <SHA256Init+0x48>)
 8007d22:	6683      	str	r3, [r0, #104]	; 0x68
 8007d24:	4b0c      	ldr	r3, [pc, #48]	; (8007d58 <SHA256Init+0x4c>)
 8007d26:	66c3      	str	r3, [r0, #108]	; 0x6c
 8007d28:	f103 5374 	add.w	r3, r3, #1023410176	; 0x3d000000
 8007d2c:	f5a3 0323 	sub.w	r3, r3, #10682368	; 0xa30000
 8007d30:	f6a3 4392 	subw	r3, r3, #3218	; 0xc92
 8007d34:	6703      	str	r3, [r0, #112]	; 0x70
 8007d36:	2300      	movs	r3, #0
 8007d38:	64c3      	str	r3, [r0, #76]	; 0x4c
 8007d3a:	6503      	str	r3, [r0, #80]	; 0x50
 8007d3c:	4770      	bx	lr
 8007d3e:	bf00      	nop
 8007d40:	6a09e667 	.word	0x6a09e667
 8007d44:	bb67ae85 	.word	0xbb67ae85
 8007d48:	3c6ef372 	.word	0x3c6ef372
 8007d4c:	a54ff53a 	.word	0xa54ff53a
 8007d50:	510e527f 	.word	0x510e527f
 8007d54:	9b05688c 	.word	0x9b05688c
 8007d58:	1f83d9ab 	.word	0x1f83d9ab

08007d5c <SHA256_Init>:
 8007d5c:	b508      	push	{r3, lr}
 8007d5e:	b138      	cbz	r0, 8007d70 <SHA256_Init+0x14>
 8007d60:	7902      	ldrb	r2, [r0, #4]
 8007d62:	f022 0206 	bic.w	r2, r2, #6
 8007d66:	7102      	strb	r2, [r0, #4]
 8007d68:	f7ff ffd0 	bl	8007d0c <SHA256Init>
 8007d6c:	2000      	movs	r0, #0
 8007d6e:	bd08      	pop	{r3, pc}
 8007d70:	f640 70a3 	movw	r0, #4003	; 0xfa3
 8007d74:	bd08      	pop	{r3, pc}

08007d76 <SHA256Final>:
 8007d76:	b5f7      	push	{r0, r1, r2, r4, r5, r6, r7, lr}
 8007d78:	2300      	movs	r3, #0
 8007d7a:	4607      	mov	r7, r0
 8007d7c:	460e      	mov	r6, r1
 8007d7e:	2b03      	cmp	r3, #3
 8007d80:	bfd4      	ite	le
 8007d82:	214c      	movle	r1, #76	; 0x4c
 8007d84:	2148      	movgt	r1, #72	; 0x48
 8007d86:	4439      	add	r1, r7
 8007d88:	43da      	mvns	r2, r3
 8007d8a:	f002 0203 	and.w	r2, r2, #3
 8007d8e:	6849      	ldr	r1, [r1, #4]
 8007d90:	00d2      	lsls	r2, r2, #3
 8007d92:	fa21 f202 	lsr.w	r2, r1, r2
 8007d96:	f80d 2003 	strb.w	r2, [sp, r3]
 8007d9a:	3301      	adds	r3, #1
 8007d9c:	2b08      	cmp	r3, #8
 8007d9e:	d1ee      	bne.n	8007d7e <SHA256Final+0x8>
 8007da0:	6cfb      	ldr	r3, [r7, #76]	; 0x4c
 8007da2:	6d3d      	ldr	r5, [r7, #80]	; 0x50
 8007da4:	2400      	movs	r4, #0
 8007da6:	431c      	orrs	r4, r3
 8007da8:	08e2      	lsrs	r2, r4, #3
 8007daa:	ea42 7245 	orr.w	r2, r2, r5, lsl #29
 8007dae:	08eb      	lsrs	r3, r5, #3
 8007db0:	243f      	movs	r4, #63	; 0x3f
 8007db2:	2500      	movs	r5, #0
 8007db4:	4014      	ands	r4, r2
 8007db6:	401d      	ands	r5, r3
 8007db8:	2d00      	cmp	r5, #0
 8007dba:	bf08      	it	eq
 8007dbc:	2c38      	cmpeq	r4, #56	; 0x38
 8007dbe:	443c      	add	r4, r7
 8007dc0:	f04f 0380 	mov.w	r3, #128	; 0x80
 8007dc4:	f002 023f 	and.w	r2, r2, #63	; 0x3f
 8007dc8:	7323      	strb	r3, [r4, #12]
 8007dca:	f102 0201 	add.w	r2, r2, #1
 8007dce:	d214      	bcs.n	8007dfa <SHA256Final+0x84>
 8007dd0:	2a37      	cmp	r2, #55	; 0x37
 8007dd2:	f04f 0300 	mov.w	r3, #0
 8007dd6:	dc03      	bgt.n	8007de0 <SHA256Final+0x6a>
 8007dd8:	18b9      	adds	r1, r7, r2
 8007dda:	3201      	adds	r2, #1
 8007ddc:	730b      	strb	r3, [r1, #12]
 8007dde:	e7f7      	b.n	8007dd0 <SHA256Final+0x5a>
 8007de0:	18fa      	adds	r2, r7, r3
 8007de2:	f81d 1003 	ldrb.w	r1, [sp, r3]
 8007de6:	f882 1044 	strb.w	r1, [r2, #68]	; 0x44
 8007dea:	3301      	adds	r3, #1
 8007dec:	2b08      	cmp	r3, #8
 8007dee:	d1f7      	bne.n	8007de0 <SHA256Final+0x6a>
 8007df0:	f107 0054 	add.w	r0, r7, #84	; 0x54
 8007df4:	f107 010c 	add.w	r1, r7, #12
 8007df8:	e01f      	b.n	8007e3a <SHA256Final+0xc4>
 8007dfa:	2a40      	cmp	r2, #64	; 0x40
 8007dfc:	d004      	beq.n	8007e08 <SHA256Final+0x92>
 8007dfe:	18bb      	adds	r3, r7, r2
 8007e00:	2100      	movs	r1, #0
 8007e02:	7319      	strb	r1, [r3, #12]
 8007e04:	3201      	adds	r2, #1
 8007e06:	e7f8      	b.n	8007dfa <SHA256Final+0x84>
 8007e08:	f107 0554 	add.w	r5, r7, #84	; 0x54
 8007e0c:	f107 040c 	add.w	r4, r7, #12
 8007e10:	4628      	mov	r0, r5
 8007e12:	4621      	mov	r1, r4
 8007e14:	f7fa fd68 	bl	80028e8 <SHA256Transform>
 8007e18:	2200      	movs	r2, #0
 8007e1a:	18b9      	adds	r1, r7, r2
 8007e1c:	3201      	adds	r2, #1
 8007e1e:	2300      	movs	r3, #0
 8007e20:	2a38      	cmp	r2, #56	; 0x38
 8007e22:	730b      	strb	r3, [r1, #12]
 8007e24:	d1f9      	bne.n	8007e1a <SHA256Final+0xa4>
 8007e26:	18fa      	adds	r2, r7, r3
 8007e28:	f81d 1003 	ldrb.w	r1, [sp, r3]
 8007e2c:	f882 1044 	strb.w	r1, [r2, #68]	; 0x44
 8007e30:	3301      	adds	r3, #1
 8007e32:	2b08      	cmp	r3, #8
 8007e34:	d1f7      	bne.n	8007e26 <SHA256Final+0xb0>
 8007e36:	4628      	mov	r0, r5
 8007e38:	4621      	mov	r1, r4
 8007e3a:	f7fa fd55 	bl	80028e8 <SHA256Transform>
 8007e3e:	2400      	movs	r4, #0
 8007e40:	193b      	adds	r3, r7, r4
 8007e42:	6d5b      	ldr	r3, [r3, #84]	; 0x54
 8007e44:	ba1b      	rev	r3, r3
 8007e46:	5133      	str	r3, [r6, r4]
 8007e48:	3404      	adds	r4, #4
 8007e4a:	2c20      	cmp	r4, #32
 8007e4c:	d1f8      	bne.n	8007e40 <SHA256Final+0xca>
 8007e4e:	f107 000c 	add.w	r0, r7, #12
 8007e52:	2100      	movs	r1, #0
 8007e54:	2240      	movs	r2, #64	; 0x40
 8007e56:	f006 fd74 	bl	800e942 <memset>
 8007e5a:	4622      	mov	r2, r4
 8007e5c:	f107 0054 	add.w	r0, r7, #84	; 0x54
 8007e60:	2100      	movs	r1, #0
 8007e62:	f006 fd6e 	bl	800e942 <memset>
 8007e66:	f107 004c 	add.w	r0, r7, #76	; 0x4c
 8007e6a:	2100      	movs	r1, #0
 8007e6c:	2208      	movs	r2, #8
 8007e6e:	f006 fd68 	bl	800e942 <memset>
 8007e72:	b003      	add	sp, #12
 8007e74:	bdf0      	pop	{r4, r5, r6, r7, pc}

08007e76 <SHA256_Finish>:
 8007e76:	b570      	push	{r4, r5, r6, lr}
 8007e78:	460d      	mov	r5, r1
 8007e7a:	b088      	sub	sp, #32
 8007e7c:	4616      	mov	r6, r2
 8007e7e:	4604      	mov	r4, r0
 8007e80:	b1c0      	cbz	r0, 8007eb4 <SHA256_Finish+0x3e>
 8007e82:	b1b9      	cbz	r1, 8007eb4 <SHA256_Finish+0x3e>
 8007e84:	b1b2      	cbz	r2, 8007eb4 <SHA256_Finish+0x3e>
 8007e86:	6883      	ldr	r3, [r0, #8]
 8007e88:	3b01      	subs	r3, #1
 8007e8a:	2b1f      	cmp	r3, #31
 8007e8c:	d815      	bhi.n	8007eba <SHA256_Finish+0x44>
 8007e8e:	7903      	ldrb	r3, [r0, #4]
 8007e90:	f043 0304 	orr.w	r3, r3, #4
 8007e94:	7103      	strb	r3, [r0, #4]
 8007e96:	4669      	mov	r1, sp
 8007e98:	f7ff ff6d 	bl	8007d76 <SHA256Final>
 8007e9c:	2300      	movs	r3, #0
 8007e9e:	68a2      	ldr	r2, [r4, #8]
 8007ea0:	4293      	cmp	r3, r2
 8007ea2:	da04      	bge.n	8007eae <SHA256_Finish+0x38>
 8007ea4:	f81d 2003 	ldrb.w	r2, [sp, r3]
 8007ea8:	54ea      	strb	r2, [r5, r3]
 8007eaa:	3301      	adds	r3, #1
 8007eac:	e7f7      	b.n	8007e9e <SHA256_Finish+0x28>
 8007eae:	6032      	str	r2, [r6, #0]
 8007eb0:	2000      	movs	r0, #0
 8007eb2:	e004      	b.n	8007ebe <SHA256_Finish+0x48>
 8007eb4:	f640 70a3 	movw	r0, #4003	; 0xfa3
 8007eb8:	e001      	b.n	8007ebe <SHA256_Finish+0x48>
 8007eba:	f640 70a2 	movw	r0, #4002	; 0xfa2
 8007ebe:	b008      	add	sp, #32
 8007ec0:	bd70      	pop	{r4, r5, r6, pc}

08007ec2 <HMAC_SHA256_Init>:
 8007ec2:	b573      	push	{r0, r1, r4, r5, r6, lr}
 8007ec4:	2300      	movs	r3, #0
 8007ec6:	9301      	str	r3, [sp, #4]
 8007ec8:	4604      	mov	r4, r0
 8007eca:	2800      	cmp	r0, #0
 8007ecc:	d05d      	beq.n	8007f8a <HMAC_SHA256_Init+0xc8>
 8007ece:	68c1      	ldr	r1, [r0, #12]
 8007ed0:	b911      	cbnz	r1, 8007ed8 <HMAC_SHA256_Init+0x16>
 8007ed2:	f640 70a2 	movw	r0, #4002	; 0xfa2
 8007ed6:	e05c      	b.n	8007f92 <HMAC_SHA256_Init+0xd0>
 8007ed8:	6902      	ldr	r2, [r0, #16]
 8007eda:	f240 207e 	movw	r0, #638	; 0x27e
 8007ede:	1e55      	subs	r5, r2, #1
 8007ee0:	4285      	cmp	r5, r0
 8007ee2:	d8f6      	bhi.n	8007ed2 <HMAC_SHA256_Init+0x10>
 8007ee4:	7920      	ldrb	r0, [r4, #4]
 8007ee6:	2a40      	cmp	r2, #64	; 0x40
 8007ee8:	f000 00f9 	and.w	r0, r0, #249	; 0xf9
 8007eec:	7120      	strb	r0, [r4, #4]
 8007eee:	f884 0058 	strb.w	r0, [r4, #88]	; 0x58
 8007ef2:	dd18      	ble.n	8007f26 <HMAC_SHA256_Init+0x64>
 8007ef4:	2220      	movs	r2, #32
 8007ef6:	f104 0554 	add.w	r5, r4, #84	; 0x54
 8007efa:	65e2      	str	r2, [r4, #92]	; 0x5c
 8007efc:	f884 3058 	strb.w	r3, [r4, #88]	; 0x58
 8007f00:	4628      	mov	r0, r5
 8007f02:	f7ff ff2b 	bl	8007d5c <SHA256_Init>
 8007f06:	68e1      	ldr	r1, [r4, #12]
 8007f08:	6922      	ldr	r2, [r4, #16]
 8007f0a:	4628      	mov	r0, r5
 8007f0c:	f7ff fee9 	bl	8007ce2 <SHA256_Append>
 8007f10:	4628      	mov	r0, r5
 8007f12:	f104 0114 	add.w	r1, r4, #20
 8007f16:	aa01      	add	r2, sp, #4
 8007f18:	f7ff ffad 	bl	8007e76 <SHA256_Finish>
 8007f1c:	2800      	cmp	r0, #0
 8007f1e:	d1d8      	bne.n	8007ed2 <HMAC_SHA256_Init+0x10>
 8007f20:	9a01      	ldr	r2, [sp, #4]
 8007f22:	4623      	mov	r3, r4
 8007f24:	e008      	b.n	8007f38 <HMAC_SHA256_Init+0x76>
 8007f26:	9b01      	ldr	r3, [sp, #4]
 8007f28:	4293      	cmp	r3, r2
 8007f2a:	daf9      	bge.n	8007f20 <HMAC_SHA256_Init+0x5e>
 8007f2c:	18e0      	adds	r0, r4, r3
 8007f2e:	5ccd      	ldrb	r5, [r1, r3]
 8007f30:	7505      	strb	r5, [r0, #20]
 8007f32:	3301      	adds	r3, #1
 8007f34:	9301      	str	r3, [sp, #4]
 8007f36:	e7f6      	b.n	8007f26 <HMAC_SHA256_Init+0x64>
 8007f38:	1b19      	subs	r1, r3, r4
 8007f3a:	4291      	cmp	r1, r2
 8007f3c:	da05      	bge.n	8007f4a <HMAC_SHA256_Init+0x88>
 8007f3e:	7d19      	ldrb	r1, [r3, #20]
 8007f40:	f081 0136 	eor.w	r1, r1, #54	; 0x36
 8007f44:	7519      	strb	r1, [r3, #20]
 8007f46:	3301      	adds	r3, #1
 8007f48:	e7f6      	b.n	8007f38 <HMAC_SHA256_Init+0x76>
 8007f4a:	ea22 73e2 	bic.w	r3, r2, r2, asr #31
 8007f4e:	2b3f      	cmp	r3, #63	; 0x3f
 8007f50:	dc04      	bgt.n	8007f5c <HMAC_SHA256_Init+0x9a>
 8007f52:	18e2      	adds	r2, r4, r3
 8007f54:	2136      	movs	r1, #54	; 0x36
 8007f56:	7511      	strb	r1, [r2, #20]
 8007f58:	3301      	adds	r3, #1
 8007f5a:	e7f8      	b.n	8007f4e <HMAC_SHA256_Init+0x8c>
 8007f5c:	f104 0654 	add.w	r6, r4, #84	; 0x54
 8007f60:	2500      	movs	r5, #0
 8007f62:	f884 5058 	strb.w	r5, [r4, #88]	; 0x58
 8007f66:	4630      	mov	r0, r6
 8007f68:	3414      	adds	r4, #20
 8007f6a:	f7ff fef7 	bl	8007d5c <SHA256_Init>
 8007f6e:	4630      	mov	r0, r6
 8007f70:	4621      	mov	r1, r4
 8007f72:	2240      	movs	r2, #64	; 0x40
 8007f74:	f7ff feb5 	bl	8007ce2 <SHA256_Append>
 8007f78:	462b      	mov	r3, r5
 8007f7a:	58e2      	ldr	r2, [r4, r3]
 8007f7c:	f082 326a 	eor.w	r2, r2, #1785358954	; 0x6a6a6a6a
 8007f80:	50e2      	str	r2, [r4, r3]
 8007f82:	3304      	adds	r3, #4
 8007f84:	2b40      	cmp	r3, #64	; 0x40
 8007f86:	d1f8      	bne.n	8007f7a <HMAC_SHA256_Init+0xb8>
 8007f88:	e002      	b.n	8007f90 <HMAC_SHA256_Init+0xce>
 8007f8a:	f640 70a3 	movw	r0, #4003	; 0xfa3
 8007f8e:	e000      	b.n	8007f92 <HMAC_SHA256_Init+0xd0>
 8007f90:	2000      	movs	r0, #0
 8007f92:	b002      	add	sp, #8
 8007f94:	bd70      	pop	{r4, r5, r6, pc}

08007f96 <HMAC_SHA256_Append>:
 8007f96:	b110      	cbz	r0, 8007f9e <HMAC_SHA256_Append+0x8>
 8007f98:	3054      	adds	r0, #84	; 0x54
 8007f9a:	f7ff bea2 	b.w	8007ce2 <SHA256_Append>
 8007f9e:	f640 70a3 	movw	r0, #4003	; 0xfa3
 8007fa2:	4770      	bx	lr

08007fa4 <HMAC_SHA256_Finish>:
 8007fa4:	e92d 41f0 	stmdb	sp!, {r4, r5, r6, r7, r8, lr}
 8007fa8:	2620      	movs	r6, #32
 8007faa:	b08a      	sub	sp, #40	; 0x28
 8007fac:	4604      	mov	r4, r0
 8007fae:	4688      	mov	r8, r1
 8007fb0:	4617      	mov	r7, r2
 8007fb2:	a802      	add	r0, sp, #8
 8007fb4:	2100      	movs	r1, #0
 8007fb6:	4632      	mov	r2, r6
 8007fb8:	f006 fcc3 	bl	800e942 <memset>
 8007fbc:	b1f4      	cbz	r4, 8007ffc <HMAC_SHA256_Finish+0x58>
 8007fbe:	f104 0554 	add.w	r5, r4, #84	; 0x54
 8007fc2:	65e6      	str	r6, [r4, #92]	; 0x5c
 8007fc4:	4628      	mov	r0, r5
 8007fc6:	a902      	add	r1, sp, #8
 8007fc8:	aa01      	add	r2, sp, #4
 8007fca:	f7ff ff54 	bl	8007e76 <SHA256_Finish>
 8007fce:	b9b8      	cbnz	r0, 8008000 <HMAC_SHA256_Finish+0x5c>
 8007fd0:	4628      	mov	r0, r5
 8007fd2:	f7ff fec3 	bl	8007d5c <SHA256_Init>
 8007fd6:	f104 0114 	add.w	r1, r4, #20
 8007fda:	4628      	mov	r0, r5
 8007fdc:	2240      	movs	r2, #64	; 0x40
 8007fde:	f7ff fe80 	bl	8007ce2 <SHA256_Append>
 8007fe2:	a902      	add	r1, sp, #8
 8007fe4:	4632      	mov	r2, r6
 8007fe6:	4628      	mov	r0, r5
 8007fe8:	f7ff fe7b 	bl	8007ce2 <SHA256_Append>
 8007fec:	68a3      	ldr	r3, [r4, #8]
 8007fee:	65e3      	str	r3, [r4, #92]	; 0x5c
 8007ff0:	4628      	mov	r0, r5
 8007ff2:	4641      	mov	r1, r8
 8007ff4:	463a      	mov	r2, r7
 8007ff6:	f7ff ff3e 	bl	8007e76 <SHA256_Finish>
 8007ffa:	e001      	b.n	8008000 <HMAC_SHA256_Finish+0x5c>
 8007ffc:	f640 70a3 	movw	r0, #4003	; 0xfa3
 8008000:	b00a      	add	sp, #40	; 0x28
 8008002:	e8bd 81f0 	ldmia.w	sp!, {r4, r5, r6, r7, r8, pc}

08008006 <SHA512Update>:
 8008006:	e92d 43f8 	stmdb	sp!, {r3, r4, r5, r6, r7, r8, r9, lr}
 800800a:	4616      	mov	r6, r2
 800800c:	f8d0 208c 	ldr.w	r2, [r0, #140]	; 0x8c
 8008010:	00f3      	lsls	r3, r6, #3
 8008012:	4604      	mov	r4, r0
 8008014:	f3c2 00c6 	ubfx	r0, r2, #3, #7
 8008018:	441a      	add	r2, r3
 800801a:	429a      	cmp	r2, r3
 800801c:	460f      	mov	r7, r1
 800801e:	f8c4 208c 	str.w	r2, [r4, #140]	; 0x8c
 8008022:	d204      	bcs.n	800802e <SHA512Update+0x28>
 8008024:	f8d4 3090 	ldr.w	r3, [r4, #144]	; 0x90
 8008028:	3301      	adds	r3, #1
 800802a:	f8c4 3090 	str.w	r3, [r4, #144]	; 0x90
 800802e:	f8d4 3090 	ldr.w	r3, [r4, #144]	; 0x90
 8008032:	eb03 7356 	add.w	r3, r3, r6, lsr #29
 8008036:	f8c4 3090 	str.w	r3, [r4, #144]	; 0x90
 800803a:	1833      	adds	r3, r6, r0
 800803c:	2b7f      	cmp	r3, #127	; 0x7f
 800803e:	d924      	bls.n	800808a <SHA512Update+0x84>
 8008040:	f1c0 0580 	rsb	r5, r0, #128	; 0x80
 8008044:	4420      	add	r0, r4
 8008046:	4639      	mov	r1, r7
 8008048:	300c      	adds	r0, #12
 800804a:	462a      	mov	r2, r5
 800804c:	f104 0898 	add.w	r8, r4, #152	; 0x98
 8008050:	f104 090c 	add.w	r9, r4, #12
 8008054:	f006 fc50 	bl	800e8f8 <memcpy>
 8008058:	4640      	mov	r0, r8
 800805a:	4649      	mov	r1, r9
 800805c:	f7fa fd7c 	bl	8002b58 <SHA512Transform>
 8008060:	f105 037f 	add.w	r3, r5, #127	; 0x7f
 8008064:	42b3      	cmp	r3, r6
 8008066:	d20e      	bcs.n	8008086 <SHA512Update+0x80>
 8008068:	1979      	adds	r1, r7, r5
 800806a:	078b      	lsls	r3, r1, #30
 800806c:	d001      	beq.n	8008072 <SHA512Update+0x6c>
 800806e:	4640      	mov	r0, r8
 8008070:	e005      	b.n	800807e <SHA512Update+0x78>
 8008072:	4648      	mov	r0, r9
 8008074:	2280      	movs	r2, #128	; 0x80
 8008076:	f006 fc3f 	bl	800e8f8 <memcpy>
 800807a:	4640      	mov	r0, r8
 800807c:	4649      	mov	r1, r9
 800807e:	f7fa fd6b 	bl	8002b58 <SHA512Transform>
 8008082:	3580      	adds	r5, #128	; 0x80
 8008084:	e7ec      	b.n	8008060 <SHA512Update+0x5a>
 8008086:	2000      	movs	r0, #0
 8008088:	e000      	b.n	800808c <SHA512Update+0x86>
 800808a:	2500      	movs	r5, #0
 800808c:	4420      	add	r0, r4
 800808e:	1979      	adds	r1, r7, r5
 8008090:	1b72      	subs	r2, r6, r5
 8008092:	300c      	adds	r0, #12
 8008094:	e8bd 43f8 	ldmia.w	sp!, {r3, r4, r5, r6, r7, r8, r9, lr}
 8008098:	f006 bc2e 	b.w	800e8f8 <memcpy>

0800809c <SHA384_Append>:
 800809c:	b510      	push	{r4, lr}
 800809e:	b168      	cbz	r0, 80080bc <SHA384_Append+0x20>
 80080a0:	b161      	cbz	r1, 80080bc <SHA384_Append+0x20>
 80080a2:	7903      	ldrb	r3, [r0, #4]
 80080a4:	f003 0304 	and.w	r3, r3, #4
 80080a8:	f003 04ff 	and.w	r4, r3, #255	; 0xff
 80080ac:	b91b      	cbnz	r3, 80080b6 <SHA384_Append+0x1a>
 80080ae:	f7ff ffaa 	bl	8008006 <SHA512Update>
 80080b2:	4620      	mov	r0, r4
 80080b4:	bd10      	pop	{r4, pc}
 80080b6:	f640 70a1 	movw	r0, #4001	; 0xfa1
 80080ba:	bd10      	pop	{r4, pc}
 80080bc:	f640 70a3 	movw	r0, #4003	; 0xfa3
 80080c0:	bd10      	pop	{r4, pc}

080080c2 <SHA512_Append.part.21>:
 80080c2:	7903      	ldrb	r3, [r0, #4]
 80080c4:	f003 0304 	and.w	r3, r3, #4
 80080c8:	b510      	push	{r4, lr}
 80080ca:	f003 04ff 	and.w	r4, r3, #255	; 0xff
 80080ce:	b91b      	cbnz	r3, 80080d8 <SHA512_Append.part.21+0x16>
 80080d0:	f7ff ff99 	bl	8008006 <SHA512Update>
 80080d4:	4620      	mov	r0, r4
 80080d6:	bd10      	pop	{r4, pc}
 80080d8:	f640 70a1 	movw	r0, #4001	; 0xfa1
 80080dc:	bd10      	pop	{r4, pc}
	...

080080e0 <SHA384Init>:
 80080e0:	a317      	add	r3, pc, #92	; (adr r3, 8008140 <SHA384Init+0x60>)
 80080e2:	e9d3 2300 	ldrd	r2, r3, [r3]
 80080e6:	e9c0 2326 	strd	r2, r3, [r0, #152]	; 0x98
 80080ea:	a317      	add	r3, pc, #92	; (adr r3, 8008148 <SHA384Init+0x68>)
 80080ec:	e9d3 2300 	ldrd	r2, r3, [r3]
 80080f0:	e9c0 2328 	strd	r2, r3, [r0, #160]	; 0xa0
 80080f4:	a316      	add	r3, pc, #88	; (adr r3, 8008150 <SHA384Init+0x70>)
 80080f6:	e9d3 2300 	ldrd	r2, r3, [r3]
 80080fa:	e9c0 232a 	strd	r2, r3, [r0, #168]	; 0xa8
 80080fe:	a316      	add	r3, pc, #88	; (adr r3, 8008158 <SHA384Init+0x78>)
 8008100:	e9d3 2300 	ldrd	r2, r3, [r3]
 8008104:	e9c0 232c 	strd	r2, r3, [r0, #176]	; 0xb0
 8008108:	a315      	add	r3, pc, #84	; (adr r3, 8008160 <SHA384Init+0x80>)
 800810a:	e9d3 2300 	ldrd	r2, r3, [r3]
 800810e:	e9c0 232e 	strd	r2, r3, [r0, #184]	; 0xb8
 8008112:	a315      	add	r3, pc, #84	; (adr r3, 8008168 <SHA384Init+0x88>)
 8008114:	e9d3 2300 	ldrd	r2, r3, [r3]
 8008118:	e9c0 2330 	strd	r2, r3, [r0, #192]	; 0xc0
 800811c:	a314      	add	r3, pc, #80	; (adr r3, 8008170 <SHA384Init+0x90>)
 800811e:	e9d3 2300 	ldrd	r2, r3, [r3]
 8008122:	e9c0 2332 	strd	r2, r3, [r0, #200]	; 0xc8
 8008126:	a314      	add	r3, pc, #80	; (adr r3, 8008178 <SHA384Init+0x98>)
 8008128:	e9d3 2300 	ldrd	r2, r3, [r3]
 800812c:	e9c0 2334 	strd	r2, r3, [r0, #208]	; 0xd0
 8008130:	2300      	movs	r3, #0
 8008132:	f8c0 308c 	str.w	r3, [r0, #140]	; 0x8c
 8008136:	f8c0 3090 	str.w	r3, [r0, #144]	; 0x90
 800813a:	4770      	bx	lr
 800813c:	f3af 8000 	nop.w
 8008140:	c1059ed8 	.word	0xc1059ed8
 8008144:	cbbb9d5d 	.word	0xcbbb9d5d
 8008148:	367cd507 	.word	0x367cd507
 800814c:	629a292a 	.word	0x629a292a
 8008150:	3070dd17 	.word	0x3070dd17
 8008154:	9159015a 	.word	0x9159015a
 8008158:	f70e5939 	.word	0xf70e5939
 800815c:	152fecd8 	.word	0x152fecd8
 8008160:	ffc00b31 	.word	0xffc00b31
 8008164:	67332667 	.word	0x67332667
 8008168:	68581511 	.word	0x68581511
 800816c:	8eb44a87 	.word	0x8eb44a87
 8008170:	64f98fa7 	.word	0x64f98fa7
 8008174:	db0c2e0d 	.word	0xdb0c2e0d
 8008178:	befa4fa4 	.word	0xbefa4fa4
 800817c:	47b5481d 	.word	0x47b5481d

08008180 <SHA384_Init>:
 8008180:	b508      	push	{r3, lr}
 8008182:	b138      	cbz	r0, 8008194 <SHA384_Init+0x14>
 8008184:	7902      	ldrb	r2, [r0, #4]
 8008186:	f022 0206 	bic.w	r2, r2, #6
 800818a:	7102      	strb	r2, [r0, #4]
 800818c:	f7ff ffa8 	bl	80080e0 <SHA384Init>
 8008190:	2000      	movs	r0, #0
 8008192:	bd08      	pop	{r3, pc}
 8008194:	f640 70a3 	movw	r0, #4003	; 0xfa3
 8008198:	bd08      	pop	{r3, pc}

0800819a <SHA384Final>:
 800819a:	e92d 47f3 	stmdb	sp!, {r0, r1, r4, r5, r6, r7, r8, r9, sl, lr}
 800819e:	2300      	movs	r3, #0
 80081a0:	4680      	mov	r8, r0
 80081a2:	4689      	mov	r9, r1
 80081a4:	2b03      	cmp	r3, #3
 80081a6:	bfd4      	ite	le
 80081a8:	218c      	movle	r1, #140	; 0x8c
 80081aa:	2188      	movgt	r1, #136	; 0x88
 80081ac:	4441      	add	r1, r8
 80081ae:	43da      	mvns	r2, r3
 80081b0:	f002 0203 	and.w	r2, r2, #3
 80081b4:	6849      	ldr	r1, [r1, #4]
 80081b6:	00d2      	lsls	r2, r2, #3
 80081b8:	fa21 f202 	lsr.w	r2, r1, r2
 80081bc:	f80d 2003 	strb.w	r2, [sp, r3]
 80081c0:	3301      	adds	r3, #1
 80081c2:	2b08      	cmp	r3, #8
 80081c4:	d1ee      	bne.n	80081a4 <SHA384Final+0xa>
 80081c6:	f8d8 308c 	ldr.w	r3, [r8, #140]	; 0x8c
 80081ca:	f8d8 7090 	ldr.w	r7, [r8, #144]	; 0x90
 80081ce:	2600      	movs	r6, #0
 80081d0:	431e      	orrs	r6, r3
 80081d2:	08f2      	lsrs	r2, r6, #3
 80081d4:	ea42 7247 	orr.w	r2, r2, r7, lsl #29
 80081d8:	08fb      	lsrs	r3, r7, #3
 80081da:	207f      	movs	r0, #127	; 0x7f
 80081dc:	2100      	movs	r1, #0
 80081de:	4010      	ands	r0, r2
 80081e0:	4019      	ands	r1, r3
 80081e2:	2900      	cmp	r1, #0
 80081e4:	bf08      	it	eq
 80081e6:	2870      	cmpeq	r0, #112	; 0x70
 80081e8:	4440      	add	r0, r8
 80081ea:	f04f 0380 	mov.w	r3, #128	; 0x80
 80081ee:	f002 027f 	and.w	r2, r2, #127	; 0x7f
 80081f2:	7303      	strb	r3, [r0, #12]
 80081f4:	f102 0201 	add.w	r2, r2, #1
 80081f8:	d226      	bcs.n	8008248 <SHA384Final+0xae>
 80081fa:	2a6f      	cmp	r2, #111	; 0x6f
 80081fc:	dc12      	bgt.n	8008224 <SHA384Final+0x8a>
 80081fe:	eb08 0302 	add.w	r3, r8, r2
 8008202:	2100      	movs	r1, #0
 8008204:	7319      	strb	r1, [r3, #12]
 8008206:	3201      	adds	r2, #1
 8008208:	e7f7      	b.n	80081fa <SHA384Final+0x60>
 800820a:	f108 060c 	add.w	r6, r8, #12
 800820e:	f108 0098 	add.w	r0, r8, #152	; 0x98
 8008212:	4631      	mov	r1, r6
 8008214:	f7fa fca0 	bl	8002b58 <SHA512Transform>
 8008218:	2300      	movs	r3, #0
 800821a:	2200      	movs	r2, #0
 800821c:	50f2      	str	r2, [r6, r3]
 800821e:	3304      	adds	r3, #4
 8008220:	2b70      	cmp	r3, #112	; 0x70
 8008222:	d1fa      	bne.n	800821a <SHA384Final+0x80>
 8008224:	2300      	movs	r3, #0
 8008226:	f888 307c 	strb.w	r3, [r8, #124]	; 0x7c
 800822a:	f888 307d 	strb.w	r3, [r8, #125]	; 0x7d
 800822e:	f888 307e 	strb.w	r3, [r8, #126]	; 0x7e
 8008232:	f888 307f 	strb.w	r3, [r8, #127]	; 0x7f
 8008236:	f888 3080 	strb.w	r3, [r8, #128]	; 0x80
 800823a:	f888 3081 	strb.w	r3, [r8, #129]	; 0x81
 800823e:	f888 3082 	strb.w	r3, [r8, #130]	; 0x82
 8008242:	f888 3083 	strb.w	r3, [r8, #131]	; 0x83
 8008246:	e007      	b.n	8008258 <SHA384Final+0xbe>
 8008248:	2a80      	cmp	r2, #128	; 0x80
 800824a:	d0de      	beq.n	800820a <SHA384Final+0x70>
 800824c:	eb08 0302 	add.w	r3, r8, r2
 8008250:	2100      	movs	r1, #0
 8008252:	7319      	strb	r1, [r3, #12]
 8008254:	3201      	adds	r2, #1
 8008256:	e7f7      	b.n	8008248 <SHA384Final+0xae>
 8008258:	eb08 0203 	add.w	r2, r8, r3
 800825c:	f81d 1003 	ldrb.w	r1, [sp, r3]
 8008260:	f882 1084 	strb.w	r1, [r2, #132]	; 0x84
 8008264:	3301      	adds	r3, #1
 8008266:	2b08      	cmp	r3, #8
 8008268:	d1f6      	bne.n	8008258 <SHA384Final+0xbe>
 800826a:	f108 0798 	add.w	r7, r8, #152	; 0x98
 800826e:	f108 0a0c 	add.w	sl, r8, #12
 8008272:	4638      	mov	r0, r7
 8008274:	4651      	mov	r1, sl
 8008276:	f7fa fc6f 	bl	8002b58 <SHA512Transform>
 800827a:	2600      	movs	r6, #0
 800827c:	eb08 0306 	add.w	r3, r8, r6
 8008280:	e9d3 2326 	ldrd	r2, r3, [r3, #152]	; 0x98
 8008284:	ba1b      	rev	r3, r3
 8008286:	f849 3006 	str.w	r3, [r9, r6]
 800828a:	eb09 0306 	add.w	r3, r9, r6
 800828e:	3608      	adds	r6, #8
 8008290:	ba12      	rev	r2, r2
 8008292:	2e30      	cmp	r6, #48	; 0x30
 8008294:	f04f 0500 	mov.w	r5, #0
 8008298:	605a      	str	r2, [r3, #4]
 800829a:	d1ef      	bne.n	800827c <SHA384Final+0xe2>
 800829c:	4629      	mov	r1, r5
 800829e:	4650      	mov	r0, sl
 80082a0:	2280      	movs	r2, #128	; 0x80
 80082a2:	f006 fb4e 	bl	800e942 <memset>
 80082a6:	4629      	mov	r1, r5
 80082a8:	4638      	mov	r0, r7
 80082aa:	2240      	movs	r2, #64	; 0x40
 80082ac:	f006 fb49 	bl	800e942 <memset>
 80082b0:	f108 008c 	add.w	r0, r8, #140	; 0x8c
 80082b4:	4629      	mov	r1, r5
 80082b6:	2208      	movs	r2, #8
 80082b8:	f006 fb43 	bl	800e942 <memset>
 80082bc:	b002      	add	sp, #8
 80082be:	e8bd 87f0 	ldmia.w	sp!, {r4, r5, r6, r7, r8, r9, sl, pc}

080082c2 <SHA384_Finish>:
 80082c2:	b570      	push	{r4, r5, r6, lr}
 80082c4:	460d      	mov	r5, r1
 80082c6:	b08c      	sub	sp, #48	; 0x30
 80082c8:	4616      	mov	r6, r2
 80082ca:	4604      	mov	r4, r0
 80082cc:	b1c0      	cbz	r0, 8008300 <SHA384_Finish+0x3e>
 80082ce:	b1b9      	cbz	r1, 8008300 <SHA384_Finish+0x3e>
 80082d0:	b1b2      	cbz	r2, 8008300 <SHA384_Finish+0x3e>
 80082d2:	6883      	ldr	r3, [r0, #8]
 80082d4:	3b01      	subs	r3, #1
 80082d6:	2b2f      	cmp	r3, #47	; 0x2f
 80082d8:	d815      	bhi.n	8008306 <SHA384_Finish+0x44>
 80082da:	7903      	ldrb	r3, [r0, #4]
 80082dc:	f043 0304 	orr.w	r3, r3, #4
 80082e0:	7103      	strb	r3, [r0, #4]
 80082e2:	4669      	mov	r1, sp
 80082e4:	f7ff ff59 	bl	800819a <SHA384Final>
 80082e8:	2300      	movs	r3, #0
 80082ea:	68a2      	ldr	r2, [r4, #8]
 80082ec:	4293      	cmp	r3, r2
 80082ee:	da04      	bge.n	80082fa <SHA384_Finish+0x38>
 80082f0:	f81d 2003 	ldrb.w	r2, [sp, r3]
 80082f4:	54ea      	strb	r2, [r5, r3]
 80082f6:	3301      	adds	r3, #1
 80082f8:	e7f7      	b.n	80082ea <SHA384_Finish+0x28>
 80082fa:	6032      	str	r2, [r6, #0]
 80082fc:	2000      	movs	r0, #0
 80082fe:	e004      	b.n	800830a <SHA384_Finish+0x48>
 8008300:	f640 70a3 	movw	r0, #4003	; 0xfa3
 8008304:	e001      	b.n	800830a <SHA384_Finish+0x48>
 8008306:	f640 70a2 	movw	r0, #4002	; 0xfa2
 800830a:	b00c      	add	sp, #48	; 0x30
 800830c:	bd70      	pop	{r4, r5, r6, pc}

0800830e <HMAC_SHA384_Init>:
 800830e:	b573      	push	{r0, r1, r4, r5, r6, lr}
 8008310:	4604      	mov	r4, r0
 8008312:	2800      	cmp	r0, #0
 8008314:	d060      	beq.n	80083d8 <HMAC_SHA384_Init+0xca>
 8008316:	68c1      	ldr	r1, [r0, #12]
 8008318:	b911      	cbnz	r1, 8008320 <HMAC_SHA384_Init+0x12>
 800831a:	f640 70a2 	movw	r0, #4002	; 0xfa2
 800831e:	e05f      	b.n	80083e0 <HMAC_SHA384_Init+0xd2>
 8008320:	6902      	ldr	r2, [r0, #16]
 8008322:	f240 237e 	movw	r3, #638	; 0x27e
 8008326:	1e50      	subs	r0, r2, #1
 8008328:	4298      	cmp	r0, r3
 800832a:	d8f6      	bhi.n	800831a <HMAC_SHA384_Init+0xc>
 800832c:	7923      	ldrb	r3, [r4, #4]
 800832e:	2a80      	cmp	r2, #128	; 0x80
 8008330:	f003 03f9 	and.w	r3, r3, #249	; 0xf9
 8008334:	7123      	strb	r3, [r4, #4]
 8008336:	f884 309c 	strb.w	r3, [r4, #156]	; 0x9c
 800833a:	f04f 0300 	mov.w	r3, #0
 800833e:	dd19      	ble.n	8008374 <HMAC_SHA384_Init+0x66>
 8008340:	2230      	movs	r2, #48	; 0x30
 8008342:	f104 0598 	add.w	r5, r4, #152	; 0x98
 8008346:	f8c4 20a0 	str.w	r2, [r4, #160]	; 0xa0
 800834a:	f884 309c 	strb.w	r3, [r4, #156]	; 0x9c
 800834e:	4628      	mov	r0, r5
 8008350:	f7ff ff16 	bl	8008180 <SHA384_Init>
 8008354:	68e1      	ldr	r1, [r4, #12]
 8008356:	6922      	ldr	r2, [r4, #16]
 8008358:	4628      	mov	r0, r5
 800835a:	f7ff fe9f 	bl	800809c <SHA384_Append>
 800835e:	4628      	mov	r0, r5
 8008360:	f104 0114 	add.w	r1, r4, #20
 8008364:	aa01      	add	r2, sp, #4
 8008366:	f7ff ffac 	bl	80082c2 <SHA384_Finish>
 800836a:	2800      	cmp	r0, #0
 800836c:	d1d5      	bne.n	800831a <HMAC_SHA384_Init+0xc>
 800836e:	9a01      	ldr	r2, [sp, #4]
 8008370:	4623      	mov	r3, r4
 8008372:	e008      	b.n	8008386 <HMAC_SHA384_Init+0x78>
 8008374:	9301      	str	r3, [sp, #4]
 8008376:	9b01      	ldr	r3, [sp, #4]
 8008378:	4293      	cmp	r3, r2
 800837a:	daf8      	bge.n	800836e <HMAC_SHA384_Init+0x60>
 800837c:	18e0      	adds	r0, r4, r3
 800837e:	5ccd      	ldrb	r5, [r1, r3]
 8008380:	7505      	strb	r5, [r0, #20]
 8008382:	3301      	adds	r3, #1
 8008384:	e7f6      	b.n	8008374 <HMAC_SHA384_Init+0x66>
 8008386:	1b19      	subs	r1, r3, r4
 8008388:	4291      	cmp	r1, r2
 800838a:	da05      	bge.n	8008398 <HMAC_SHA384_Init+0x8a>
 800838c:	7d19      	ldrb	r1, [r3, #20]
 800838e:	f081 0136 	eor.w	r1, r1, #54	; 0x36
 8008392:	7519      	strb	r1, [r3, #20]
 8008394:	3301      	adds	r3, #1
 8008396:	e7f6      	b.n	8008386 <HMAC_SHA384_Init+0x78>
 8008398:	ea22 73e2 	bic.w	r3, r2, r2, asr #31
 800839c:	2b7f      	cmp	r3, #127	; 0x7f
 800839e:	dc04      	bgt.n	80083aa <HMAC_SHA384_Init+0x9c>
 80083a0:	18e2      	adds	r2, r4, r3
 80083a2:	2136      	movs	r1, #54	; 0x36
 80083a4:	7511      	strb	r1, [r2, #20]
 80083a6:	3301      	adds	r3, #1
 80083a8:	e7f8      	b.n	800839c <HMAC_SHA384_Init+0x8e>
 80083aa:	f104 0698 	add.w	r6, r4, #152	; 0x98
 80083ae:	2500      	movs	r5, #0
 80083b0:	f884 509c 	strb.w	r5, [r4, #156]	; 0x9c
 80083b4:	4630      	mov	r0, r6
 80083b6:	3414      	adds	r4, #20
 80083b8:	f7ff fee2 	bl	8008180 <SHA384_Init>
 80083bc:	4630      	mov	r0, r6
 80083be:	4621      	mov	r1, r4
 80083c0:	2280      	movs	r2, #128	; 0x80
 80083c2:	f7ff fe6b 	bl	800809c <SHA384_Append>
 80083c6:	462b      	mov	r3, r5
 80083c8:	58e2      	ldr	r2, [r4, r3]
 80083ca:	f082 326a 	eor.w	r2, r2, #1785358954	; 0x6a6a6a6a
 80083ce:	50e2      	str	r2, [r4, r3]
 80083d0:	3304      	adds	r3, #4
 80083d2:	2b80      	cmp	r3, #128	; 0x80
 80083d4:	d1f8      	bne.n	80083c8 <HMAC_SHA384_Init+0xba>
 80083d6:	e002      	b.n	80083de <HMAC_SHA384_Init+0xd0>
 80083d8:	f640 70a3 	movw	r0, #4003	; 0xfa3
 80083dc:	e000      	b.n	80083e0 <HMAC_SHA384_Init+0xd2>
 80083de:	2000      	movs	r0, #0
 80083e0:	b002      	add	sp, #8
 80083e2:	bd70      	pop	{r4, r5, r6, pc}

080083e4 <HMAC_SHA384_Append>:
 80083e4:	3098      	adds	r0, #152	; 0x98
 80083e6:	f7ff be59 	b.w	800809c <SHA384_Append>

080083ea <HMAC_SHA384_Finish>:
 80083ea:	e92d 41f0 	stmdb	sp!, {r4, r5, r6, r7, r8, lr}
 80083ee:	2630      	movs	r6, #48	; 0x30
 80083f0:	b08e      	sub	sp, #56	; 0x38
 80083f2:	4604      	mov	r4, r0
 80083f4:	4688      	mov	r8, r1
 80083f6:	4617      	mov	r7, r2
 80083f8:	a802      	add	r0, sp, #8
 80083fa:	2100      	movs	r1, #0
 80083fc:	4632      	mov	r2, r6
 80083fe:	f006 faa0 	bl	800e942 <memset>
 8008402:	b304      	cbz	r4, 8008446 <HMAC_SHA384_Finish+0x5c>
 8008404:	f104 0598 	add.w	r5, r4, #152	; 0x98
 8008408:	f8c4 60a0 	str.w	r6, [r4, #160]	; 0xa0
 800840c:	4628      	mov	r0, r5
 800840e:	a902      	add	r1, sp, #8
 8008410:	aa01      	add	r2, sp, #4
 8008412:	f7ff ff56 	bl	80082c2 <SHA384_Finish>
 8008416:	b9c0      	cbnz	r0, 800844a <HMAC_SHA384_Finish+0x60>
 8008418:	4628      	mov	r0, r5
 800841a:	f7ff feb1 	bl	8008180 <SHA384_Init>
 800841e:	f104 0114 	add.w	r1, r4, #20
 8008422:	4628      	mov	r0, r5
 8008424:	2280      	movs	r2, #128	; 0x80
 8008426:	f7ff fe39 	bl	800809c <SHA384_Append>
 800842a:	a902      	add	r1, sp, #8
 800842c:	4632      	mov	r2, r6
 800842e:	4628      	mov	r0, r5
 8008430:	f7ff fe34 	bl	800809c <SHA384_Append>
 8008434:	68a3      	ldr	r3, [r4, #8]
 8008436:	f8c4 30a0 	str.w	r3, [r4, #160]	; 0xa0
 800843a:	4628      	mov	r0, r5
 800843c:	4641      	mov	r1, r8
 800843e:	463a      	mov	r2, r7
 8008440:	f7ff ff3f 	bl	80082c2 <SHA384_Finish>
 8008444:	e001      	b.n	800844a <HMAC_SHA384_Finish+0x60>
 8008446:	f640 70a3 	movw	r0, #4003	; 0xfa3
 800844a:	b00e      	add	sp, #56	; 0x38
 800844c:	e8bd 81f0 	ldmia.w	sp!, {r4, r5, r6, r7, r8, pc}

08008450 <SHA512_Append>:
 8008450:	b110      	cbz	r0, 8008458 <SHA512_Append+0x8>
 8008452:	b109      	cbz	r1, 8008458 <SHA512_Append+0x8>
 8008454:	f7ff be35 	b.w	80080c2 <SHA512_Append.part.21>
 8008458:	f640 70a3 	movw	r0, #4003	; 0xfa3
 800845c:	4770      	bx	lr
	...

08008460 <SHA512Init>:
 8008460:	a317      	add	r3, pc, #92	; (adr r3, 80084c0 <SHA512Init+0x60>)
 8008462:	e9d3 2300 	ldrd	r2, r3, [r3]
 8008466:	e9c0 2326 	strd	r2, r3, [r0, #152]	; 0x98
 800846a:	a317      	add	r3, pc, #92	; (adr r3, 80084c8 <SHA512Init+0x68>)
 800846c:	e9d3 2300 	ldrd	r2, r3, [r3]
 8008470:	e9c0 2328 	strd	r2, r3, [r0, #160]	; 0xa0
 8008474:	a316      	add	r3, pc, #88	; (adr r3, 80084d0 <SHA512Init+0x70>)
 8008476:	e9d3 2300 	ldrd	r2, r3, [r3]
 800847a:	e9c0 232a 	strd	r2, r3, [r0, #168]	; 0xa8
 800847e:	a316      	add	r3, pc, #88	; (adr r3, 80084d8 <SHA512Init+0x78>)
 8008480:	e9d3 2300 	ldrd	r2, r3, [r3]
 8008484:	e9c0 232c 	strd	r2, r3, [r0, #176]	; 0xb0
 8008488:	a315      	add	r3, pc, #84	; (adr r3, 80084e0 <SHA512Init+0x80>)
 800848a:	e9d3 2300 	ldrd	r2, r3, [r3]
 800848e:	e9c0 232e 	strd	r2, r3, [r0, #184]	; 0xb8
 8008492:	a315      	add	r3, pc, #84	; (adr r3, 80084e8 <SHA512Init+0x88>)
 8008494:	e9d3 2300 	ldrd	r2, r3, [r3]
 8008498:	e9c0 2330 	strd	r2, r3, [r0, #192]	; 0xc0
 800849c:	a314      	add	r3, pc, #80	; (adr r3, 80084f0 <SHA512Init+0x90>)
 800849e:	e9d3 2300 	ldrd	r2, r3, [r3]
 80084a2:	e9c0 2332 	strd	r2, r3, [r0, #200]	; 0xc8
 80084a6:	a314      	add	r3, pc, #80	; (adr r3, 80084f8 <SHA512Init+0x98>)
 80084a8:	e9d3 2300 	ldrd	r2, r3, [r3]
 80084ac:	e9c0 2334 	strd	r2, r3, [r0, #208]	; 0xd0
 80084b0:	2300      	movs	r3, #0
 80084b2:	f8c0 308c 	str.w	r3, [r0, #140]	; 0x8c
 80084b6:	f8c0 3090 	str.w	r3, [r0, #144]	; 0x90
 80084ba:	4770      	bx	lr
 80084bc:	f3af 8000 	nop.w
 80084c0:	f3bcc908 	.word	0xf3bcc908
 80084c4:	6a09e667 	.word	0x6a09e667
 80084c8:	84caa73b 	.word	0x84caa73b
 80084cc:	bb67ae85 	.word	0xbb67ae85
 80084d0:	fe94f82b 	.word	0xfe94f82b
 80084d4:	3c6ef372 	.word	0x3c6ef372
 80084d8:	5f1d36f1 	.word	0x5f1d36f1
 80084dc:	a54ff53a 	.word	0xa54ff53a
 80084e0:	ade682d1 	.word	0xade682d1
 80084e4:	510e527f 	.word	0x510e527f
 80084e8:	2b3e6c1f 	.word	0x2b3e6c1f
 80084ec:	9b05688c 	.word	0x9b05688c
 80084f0:	fb41bd6b 	.word	0xfb41bd6b
 80084f4:	1f83d9ab 	.word	0x1f83d9ab
 80084f8:	137e2179 	.word	0x137e2179
 80084fc:	5be0cd19 	.word	0x5be0cd19

08008500 <SHA512_Init>:
 8008500:	b508      	push	{r3, lr}
 8008502:	b138      	cbz	r0, 8008514 <SHA512_Init+0x14>
 8008504:	7902      	ldrb	r2, [r0, #4]
 8008506:	f022 0206 	bic.w	r2, r2, #6
 800850a:	7102      	strb	r2, [r0, #4]
 800850c:	f7ff ffa8 	bl	8008460 <SHA512Init>
 8008510:	2000      	movs	r0, #0
 8008512:	bd08      	pop	{r3, pc}
 8008514:	f640 70a3 	movw	r0, #4003	; 0xfa3
 8008518:	bd08      	pop	{r3, pc}

0800851a <SHA512Final>:
 800851a:	e92d 4ff0 	stmdb	sp!, {r4, r5, r6, r7, r8, r9, sl, fp, lr}
 800851e:	2300      	movs	r3, #0
 8008520:	b085      	sub	sp, #20
 8008522:	4680      	mov	r8, r0
 8008524:	4689      	mov	r9, r1
 8008526:	2b03      	cmp	r3, #3
 8008528:	bfd4      	ite	le
 800852a:	218c      	movle	r1, #140	; 0x8c
 800852c:	2188      	movgt	r1, #136	; 0x88
 800852e:	4441      	add	r1, r8
 8008530:	43da      	mvns	r2, r3
 8008532:	6849      	ldr	r1, [r1, #4]
 8008534:	f002 0203 	and.w	r2, r2, #3
 8008538:	00d2      	lsls	r2, r2, #3
 800853a:	fa21 f202 	lsr.w	r2, r1, r2
 800853e:	4668      	mov	r0, sp
 8008540:	f103 0108 	add.w	r1, r3, #8
 8008544:	3301      	adds	r3, #1
 8008546:	2b08      	cmp	r3, #8
 8008548:	540a      	strb	r2, [r1, r0]
 800854a:	d1ec      	bne.n	8008526 <SHA512Final+0xc>
 800854c:	f8d8 308c 	ldr.w	r3, [r8, #140]	; 0x8c
 8008550:	f8d8 7090 	ldr.w	r7, [r8, #144]	; 0x90
 8008554:	2600      	movs	r6, #0
 8008556:	431e      	orrs	r6, r3
 8008558:	08f2      	lsrs	r2, r6, #3
 800855a:	ea42 7247 	orr.w	r2, r2, r7, lsl #29
 800855e:	08fb      	lsrs	r3, r7, #3
 8008560:	207f      	movs	r0, #127	; 0x7f
 8008562:	2100      	movs	r1, #0
 8008564:	4010      	ands	r0, r2
 8008566:	4019      	ands	r1, r3
 8008568:	2900      	cmp	r1, #0
 800856a:	bf08      	it	eq
 800856c:	2870      	cmpeq	r0, #112	; 0x70
 800856e:	4440      	add	r0, r8
 8008570:	f04f 0380 	mov.w	r3, #128	; 0x80
 8008574:	f002 027f 	and.w	r2, r2, #127	; 0x7f
 8008578:	7303      	strb	r3, [r0, #12]
 800857a:	f102 0201 	add.w	r2, r2, #1
 800857e:	d226      	bcs.n	80085ce <SHA512Final+0xb4>
 8008580:	2a6f      	cmp	r2, #111	; 0x6f
 8008582:	dc12      	bgt.n	80085aa <SHA512Final+0x90>
 8008584:	eb08 0302 	add.w	r3, r8, r2
 8008588:	2100      	movs	r1, #0
 800858a:	7319      	strb	r1, [r3, #12]
 800858c:	3201      	adds	r2, #1
 800858e:	e7f7      	b.n	8008580 <SHA512Final+0x66>
 8008590:	f108 060c 	add.w	r6, r8, #12
 8008594:	f108 0098 	add.w	r0, r8, #152	; 0x98
 8008598:	4631      	mov	r1, r6
 800859a:	f7fa fadd 	bl	8002b58 <SHA512Transform>
 800859e:	2300      	movs	r3, #0
 80085a0:	2200      	movs	r2, #0
 80085a2:	50f2      	str	r2, [r6, r3]
 80085a4:	3304      	adds	r3, #4
 80085a6:	2b70      	cmp	r3, #112	; 0x70
 80085a8:	d1fa      	bne.n	80085a0 <SHA512Final+0x86>
 80085aa:	2300      	movs	r3, #0
 80085ac:	f888 307c 	strb.w	r3, [r8, #124]	; 0x7c
 80085b0:	f888 307d 	strb.w	r3, [r8, #125]	; 0x7d
 80085b4:	f888 307e 	strb.w	r3, [r8, #126]	; 0x7e
 80085b8:	f888 307f 	strb.w	r3, [r8, #127]	; 0x7f
 80085bc:	f888 3080 	strb.w	r3, [r8, #128]	; 0x80
 80085c0:	f888 3081 	strb.w	r3, [r8, #129]	; 0x81
 80085c4:	f888 3082 	strb.w	r3, [r8, #130]	; 0x82
 80085c8:	f888 3083 	strb.w	r3, [r8, #131]	; 0x83
 80085cc:	e007      	b.n	80085de <SHA512Final+0xc4>
 80085ce:	2a80      	cmp	r2, #128	; 0x80
 80085d0:	d0de      	beq.n	8008590 <SHA512Final+0x76>
 80085d2:	eb08 0302 	add.w	r3, r8, r2
 80085d6:	2100      	movs	r1, #0
 80085d8:	7319      	strb	r1, [r3, #12]
 80085da:	3201      	adds	r2, #1
 80085dc:	e7f7      	b.n	80085ce <SHA512Final+0xb4>
 80085de:	a802      	add	r0, sp, #8
 80085e0:	eb08 0203 	add.w	r2, r8, r3
 80085e4:	5cc1      	ldrb	r1, [r0, r3]
 80085e6:	f882 1084 	strb.w	r1, [r2, #132]	; 0x84
 80085ea:	3301      	adds	r3, #1
 80085ec:	2b08      	cmp	r3, #8
 80085ee:	d1f6      	bne.n	80085de <SHA512Final+0xc4>
 80085f0:	f108 030c 	add.w	r3, r8, #12
 80085f4:	f108 0b98 	add.w	fp, r8, #152	; 0x98
 80085f8:	4619      	mov	r1, r3
 80085fa:	4658      	mov	r0, fp
 80085fc:	9301      	str	r3, [sp, #4]
 80085fe:	f7fa faab 	bl	8002b58 <SHA512Transform>
 8008602:	9b01      	ldr	r3, [sp, #4]
 8008604:	f04f 0a00 	mov.w	sl, #0
 8008608:	eb08 020a 	add.w	r2, r8, sl
 800860c:	e9d2 6726 	ldrd	r6, r7, [r2, #152]	; 0x98
 8008610:	ba3a      	rev	r2, r7
 8008612:	f849 200a 	str.w	r2, [r9, sl]
 8008616:	eb09 020a 	add.w	r2, r9, sl
 800861a:	f10a 0a08 	add.w	sl, sl, #8
 800861e:	ba36      	rev	r6, r6
 8008620:	f1ba 0f40 	cmp.w	sl, #64	; 0x40
 8008624:	f04f 0500 	mov.w	r5, #0
 8008628:	6056      	str	r6, [r2, #4]
 800862a:	d1ed      	bne.n	8008608 <SHA512Final+0xee>
 800862c:	4618      	mov	r0, r3
 800862e:	4629      	mov	r1, r5
 8008630:	2280      	movs	r2, #128	; 0x80
 8008632:	f006 f986 	bl	800e942 <memset>
 8008636:	4629      	mov	r1, r5
 8008638:	4652      	mov	r2, sl
 800863a:	4658      	mov	r0, fp
 800863c:	f006 f981 	bl	800e942 <memset>
 8008640:	f108 008c 	add.w	r0, r8, #140	; 0x8c
 8008644:	4629      	mov	r1, r5
 8008646:	2208      	movs	r2, #8
 8008648:	f006 f97b 	bl	800e942 <memset>
 800864c:	b005      	add	sp, #20
 800864e:	e8bd 8ff0 	ldmia.w	sp!, {r4, r5, r6, r7, r8, r9, sl, fp, pc}

08008652 <SHA512_Finish>:
 8008652:	b570      	push	{r4, r5, r6, lr}
 8008654:	460d      	mov	r5, r1
 8008656:	b090      	sub	sp, #64	; 0x40
 8008658:	4616      	mov	r6, r2
 800865a:	4604      	mov	r4, r0
 800865c:	b1c0      	cbz	r0, 8008690 <SHA512_Finish+0x3e>
 800865e:	b1b9      	cbz	r1, 8008690 <SHA512_Finish+0x3e>
 8008660:	b1b2      	cbz	r2, 8008690 <SHA512_Finish+0x3e>
 8008662:	6883      	ldr	r3, [r0, #8]
 8008664:	3b01      	subs	r3, #1
 8008666:	2b3f      	cmp	r3, #63	; 0x3f
 8008668:	d815      	bhi.n	8008696 <SHA512_Finish+0x44>
 800866a:	7903      	ldrb	r3, [r0, #4]
 800866c:	f043 0304 	orr.w	r3, r3, #4
 8008670:	7103      	strb	r3, [r0, #4]
 8008672:	4669      	mov	r1, sp
 8008674:	f7ff ff51 	bl	800851a <SHA512Final>
 8008678:	2300      	movs	r3, #0
 800867a:	68a2      	ldr	r2, [r4, #8]
 800867c:	4293      	cmp	r3, r2
 800867e:	da04      	bge.n	800868a <SHA512_Finish+0x38>
 8008680:	f81d 2003 	ldrb.w	r2, [sp, r3]
 8008684:	54ea      	strb	r2, [r5, r3]
 8008686:	3301      	adds	r3, #1
 8008688:	e7f7      	b.n	800867a <SHA512_Finish+0x28>
 800868a:	6032      	str	r2, [r6, #0]
 800868c:	2000      	movs	r0, #0
 800868e:	e004      	b.n	800869a <SHA512_Finish+0x48>
 8008690:	f640 70a3 	movw	r0, #4003	; 0xfa3
 8008694:	e001      	b.n	800869a <SHA512_Finish+0x48>
 8008696:	f640 70a2 	movw	r0, #4002	; 0xfa2
 800869a:	b010      	add	sp, #64	; 0x40
 800869c:	bd70      	pop	{r4, r5, r6, pc}

0800869e <HMAC_SHA512_Init>:
 800869e:	b573      	push	{r0, r1, r4, r5, r6, lr}
 80086a0:	4604      	mov	r4, r0
 80086a2:	2800      	cmp	r0, #0
 80086a4:	d060      	beq.n	8008768 <HMAC_SHA512_Init+0xca>
 80086a6:	68c1      	ldr	r1, [r0, #12]
 80086a8:	b911      	cbnz	r1, 80086b0 <HMAC_SHA512_Init+0x12>
 80086aa:	f640 70a2 	movw	r0, #4002	; 0xfa2
 80086ae:	e05f      	b.n	8008770 <HMAC_SHA512_Init+0xd2>
 80086b0:	6902      	ldr	r2, [r0, #16]
 80086b2:	f240 237e 	movw	r3, #638	; 0x27e
 80086b6:	1e50      	subs	r0, r2, #1
 80086b8:	4298      	cmp	r0, r3
 80086ba:	d8f6      	bhi.n	80086aa <HMAC_SHA512_Init+0xc>
 80086bc:	7923      	ldrb	r3, [r4, #4]
 80086be:	2a80      	cmp	r2, #128	; 0x80
 80086c0:	f003 03f9 	and.w	r3, r3, #249	; 0xf9
 80086c4:	7123      	strb	r3, [r4, #4]
 80086c6:	f884 309c 	strb.w	r3, [r4, #156]	; 0x9c
 80086ca:	f04f 0300 	mov.w	r3, #0
 80086ce:	dd19      	ble.n	8008704 <HMAC_SHA512_Init+0x66>
 80086d0:	2240      	movs	r2, #64	; 0x40
 80086d2:	f104 0598 	add.w	r5, r4, #152	; 0x98
 80086d6:	f8c4 20a0 	str.w	r2, [r4, #160]	; 0xa0
 80086da:	f884 309c 	strb.w	r3, [r4, #156]	; 0x9c
 80086de:	4628      	mov	r0, r5
 80086e0:	f7ff ff0e 	bl	8008500 <SHA512_Init>
 80086e4:	68e1      	ldr	r1, [r4, #12]
 80086e6:	6922      	ldr	r2, [r4, #16]
 80086e8:	4628      	mov	r0, r5
 80086ea:	f7ff feb1 	bl	8008450 <SHA512_Append>
 80086ee:	4628      	mov	r0, r5
 80086f0:	f104 0114 	add.w	r1, r4, #20
 80086f4:	aa01      	add	r2, sp, #4
 80086f6:	f7ff ffac 	bl	8008652 <SHA512_Finish>
 80086fa:	2800      	cmp	r0, #0
 80086fc:	d1d5      	bne.n	80086aa <HMAC_SHA512_Init+0xc>
 80086fe:	9a01      	ldr	r2, [sp, #4]
 8008700:	4623      	mov	r3, r4
 8008702:	e008      	b.n	8008716 <HMAC_SHA512_Init+0x78>
 8008704:	9301      	str	r3, [sp, #4]
 8008706:	9b01      	ldr	r3, [sp, #4]
 8008708:	4293      	cmp	r3, r2
 800870a:	daf8      	bge.n	80086fe <HMAC_SHA512_Init+0x60>
 800870c:	18e0      	adds	r0, r4, r3
 800870e:	5ccd      	ldrb	r5, [r1, r3]
 8008710:	7505      	strb	r5, [r0, #20]
 8008712:	3301      	adds	r3, #1
 8008714:	e7f6      	b.n	8008704 <HMAC_SHA512_Init+0x66>
 8008716:	1b19      	subs	r1, r3, r4
 8008718:	4291      	cmp	r1, r2
 800871a:	da05      	bge.n	8008728 <HMAC_SHA512_Init+0x8a>
 800871c:	7d19      	ldrb	r1, [r3, #20]
 800871e:	f081 0136 	eor.w	r1, r1, #54	; 0x36
 8008722:	7519      	strb	r1, [r3, #20]
 8008724:	3301      	adds	r3, #1
 8008726:	e7f6      	b.n	8008716 <HMAC_SHA512_Init+0x78>
 8008728:	ea22 73e2 	bic.w	r3, r2, r2, asr #31
 800872c:	2b7f      	cmp	r3, #127	; 0x7f
 800872e:	dc04      	bgt.n	800873a <HMAC_SHA512_Init+0x9c>
 8008730:	18e2      	adds	r2, r4, r3
 8008732:	2136      	movs	r1, #54	; 0x36
 8008734:	7511      	strb	r1, [r2, #20]
 8008736:	3301      	adds	r3, #1
 8008738:	e7f8      	b.n	800872c <HMAC_SHA512_Init+0x8e>
 800873a:	f104 0698 	add.w	r6, r4, #152	; 0x98
 800873e:	2500      	movs	r5, #0
 8008740:	f884 509c 	strb.w	r5, [r4, #156]	; 0x9c
 8008744:	4630      	mov	r0, r6
 8008746:	3414      	adds	r4, #20
 8008748:	f7ff feda 	bl	8008500 <SHA512_Init>
 800874c:	4630      	mov	r0, r6
 800874e:	4621      	mov	r1, r4
 8008750:	2280      	movs	r2, #128	; 0x80
 8008752:	f7ff fe7d 	bl	8008450 <SHA512_Append>
 8008756:	462b      	mov	r3, r5
 8008758:	58e2      	ldr	r2, [r4, r3]
 800875a:	f082 326a 	eor.w	r2, r2, #1785358954	; 0x6a6a6a6a
 800875e:	50e2      	str	r2, [r4, r3]
 8008760:	3304      	adds	r3, #4
 8008762:	2b80      	cmp	r3, #128	; 0x80
 8008764:	d1f8      	bne.n	8008758 <HMAC_SHA512_Init+0xba>
 8008766:	e002      	b.n	800876e <HMAC_SHA512_Init+0xd0>
 8008768:	f640 70a3 	movw	r0, #4003	; 0xfa3
 800876c:	e000      	b.n	8008770 <HMAC_SHA512_Init+0xd2>
 800876e:	2000      	movs	r0, #0
 8008770:	b002      	add	sp, #8
 8008772:	bd70      	pop	{r4, r5, r6, pc}

08008774 <HMAC_SHA512_Append>:
 8008774:	3098      	adds	r0, #152	; 0x98
 8008776:	f7ff be6b 	b.w	8008450 <SHA512_Append>

0800877a <HMAC_SHA512_Finish>:
 800877a:	e92d 41f0 	stmdb	sp!, {r4, r5, r6, r7, r8, lr}
 800877e:	2640      	movs	r6, #64	; 0x40
 8008780:	b092      	sub	sp, #72	; 0x48
 8008782:	4604      	mov	r4, r0
 8008784:	4688      	mov	r8, r1
 8008786:	4617      	mov	r7, r2
 8008788:	a802      	add	r0, sp, #8
 800878a:	2100      	movs	r1, #0
 800878c:	4632      	mov	r2, r6
 800878e:	f006 f8d8 	bl	800e942 <memset>
 8008792:	b304      	cbz	r4, 80087d6 <HMAC_SHA512_Finish+0x5c>
 8008794:	f104 0598 	add.w	r5, r4, #152	; 0x98
 8008798:	f8c4 60a0 	str.w	r6, [r4, #160]	; 0xa0
 800879c:	4628      	mov	r0, r5
 800879e:	a902      	add	r1, sp, #8
 80087a0:	aa01      	add	r2, sp, #4
 80087a2:	f7ff ff56 	bl	8008652 <SHA512_Finish>
 80087a6:	b9c0      	cbnz	r0, 80087da <HMAC_SHA512_Finish+0x60>
 80087a8:	4628      	mov	r0, r5
 80087aa:	f7ff fea9 	bl	8008500 <SHA512_Init>
 80087ae:	f104 0114 	add.w	r1, r4, #20
 80087b2:	4628      	mov	r0, r5
 80087b4:	2280      	movs	r2, #128	; 0x80
 80087b6:	f7ff fe4b 	bl	8008450 <SHA512_Append>
 80087ba:	a902      	add	r1, sp, #8
 80087bc:	4632      	mov	r2, r6
 80087be:	4628      	mov	r0, r5
 80087c0:	f7ff fe46 	bl	8008450 <SHA512_Append>
 80087c4:	68a3      	ldr	r3, [r4, #8]
 80087c6:	f8c4 30a0 	str.w	r3, [r4, #160]	; 0xa0
 80087ca:	4628      	mov	r0, r5
 80087cc:	4641      	mov	r1, r8
 80087ce:	463a      	mov	r2, r7
 80087d0:	f7ff ff3f 	bl	8008652 <SHA512_Finish>
 80087d4:	e001      	b.n	80087da <HMAC_SHA512_Finish+0x60>
 80087d6:	f640 70a3 	movw	r0, #4003	; 0xfa3
 80087da:	b012      	add	sp, #72	; 0x48
 80087dc:	e8bd 81f0 	ldmia.w	sp!, {r4, r5, r6, r7, r8, pc}

080087e0 <HKDF_SHA512>:
 80087e0:	e92d 4ff0 	stmdb	sp!, {r4, r5, r6, r7, r8, r9, sl, fp, lr}
 80087e4:	b0f3      	sub	sp, #460	; 0x1cc
 80087e6:	2301      	movs	r3, #1
 80087e8:	460f      	mov	r7, r1
 80087ea:	4690      	mov	r8, r2
 80087ec:	f88d 3013 	strb.w	r3, [sp, #19]
 80087f0:	4604      	mov	r4, r0
 80087f2:	2800      	cmp	r0, #0
 80087f4:	f000 80a4 	beq.w	8008940 <HKDF_SHA512+0x160>
 80087f8:	2900      	cmp	r1, #0
 80087fa:	f000 80a1 	beq.w	8008940 <HKDF_SHA512+0x160>
 80087fe:	1e53      	subs	r3, r2, #1
 8008800:	f5b3 5f7f 	cmp.w	r3, #16320	; 0x3fc0
 8008804:	f080 809c 	bcs.w	8008940 <HKDF_SHA512+0x160>
 8008808:	6883      	ldr	r3, [r0, #8]
 800880a:	b91b      	cbnz	r3, 8008814 <HKDF_SHA512+0x34>
 800880c:	68c2      	ldr	r2, [r0, #12]
 800880e:	2a00      	cmp	r2, #0
 8008810:	f040 8099 	bne.w	8008946 <HKDF_SHA512+0x166>
 8008814:	6822      	ldr	r2, [r4, #0]
 8008816:	b91a      	cbnz	r2, 8008820 <HKDF_SHA512+0x40>
 8008818:	6862      	ldr	r2, [r4, #4]
 800881a:	2a00      	cmp	r2, #0
 800881c:	f040 8093 	bne.w	8008946 <HKDF_SHA512+0x166>
 8008820:	6922      	ldr	r2, [r4, #16]
 8008822:	b91a      	cbnz	r2, 800882c <HKDF_SHA512+0x4c>
 8008824:	6962      	ldr	r2, [r4, #20]
 8008826:	2a00      	cmp	r2, #0
 8008828:	f040 808d 	bne.w	8008946 <HKDF_SHA512+0x166>
 800882c:	68e1      	ldr	r1, [r4, #12]
 800882e:	ae06      	add	r6, sp, #24
 8008830:	b111      	cbz	r1, 8008838 <HKDF_SHA512+0x58>
 8008832:	9319      	str	r3, [sp, #100]	; 0x64
 8008834:	911a      	str	r1, [sp, #104]	; 0x68
 8008836:	e006      	b.n	8008846 <HKDF_SHA512+0x66>
 8008838:	2540      	movs	r5, #64	; 0x40
 800883a:	4630      	mov	r0, r6
 800883c:	462a      	mov	r2, r5
 800883e:	f006 f880 	bl	800e942 <memset>
 8008842:	9619      	str	r6, [sp, #100]	; 0x64
 8008844:	951a      	str	r5, [sp, #104]	; 0x68
 8008846:	2300      	movs	r3, #0
 8008848:	2540      	movs	r5, #64	; 0x40
 800884a:	a816      	add	r0, sp, #88	; 0x58
 800884c:	f88d 305c 	strb.w	r3, [sp, #92]	; 0x5c
 8008850:	9518      	str	r5, [sp, #96]	; 0x60
 8008852:	f7ff ff24 	bl	800869e <HMAC_SHA512_Init>
 8008856:	e894 0006 	ldmia.w	r4, {r1, r2}
 800885a:	4682      	mov	sl, r0
 800885c:	a83c      	add	r0, sp, #240	; 0xf0
 800885e:	f7ff fdf7 	bl	8008450 <SHA512_Append>
 8008862:	4631      	mov	r1, r6
 8008864:	4681      	mov	r9, r0
 8008866:	aa05      	add	r2, sp, #20
 8008868:	a816      	add	r0, sp, #88	; 0x58
 800886a:	f7ff ff86 	bl	800877a <HMAC_SHA512_Finish>
 800886e:	4683      	mov	fp, r0
 8008870:	a816      	add	r0, sp, #88	; 0x58
 8008872:	9619      	str	r6, [sp, #100]	; 0x64
 8008874:	951a      	str	r5, [sp, #104]	; 0x68
 8008876:	f7ff ff12 	bl	800869e <HMAC_SHA512_Init>
 800887a:	ea4b 0a0a 	orr.w	sl, fp, sl
 800887e:	ea4a 0000 	orr.w	r0, sl, r0
 8008882:	ea40 0509 	orr.w	r5, r0, r9
 8008886:	6921      	ldr	r1, [r4, #16]
 8008888:	6962      	ldr	r2, [r4, #20]
 800888a:	a83c      	add	r0, sp, #240	; 0xf0
 800888c:	f7ff fde0 	bl	8008450 <SHA512_Append>
 8008890:	ea4f 1998 	mov.w	r9, r8, lsr #6
 8008894:	eb07 1389 	add.w	r3, r7, r9, lsl #6
 8008898:	4305      	orrs	r5, r0
 800889a:	463e      	mov	r6, r7
 800889c:	9303      	str	r3, [sp, #12]
 800889e:	9b03      	ldr	r3, [sp, #12]
 80088a0:	429e      	cmp	r6, r3
 80088a2:	d031      	beq.n	8008908 <HKDF_SHA512+0x128>
 80088a4:	f10d 0113 	add.w	r1, sp, #19
 80088a8:	2201      	movs	r2, #1
 80088aa:	a83c      	add	r0, sp, #240	; 0xf0
 80088ac:	f7ff fc09 	bl	80080c2 <SHA512_Append.part.21>
 80088b0:	4631      	mov	r1, r6
 80088b2:	aa05      	add	r2, sp, #20
 80088b4:	4682      	mov	sl, r0
 80088b6:	a816      	add	r0, sp, #88	; 0x58
 80088b8:	f7ff ff5f 	bl	800877a <HMAC_SHA512_Finish>
 80088bc:	4684      	mov	ip, r0
 80088be:	a816      	add	r0, sp, #88	; 0x58
 80088c0:	f8cd c004 	str.w	ip, [sp, #4]
 80088c4:	f7ff feeb 	bl	800869e <HMAC_SHA512_Init>
 80088c8:	4631      	mov	r1, r6
 80088ca:	4603      	mov	r3, r0
 80088cc:	2240      	movs	r2, #64	; 0x40
 80088ce:	a83c      	add	r0, sp, #240	; 0xf0
 80088d0:	9302      	str	r3, [sp, #8]
 80088d2:	f7ff fdbd 	bl	8008450 <SHA512_Append>
 80088d6:	6921      	ldr	r1, [r4, #16]
 80088d8:	6962      	ldr	r2, [r4, #20]
 80088da:	4683      	mov	fp, r0
 80088dc:	a83c      	add	r0, sp, #240	; 0xf0
 80088de:	f7ff fdb7 	bl	8008450 <SHA512_Append>
 80088e2:	9b02      	ldr	r3, [sp, #8]
 80088e4:	f8dd c004 	ldr.w	ip, [sp, #4]
 80088e8:	ea4c 0303 	orr.w	r3, ip, r3
 80088ec:	431d      	orrs	r5, r3
 80088ee:	f89d 3013 	ldrb.w	r3, [sp, #19]
 80088f2:	ea45 0b0b 	orr.w	fp, r5, fp
 80088f6:	ea4b 0000 	orr.w	r0, fp, r0
 80088fa:	3301      	adds	r3, #1
 80088fc:	ea40 050a 	orr.w	r5, r0, sl
 8008900:	f88d 3013 	strb.w	r3, [sp, #19]
 8008904:	3640      	adds	r6, #64	; 0x40
 8008906:	e7ca      	b.n	800889e <HKDF_SHA512+0xbe>
 8008908:	ea4f 1989 	mov.w	r9, r9, lsl #6
 800890c:	45c1      	cmp	r9, r8
 800890e:	da11      	bge.n	8008934 <HKDF_SHA512+0x154>
 8008910:	f008 033f 	and.w	r3, r8, #63	; 0x3f
 8008914:	f10d 0113 	add.w	r1, sp, #19
 8008918:	2201      	movs	r2, #1
 800891a:	a83c      	add	r0, sp, #240	; 0xf0
 800891c:	9318      	str	r3, [sp, #96]	; 0x60
 800891e:	f7ff fbd0 	bl	80080c2 <SHA512_Append.part.21>
 8008922:	eb07 0109 	add.w	r1, r7, r9
 8008926:	4604      	mov	r4, r0
 8008928:	aa05      	add	r2, sp, #20
 800892a:	a816      	add	r0, sp, #88	; 0x58
 800892c:	f7ff ff25 	bl	800877a <HMAC_SHA512_Finish>
 8008930:	4320      	orrs	r0, r4
 8008932:	4305      	orrs	r5, r0
 8008934:	2d00      	cmp	r5, #0
 8008936:	f640 70ab 	movw	r0, #4011	; 0xfab
 800893a:	bf08      	it	eq
 800893c:	2000      	moveq	r0, #0
 800893e:	e004      	b.n	800894a <HKDF_SHA512+0x16a>
 8008940:	f640 70a3 	movw	r0, #4003	; 0xfa3
 8008944:	e001      	b.n	800894a <HKDF_SHA512+0x16a>
 8008946:	f640 70a2 	movw	r0, #4002	; 0xfa2
 800894a:	b073      	add	sp, #460	; 0x1cc
 800894c:	e8bd 8ff0 	ldmia.w	sp!, {r4, r5, r6, r7, r8, r9, sl, fp, pc}

08008950 <StAllocBig>:
 8008950:	88d3      	ldrh	r3, [r2, #6]
 8008952:	b5f0      	push	{r4, r5, r6, r7, lr}
 8008954:	1c4c      	adds	r4, r1, #1
 8008956:	f103 0608 	add.w	r6, r3, #8
 800895a:	00a4      	lsls	r4, r4, #2
 800895c:	8895      	ldrh	r5, [r2, #4]
 800895e:	19a7      	adds	r7, r4, r6
 8008960:	42af      	cmp	r7, r5
 8008962:	d80d      	bhi.n	8008980 <StAllocBig+0x30>
 8008964:	6815      	ldr	r5, [r2, #0]
 8008966:	18ef      	adds	r7, r5, r3
 8008968:	6007      	str	r7, [r0, #0]
 800896a:	6817      	ldr	r7, [r2, #0]
 800896c:	443e      	add	r6, r7
 800896e:	50ee      	str	r6, [r5, r3]
 8008970:	6803      	ldr	r3, [r0, #0]
 8008972:	7199      	strb	r1, [r3, #6]
 8008974:	88d3      	ldrh	r3, [r2, #6]
 8008976:	3308      	adds	r3, #8
 8008978:	441c      	add	r4, r3
 800897a:	80d4      	strh	r4, [r2, #6]
 800897c:	2000      	movs	r0, #0
 800897e:	bdf0      	pop	{r4, r5, r6, r7, pc}
 8008980:	f240 30ed 	movw	r0, #1005	; 0x3ed
 8008984:	bdf0      	pop	{r4, r5, r6, r7, pc}

08008986 <StFreeBig>:
 8008986:	6803      	ldr	r3, [r0, #0]
 8008988:	b14b      	cbz	r3, 800899e <StFreeBig+0x18>
 800898a:	b141      	cbz	r1, 800899e <StFreeBig+0x18>
 800898c:	88ca      	ldrh	r2, [r1, #6]
 800898e:	799b      	ldrb	r3, [r3, #6]
 8008990:	3a08      	subs	r2, #8
 8008992:	43db      	mvns	r3, r3
 8008994:	eb02 0383 	add.w	r3, r2, r3, lsl #2
 8008998:	80cb      	strh	r3, [r1, #6]
 800899a:	2300      	movs	r3, #0
 800899c:	6003      	str	r3, [r0, #0]
 800899e:	4770      	bx	lr

080089a0 <InitBig>:
 80089a0:	b510      	push	{r4, lr}
 80089a2:	2301      	movs	r3, #1
 80089a4:	7982      	ldrb	r2, [r0, #6]
 80089a6:	3201      	adds	r2, #1
 80089a8:	4293      	cmp	r3, r2
 80089aa:	6802      	ldr	r2, [r0, #0]
 80089ac:	d205      	bcs.n	80089ba <InitBig+0x1a>
 80089ae:	2400      	movs	r4, #0
 80089b0:	f842 4023 	str.w	r4, [r2, r3, lsl #2]
 80089b4:	3301      	adds	r3, #1
 80089b6:	b29b      	uxth	r3, r3
 80089b8:	e7f4      	b.n	80089a4 <InitBig+0x4>
 80089ba:	2301      	movs	r3, #1
 80089bc:	2900      	cmp	r1, #0
 80089be:	8083      	strh	r3, [r0, #4]
 80089c0:	bfb3      	iteet	lt
 80089c2:	4249      	neglt	r1, r1
 80089c4:	2300      	movge	r3, #0
 80089c6:	71c3      	strbge	r3, [r0, #7]
 80089c8:	71c3      	strblt	r3, [r0, #7]
 80089ca:	6011      	str	r1, [r2, #0]
 80089cc:	bd10      	pop	{r4, pc}

080089ce <CopyBig>:
 80089ce:	8883      	ldrh	r3, [r0, #4]
 80089d0:	798a      	ldrb	r2, [r1, #6]
 80089d2:	429a      	cmp	r2, r3
 80089d4:	b570      	push	{r4, r5, r6, lr}
 80089d6:	d205      	bcs.n	80089e4 <CopyBig+0x16>
 80089d8:	3201      	adds	r2, #1
 80089da:	429a      	cmp	r2, r3
 80089dc:	d31e      	bcc.n	8008a1c <CopyBig+0x4e>
 80089de:	f241 44b5 	movw	r4, #5301	; 0x14b5
 80089e2:	e000      	b.n	80089e6 <CopyBig+0x18>
 80089e4:	2400      	movs	r4, #0
 80089e6:	79c2      	ldrb	r2, [r0, #7]
 80089e8:	71ca      	strb	r2, [r1, #7]
 80089ea:	808b      	strh	r3, [r1, #4]
 80089ec:	2200      	movs	r2, #0
 80089ee:	429a      	cmp	r2, r3
 80089f0:	da07      	bge.n	8008a02 <CopyBig+0x34>
 80089f2:	6805      	ldr	r5, [r0, #0]
 80089f4:	f855 6022 	ldr.w	r6, [r5, r2, lsl #2]
 80089f8:	680d      	ldr	r5, [r1, #0]
 80089fa:	f845 6022 	str.w	r6, [r5, r2, lsl #2]
 80089fe:	3201      	adds	r2, #1
 8008a00:	e7f5      	b.n	80089ee <CopyBig+0x20>
 8008a02:	2200      	movs	r2, #0
 8008a04:	798d      	ldrb	r5, [r1, #6]
 8008a06:	18d0      	adds	r0, r2, r3
 8008a08:	4285      	cmp	r5, r0
 8008a0a:	db05      	blt.n	8008a18 <CopyBig+0x4a>
 8008a0c:	680d      	ldr	r5, [r1, #0]
 8008a0e:	2600      	movs	r6, #0
 8008a10:	f845 6020 	str.w	r6, [r5, r0, lsl #2]
 8008a14:	3201      	adds	r2, #1
 8008a16:	e7f5      	b.n	8008a04 <CopyBig+0x36>
 8008a18:	4620      	mov	r0, r4
 8008a1a:	bd70      	pop	{r4, r5, r6, pc}
 8008a1c:	f241 40b5 	movw	r0, #5301	; 0x14b5
 8008a20:	bd70      	pop	{r4, r5, r6, pc}

08008a22 <Add_Moduli_Big>:
 8008a22:	e92d 4ff8 	stmdb	sp!, {r3, r4, r5, r6, r7, r8, r9, sl, fp, lr}
 8008a26:	4616      	mov	r6, r2
 8008a28:	f8d0 9000 	ldr.w	r9, [r0]
 8008a2c:	6817      	ldr	r7, [r2, #0]
 8008a2e:	888b      	ldrh	r3, [r1, #4]
 8008a30:	8882      	ldrh	r2, [r0, #4]
 8008a32:	f8d1 8000 	ldr.w	r8, [r1]
 8008a36:	4293      	cmp	r3, r2
 8008a38:	bf34      	ite	cc
 8008a3a:	469a      	movcc	sl, r3
 8008a3c:	4692      	movcs	sl, r2
 8008a3e:	eb09 0c82 	add.w	ip, r9, r2, lsl #2
 8008a42:	2500      	movs	r5, #0
 8008a44:	7984      	ldrb	r4, [r0, #6]
 8008a46:	eb05 0e02 	add.w	lr, r5, r2
 8008a4a:	3401      	adds	r4, #1
 8008a4c:	45a6      	cmp	lr, r4
 8008a4e:	f04f 0400 	mov.w	r4, #0
 8008a52:	d203      	bcs.n	8008a5c <Add_Moduli_Big+0x3a>
 8008a54:	f84c 4025 	str.w	r4, [ip, r5, lsl #2]
 8008a58:	3501      	adds	r5, #1
 8008a5a:	e7f3      	b.n	8008a44 <Add_Moduli_Big+0x22>
 8008a5c:	eb08 0c83 	add.w	ip, r8, r3, lsl #2
 8008a60:	798d      	ldrb	r5, [r1, #6]
 8008a62:	eb04 0e03 	add.w	lr, r4, r3
 8008a66:	3501      	adds	r5, #1
 8008a68:	45ae      	cmp	lr, r5
 8008a6a:	d204      	bcs.n	8008a76 <Add_Moduli_Big+0x54>
 8008a6c:	2500      	movs	r5, #0
 8008a6e:	f84c 5024 	str.w	r5, [ip, r4, lsl #2]
 8008a72:	3401      	adds	r4, #1
 8008a74:	e7f4      	b.n	8008a60 <Add_Moduli_Big+0x3e>
 8008a76:	429a      	cmp	r2, r3
 8008a78:	bf38      	it	cc
 8008a7a:	4608      	movcc	r0, r1
 8008a7c:	4631      	mov	r1, r6
 8008a7e:	f7ff ffa6 	bl	80089ce <CopyBig>
 8008a82:	ea4f 0b8a 	mov.w	fp, sl, lsl #2
 8008a86:	46d4      	mov	ip, sl
 8008a88:	2200      	movs	r2, #0
 8008a8a:	2000      	movs	r0, #0
 8008a8c:	2100      	movs	r1, #0
 8008a8e:	455a      	cmp	r2, fp
 8008a90:	d00f      	beq.n	8008ab2 <Add_Moduli_Big+0x90>
 8008a92:	f859 3002 	ldr.w	r3, [r9, r2]
 8008a96:	f858 4002 	ldr.w	r4, [r8, r2]
 8008a9a:	2500      	movs	r5, #0
 8008a9c:	18e4      	adds	r4, r4, r3
 8008a9e:	f145 0500 	adc.w	r5, r5, #0
 8008aa2:	1824      	adds	r4, r4, r0
 8008aa4:	eb45 0501 	adc.w	r5, r5, r1
 8008aa8:	50bc      	str	r4, [r7, r2]
 8008aaa:	4628      	mov	r0, r5
 8008aac:	2100      	movs	r1, #0
 8008aae:	3204      	adds	r2, #4
 8008ab0:	e7ed      	b.n	8008a8e <Add_Moduli_Big+0x6c>
 8008ab2:	ea50 0301 	orrs.w	r3, r0, r1
 8008ab6:	88b1      	ldrh	r1, [r6, #4]
 8008ab8:	d104      	bne.n	8008ac4 <Add_Moduli_Big+0xa2>
 8008aba:	f857 3021 	ldr.w	r3, [r7, r1, lsl #2]
 8008abe:	b9b3      	cbnz	r3, 8008aee <Add_Moduli_Big+0xcc>
 8008ac0:	e8bd 8ff8 	ldmia.w	sp!, {r3, r4, r5, r6, r7, r8, r9, sl, fp, pc}
 8008ac4:	58bb      	ldr	r3, [r7, r2]
 8008ac6:	f10a 4a80 	add.w	sl, sl, #1073741824	; 0x40000000
 8008aca:	3301      	adds	r3, #1
 8008acc:	f10a 3aff 	add.w	sl, sl, #4294967295
 8008ad0:	50bb      	str	r3, [r7, r2]
 8008ad2:	eb07 038a 	add.w	r3, r7, sl, lsl #2
 8008ad6:	f853 2f04 	ldr.w	r2, [r3, #4]!
 8008ada:	2a00      	cmp	r2, #0
 8008adc:	d1ed      	bne.n	8008aba <Add_Moduli_Big+0x98>
 8008ade:	458c      	cmp	ip, r1
 8008ae0:	d8eb      	bhi.n	8008aba <Add_Moduli_Big+0x98>
 8008ae2:	685a      	ldr	r2, [r3, #4]
 8008ae4:	3201      	adds	r2, #1
 8008ae6:	f10c 0c01 	add.w	ip, ip, #1
 8008aea:	605a      	str	r2, [r3, #4]
 8008aec:	e7f3      	b.n	8008ad6 <Add_Moduli_Big+0xb4>
 8008aee:	3101      	adds	r1, #1
 8008af0:	80b1      	strh	r1, [r6, #4]
 8008af2:	e8bd 8ff8 	ldmia.w	sp!, {r3, r4, r5, r6, r7, r8, r9, sl, fp, pc}

08008af6 <IsZeroBig>:
 8008af6:	8883      	ldrh	r3, [r0, #4]
 8008af8:	2b01      	cmp	r3, #1
 8008afa:	d106      	bne.n	8008b0a <IsZeroBig+0x14>
 8008afc:	6803      	ldr	r3, [r0, #0]
 8008afe:	6818      	ldr	r0, [r3, #0]
 8008b00:	f1d0 0001 	rsbs	r0, r0, #1
 8008b04:	bf38      	it	cc
 8008b06:	2000      	movcc	r0, #0
 8008b08:	4770      	bx	lr
 8008b0a:	2000      	movs	r0, #0
 8008b0c:	4770      	bx	lr

08008b0e <SetZeroBig>:
 8008b0e:	b510      	push	{r4, lr}
 8008b10:	2300      	movs	r3, #0
 8008b12:	71c3      	strb	r3, [r0, #7]
 8008b14:	7981      	ldrb	r1, [r0, #6]
 8008b16:	b29a      	uxth	r2, r3
 8008b18:	3101      	adds	r1, #1
 8008b1a:	428a      	cmp	r2, r1
 8008b1c:	f103 0301 	add.w	r3, r3, #1
 8008b20:	d204      	bcs.n	8008b2c <SetZeroBig+0x1e>
 8008b22:	6801      	ldr	r1, [r0, #0]
 8008b24:	2400      	movs	r4, #0
 8008b26:	f841 4022 	str.w	r4, [r1, r2, lsl #2]
 8008b2a:	e7f3      	b.n	8008b14 <SetZeroBig+0x6>
 8008b2c:	2301      	movs	r3, #1
 8008b2e:	8083      	strh	r3, [r0, #4]
 8008b30:	bd10      	pop	{r4, pc}

08008b32 <SignBig>:
 8008b32:	f990 0007 	ldrsb.w	r0, [r0, #7]
 8008b36:	1e43      	subs	r3, r0, #1
 8008b38:	4258      	negs	r0, r3
 8008b3a:	4158      	adcs	r0, r3
 8008b3c:	4770      	bx	lr

08008b3e <EvenBig>:
 8008b3e:	6803      	ldr	r3, [r0, #0]
 8008b40:	6818      	ldr	r0, [r3, #0]
 8008b42:	f000 0001 	and.w	r0, r0, #1
 8008b46:	f080 0001 	eor.w	r0, r0, #1
 8008b4a:	4770      	bx	lr

08008b4c <CompareBig>:
 8008b4c:	e92d 41f0 	stmdb	sp!, {r4, r5, r6, r7, r8, lr}
 8008b50:	79c2      	ldrb	r2, [r0, #7]
 8008b52:	79cb      	ldrb	r3, [r1, #7]
 8008b54:	4293      	cmp	r3, r2
 8008b56:	b254      	sxtb	r4, r2
 8008b58:	d132      	bne.n	8008bc0 <CompareBig+0x74>
 8008b5a:	8884      	ldrh	r4, [r0, #4]
 8008b5c:	888d      	ldrh	r5, [r1, #4]
 8008b5e:	42ac      	cmp	r4, r5
 8008b60:	d820      	bhi.n	8008ba4 <CompareBig+0x58>
 8008b62:	d326      	bcc.n	8008bb2 <CompareBig+0x66>
 8008b64:	6800      	ldr	r0, [r0, #0]
 8008b66:	6809      	ldr	r1, [r1, #0]
 8008b68:	eb00 0784 	add.w	r7, r0, r4, lsl #2
 8008b6c:	eb01 0c85 	add.w	ip, r1, r5, lsl #2
 8008b70:	2301      	movs	r3, #1
 8008b72:	f06f 0603 	mvn.w	r6, #3
 8008b76:	435e      	muls	r6, r3
 8008b78:	f857 8006 	ldr.w	r8, [r7, r6]
 8008b7c:	f85c 6006 	ldr.w	r6, [ip, r6]
 8008b80:	45b0      	cmp	r8, r6
 8008b82:	d104      	bne.n	8008b8e <CompareBig+0x42>
 8008b84:	42a3      	cmp	r3, r4
 8008b86:	d802      	bhi.n	8008b8e <CompareBig+0x42>
 8008b88:	3301      	adds	r3, #1
 8008b8a:	42a3      	cmp	r3, r4
 8008b8c:	d9f1      	bls.n	8008b72 <CompareBig+0x26>
 8008b8e:	1e5e      	subs	r6, r3, #1
 8008b90:	42a6      	cmp	r6, r4
 8008b92:	d01e      	beq.n	8008bd2 <CompareBig+0x86>
 8008b94:	1ae4      	subs	r4, r4, r3
 8008b96:	1aeb      	subs	r3, r5, r3
 8008b98:	f850 0024 	ldr.w	r0, [r0, r4, lsl #2]
 8008b9c:	f851 3023 	ldr.w	r3, [r1, r3, lsl #2]
 8008ba0:	4298      	cmp	r0, r3
 8008ba2:	d906      	bls.n	8008bb2 <CompareBig+0x66>
 8008ba4:	2a00      	cmp	r2, #0
 8008ba6:	bf0c      	ite	eq
 8008ba8:	2002      	moveq	r0, #2
 8008baa:	f06f 0001 	mvnne.w	r0, #1
 8008bae:	e8bd 81f0 	ldmia.w	sp!, {r4, r5, r6, r7, r8, pc}
 8008bb2:	2a00      	cmp	r2, #0
 8008bb4:	bf0c      	ite	eq
 8008bb6:	f04f 30ff 	moveq.w	r0, #4294967295
 8008bba:	2001      	movne	r0, #1
 8008bbc:	e8bd 81f0 	ldmia.w	sp!, {r4, r5, r6, r7, r8, pc}
 8008bc0:	2c01      	cmp	r4, #1
 8008bc2:	d109      	bne.n	8008bd8 <CompareBig+0x8c>
 8008bc4:	2b00      	cmp	r3, #0
 8008bc6:	bf0c      	ite	eq
 8008bc8:	f06f 0002 	mvneq.w	r0, #2
 8008bcc:	2003      	movne	r0, #3
 8008bce:	e8bd 81f0 	ldmia.w	sp!, {r4, r5, r6, r7, r8, pc}
 8008bd2:	2000      	movs	r0, #0
 8008bd4:	e8bd 81f0 	ldmia.w	sp!, {r4, r5, r6, r7, r8, pc}
 8008bd8:	2003      	movs	r0, #3
 8008bda:	e8bd 81f0 	ldmia.w	sp!, {r4, r5, r6, r7, r8, pc}

08008bde <CountBits>:
 8008bde:	b510      	push	{r4, lr}
 8008be0:	4604      	mov	r4, r0
 8008be2:	f7ff ff88 	bl	8008af6 <IsZeroBig>
 8008be6:	b9a0      	cbnz	r0, 8008c12 <CountBits+0x34>
 8008be8:	88a2      	ldrh	r2, [r4, #4]
 8008bea:	6821      	ldr	r1, [r4, #0]
 8008bec:	0153      	lsls	r3, r2, #5
 8008bee:	f102 4280 	add.w	r2, r2, #1073741824	; 0x40000000
 8008bf2:	3a01      	subs	r2, #1
 8008bf4:	f851 0022 	ldr.w	r0, [r1, r2, lsl #2]
 8008bf8:	f1a3 0120 	sub.w	r1, r3, #32
 8008bfc:	f04f 4200 	mov.w	r2, #2147483648	; 0x80000000
 8008c00:	ea02 0400 	and.w	r4, r2, r0
 8008c04:	4294      	cmp	r4, r2
 8008c06:	d006      	beq.n	8008c16 <CountBits+0x38>
 8008c08:	428b      	cmp	r3, r1
 8008c0a:	d004      	beq.n	8008c16 <CountBits+0x38>
 8008c0c:	0852      	lsrs	r2, r2, #1
 8008c0e:	3b01      	subs	r3, #1
 8008c10:	e7f6      	b.n	8008c00 <CountBits+0x22>
 8008c12:	2001      	movs	r0, #1
 8008c14:	bd10      	pop	{r4, pc}
 8008c16:	4618      	mov	r0, r3
 8008c18:	bd10      	pop	{r4, pc}

08008c1a <CountBytes>:
 8008c1a:	b510      	push	{r4, lr}
 8008c1c:	4604      	mov	r4, r0
 8008c1e:	f7ff ff6a 	bl	8008af6 <IsZeroBig>
 8008c22:	2801      	cmp	r0, #1
 8008c24:	d010      	beq.n	8008c48 <CountBytes+0x2e>
 8008c26:	88a3      	ldrh	r3, [r4, #4]
 8008c28:	6822      	ldr	r2, [r4, #0]
 8008c2a:	009b      	lsls	r3, r3, #2
 8008c2c:	441a      	add	r2, r3
 8008c2e:	1f19      	subs	r1, r3, #4
 8008c30:	f852 0c04 	ldr.w	r0, [r2, #-4]
 8008c34:	f04f 427f 	mov.w	r2, #4278190080	; 0xff000000
 8008c38:	4202      	tst	r2, r0
 8008c3a:	d104      	bne.n	8008c46 <CountBytes+0x2c>
 8008c3c:	428b      	cmp	r3, r1
 8008c3e:	d002      	beq.n	8008c46 <CountBytes+0x2c>
 8008c40:	0a12      	lsrs	r2, r2, #8
 8008c42:	3b01      	subs	r3, #1
 8008c44:	e7f8      	b.n	8008c38 <CountBytes+0x1e>
 8008c46:	4618      	mov	r0, r3
 8008c48:	bd10      	pop	{r4, pc}

08008c4a <GiveBit>:
 8008c4a:	f001 031f 	and.w	r3, r1, #31
 8008c4e:	2201      	movs	r2, #1
 8008c50:	fa02 f303 	lsl.w	r3, r2, r3
 8008c54:	0949      	lsrs	r1, r1, #5
 8008c56:	6802      	ldr	r2, [r0, #0]
 8008c58:	f852 0021 	ldr.w	r0, [r2, r1, lsl #2]
 8008c5c:	4018      	ands	r0, r3
 8008c5e:	1ac3      	subs	r3, r0, r3
 8008c60:	4258      	negs	r0, r3
 8008c62:	4158      	adcs	r0, r3
 8008c64:	4770      	bx	lr
	...

08008c68 <W32_to_W8>:
 8008c68:	b570      	push	{r4, r5, r6, lr}
 8008c6a:	2404      	movs	r4, #4
 8008c6c:	fb92 f4f4 	sdiv	r4, r2, r4
 8008c70:	188d      	adds	r5, r1, r2
 8008c72:	2300      	movs	r3, #0
 8008c74:	42a3      	cmp	r3, r4
 8008c76:	da06      	bge.n	8008c86 <W32_to_W8+0x1e>
 8008c78:	f850 6023 	ldr.w	r6, [r0, r3, lsl #2]
 8008c7c:	ba36      	rev	r6, r6
 8008c7e:	f845 6d04 	str.w	r6, [r5, #-4]!
 8008c82:	3301      	adds	r3, #1
 8008c84:	e7f6      	b.n	8008c74 <W32_to_W8+0xc>
 8008c86:	0793      	lsls	r3, r2, #30
 8008c88:	ea24 74e4 	bic.w	r4, r4, r4, asr #31
 8008c8c:	d00f      	beq.n	8008cae <W32_to_W8+0x46>
 8008c8e:	4b08      	ldr	r3, [pc, #32]	; (8008cb0 <W32_to_W8+0x48>)
 8008c90:	f850 0024 	ldr.w	r0, [r0, r4, lsl #2]
 8008c94:	4013      	ands	r3, r2
 8008c96:	2b00      	cmp	r3, #0
 8008c98:	da03      	bge.n	8008ca2 <W32_to_W8+0x3a>
 8008c9a:	3b01      	subs	r3, #1
 8008c9c:	f063 0303 	orn	r3, r3, #3
 8008ca0:	3301      	adds	r3, #1
 8008ca2:	3b01      	subs	r3, #1
 8008ca4:	2b00      	cmp	r3, #0
 8008ca6:	db02      	blt.n	8008cae <W32_to_W8+0x46>
 8008ca8:	54c8      	strb	r0, [r1, r3]
 8008caa:	0a00      	lsrs	r0, r0, #8
 8008cac:	e7f9      	b.n	8008ca2 <W32_to_W8+0x3a>
 8008cae:	bd70      	pop	{r4, r5, r6, pc}
 8008cb0:	80000003 	.word	0x80000003

08008cb4 <W8_to_Big>:
 8008cb4:	b5f8      	push	{r3, r4, r5, r6, r7, lr}
 8008cb6:	460c      	mov	r4, r1
 8008cb8:	2a00      	cmp	r2, #0
 8008cba:	d053      	beq.n	8008d64 <W8_to_Big+0xb0>
 8008cbc:	b908      	cbnz	r0, 8008cc2 <W8_to_Big+0xe>
 8008cbe:	2900      	cmp	r1, #0
 8008cc0:	d150      	bne.n	8008d64 <W8_to_Big+0xb0>
 8008cc2:	1ce7      	adds	r7, r4, #3
 8008cc4:	7993      	ldrb	r3, [r2, #6]
 8008cc6:	08bf      	lsrs	r7, r7, #2
 8008cc8:	42bb      	cmp	r3, r7
 8008cca:	d348      	bcc.n	8008d5e <W8_to_Big+0xaa>
 8008ccc:	2c00      	cmp	r4, #0
 8008cce:	d041      	beq.n	8008d54 <W8_to_Big+0xa0>
 8008cd0:	2104      	movs	r1, #4
 8008cd2:	fb94 f1f1 	sdiv	r1, r4, r1
 8008cd6:	1906      	adds	r6, r0, r4
 8008cd8:	2500      	movs	r5, #0
 8008cda:	428d      	cmp	r5, r1
 8008cdc:	6813      	ldr	r3, [r2, #0]
 8008cde:	da07      	bge.n	8008cf0 <W8_to_Big+0x3c>
 8008ce0:	f856 cd04 	ldr.w	ip, [r6, #-4]!
 8008ce4:	fa9c fc8c 	rev.w	ip, ip
 8008ce8:	f843 c025 	str.w	ip, [r3, r5, lsl #2]
 8008cec:	3501      	adds	r5, #1
 8008cee:	e7f4      	b.n	8008cda <W8_to_Big+0x26>
 8008cf0:	ea21 75e1 	bic.w	r5, r1, r1, asr #31
 8008cf4:	00ae      	lsls	r6, r5, #2
 8008cf6:	f892 c006 	ldrb.w	ip, [r2, #6]
 8008cfa:	4565      	cmp	r5, ip
 8008cfc:	da06      	bge.n	8008d0c <W8_to_Big+0x58>
 8008cfe:	f04f 0c00 	mov.w	ip, #0
 8008d02:	f843 c006 	str.w	ip, [r3, r6]
 8008d06:	3501      	adds	r5, #1
 8008d08:	3604      	adds	r6, #4
 8008d0a:	e7f4      	b.n	8008cf6 <W8_to_Big+0x42>
 8008d0c:	f014 0403 	ands.w	r4, r4, #3
 8008d10:	d101      	bne.n	8008d16 <W8_to_Big+0x62>
 8008d12:	8097      	strh	r7, [r2, #4]
 8008d14:	e013      	b.n	8008d3e <W8_to_Big+0x8a>
 8008d16:	7806      	ldrb	r6, [r0, #0]
 8008d18:	f843 6021 	str.w	r6, [r3, r1, lsl #2]
 8008d1c:	eb03 0581 	add.w	r5, r3, r1, lsl #2
 8008d20:	2101      	movs	r1, #1
 8008d22:	42a1      	cmp	r1, r4
 8008d24:	daf5      	bge.n	8008d12 <W8_to_Big+0x5e>
 8008d26:	f810 c001 	ldrb.w	ip, [r0, r1]
 8008d2a:	682e      	ldr	r6, [r5, #0]
 8008d2c:	ea4c 2606 	orr.w	r6, ip, r6, lsl #8
 8008d30:	602e      	str	r6, [r5, #0]
 8008d32:	3101      	adds	r1, #1
 8008d34:	e7f5      	b.n	8008d22 <W8_to_Big+0x6e>
 8008d36:	2901      	cmp	r1, #1
 8008d38:	d009      	beq.n	8008d4e <W8_to_Big+0x9a>
 8008d3a:	3901      	subs	r1, #1
 8008d3c:	8091      	strh	r1, [r2, #4]
 8008d3e:	8891      	ldrh	r1, [r2, #4]
 8008d40:	f101 4080 	add.w	r0, r1, #1073741824	; 0x40000000
 8008d44:	3801      	subs	r0, #1
 8008d46:	f853 0020 	ldr.w	r0, [r3, r0, lsl #2]
 8008d4a:	2800      	cmp	r0, #0
 8008d4c:	d0f3      	beq.n	8008d36 <W8_to_Big+0x82>
 8008d4e:	2000      	movs	r0, #0
 8008d50:	71d0      	strb	r0, [r2, #7]
 8008d52:	bdf8      	pop	{r3, r4, r5, r6, r7, pc}
 8008d54:	4610      	mov	r0, r2
 8008d56:	f7ff feda 	bl	8008b0e <SetZeroBig>
 8008d5a:	4620      	mov	r0, r4
 8008d5c:	bdf8      	pop	{r3, r4, r5, r6, r7, pc}
 8008d5e:	f241 40b5 	movw	r0, #5301	; 0x14b5
 8008d62:	bdf8      	pop	{r3, r4, r5, r6, r7, pc}
 8008d64:	f241 40b8 	movw	r0, #5304	; 0x14b8
 8008d68:	bdf8      	pop	{r3, r4, r5, r6, r7, pc}

08008d6a <Big_to_W8>:
 8008d6a:	b5f8      	push	{r3, r4, r5, r6, r7, lr}
 8008d6c:	460d      	mov	r5, r1
 8008d6e:	4616      	mov	r6, r2
 8008d70:	4604      	mov	r4, r0
 8008d72:	f7ff ff52 	bl	8008c1a <CountBytes>
 8008d76:	2204      	movs	r2, #4
 8008d78:	fb90 f2f2 	sdiv	r2, r0, r2
 8008d7c:	1829      	adds	r1, r5, r0
 8008d7e:	2300      	movs	r3, #0
 8008d80:	4293      	cmp	r3, r2
 8008d82:	da07      	bge.n	8008d94 <Big_to_W8+0x2a>
 8008d84:	6827      	ldr	r7, [r4, #0]
 8008d86:	f857 7023 	ldr.w	r7, [r7, r3, lsl #2]
 8008d8a:	ba3f      	rev	r7, r7
 8008d8c:	f841 7d04 	str.w	r7, [r1, #-4]!
 8008d90:	3301      	adds	r3, #1
 8008d92:	e7f5      	b.n	8008d80 <Big_to_W8+0x16>
 8008d94:	f010 0303 	ands.w	r3, r0, #3
 8008d98:	ea22 72e2 	bic.w	r2, r2, r2, asr #31
 8008d9c:	d101      	bne.n	8008da2 <Big_to_W8+0x38>
 8008d9e:	b95e      	cbnz	r6, 8008db8 <Big_to_W8+0x4e>
 8008da0:	bdf8      	pop	{r3, r4, r5, r6, r7, pc}
 8008da2:	6821      	ldr	r1, [r4, #0]
 8008da4:	f851 4022 	ldr.w	r4, [r1, r2, lsl #2]
 8008da8:	3b01      	subs	r3, #1
 8008daa:	54ec      	strb	r4, [r5, r3]
 8008dac:	f113 33ff 	adds.w	r3, r3, #4294967295
 8008db0:	ea4f 2414 	mov.w	r4, r4, lsr #8
 8008db4:	d2f9      	bcs.n	8008daa <Big_to_W8+0x40>
 8008db6:	e7f2      	b.n	8008d9e <Big_to_W8+0x34>
 8008db8:	6030      	str	r0, [r6, #0]
 8008dba:	bdf8      	pop	{r3, r4, r5, r6, r7, pc}

08008dbc <Big_to_fixedW8>:
 8008dbc:	b573      	push	{r0, r1, r4, r5, r6, lr}
 8008dbe:	460c      	mov	r4, r1
 8008dc0:	4615      	mov	r5, r2
 8008dc2:	4606      	mov	r6, r0
 8008dc4:	b1c0      	cbz	r0, 8008df8 <Big_to_fixedW8+0x3c>
 8008dc6:	b1b9      	cbz	r1, 8008df8 <Big_to_fixedW8+0x3c>
 8008dc8:	f7ff ff27 	bl	8008c1a <CountBytes>
 8008dcc:	42a8      	cmp	r0, r5
 8008dce:	9001      	str	r0, [sp, #4]
 8008dd0:	dc0f      	bgt.n	8008df2 <Big_to_fixedW8+0x36>
 8008dd2:	1a29      	subs	r1, r5, r0
 8008dd4:	4421      	add	r1, r4
 8008dd6:	4630      	mov	r0, r6
 8008dd8:	aa01      	add	r2, sp, #4
 8008dda:	f7ff ffc6 	bl	8008d6a <Big_to_W8>
 8008dde:	9b01      	ldr	r3, [sp, #4]
 8008de0:	1aed      	subs	r5, r5, r3
 8008de2:	2300      	movs	r3, #0
 8008de4:	42ab      	cmp	r3, r5
 8008de6:	f04f 0000 	mov.w	r0, #0
 8008dea:	da07      	bge.n	8008dfc <Big_to_fixedW8+0x40>
 8008dec:	54e0      	strb	r0, [r4, r3]
 8008dee:	3301      	adds	r3, #1
 8008df0:	e7f8      	b.n	8008de4 <Big_to_fixedW8+0x28>
 8008df2:	f241 40b5 	movw	r0, #5301	; 0x14b5
 8008df6:	e001      	b.n	8008dfc <Big_to_fixedW8+0x40>
 8008df8:	f241 40b8 	movw	r0, #5304	; 0x14b8
 8008dfc:	b002      	add	sp, #8
 8008dfe:	bd70      	pop	{r4, r5, r6, pc}

08008e00 <FastMul2>:
 8008e00:	b570      	push	{r4, r5, r6, lr}
 8008e02:	4604      	mov	r4, r0
 8008e04:	f7ff fe77 	bl	8008af6 <IsZeroBig>
 8008e08:	b108      	cbz	r0, 8008e0e <FastMul2+0xe>
 8008e0a:	2000      	movs	r0, #0
 8008e0c:	bd70      	pop	{r4, r5, r6, pc}
 8008e0e:	88a1      	ldrh	r1, [r4, #4]
 8008e10:	4608      	mov	r0, r1
 8008e12:	008a      	lsls	r2, r1, #2
 8008e14:	6823      	ldr	r3, [r4, #0]
 8008e16:	b150      	cbz	r0, 8008e2e <FastMul2+0x2e>
 8008e18:	189d      	adds	r5, r3, r2
 8008e1a:	3801      	subs	r0, #1
 8008e1c:	f855 6c04 	ldr.w	r6, [r5, #-4]
 8008e20:	589d      	ldr	r5, [r3, r2]
 8008e22:	006d      	lsls	r5, r5, #1
 8008e24:	ea45 75d6 	orr.w	r5, r5, r6, lsr #31
 8008e28:	509d      	str	r5, [r3, r2]
 8008e2a:	3a04      	subs	r2, #4
 8008e2c:	e7f2      	b.n	8008e14 <FastMul2+0x14>
 8008e2e:	681a      	ldr	r2, [r3, #0]
 8008e30:	0052      	lsls	r2, r2, #1
 8008e32:	601a      	str	r2, [r3, #0]
 8008e34:	f853 3021 	ldr.w	r3, [r3, r1, lsl #2]
 8008e38:	2b01      	cmp	r3, #1
 8008e3a:	d1e6      	bne.n	8008e0a <FastMul2+0xa>
 8008e3c:	3101      	adds	r1, #1
 8008e3e:	b289      	uxth	r1, r1
 8008e40:	79a2      	ldrb	r2, [r4, #6]
 8008e42:	80a1      	strh	r1, [r4, #4]
 8008e44:	f241 43b5 	movw	r3, #5301	; 0x14b5
 8008e48:	3101      	adds	r1, #1
 8008e4a:	4291      	cmp	r1, r2
 8008e4c:	bf8c      	ite	hi
 8008e4e:	4618      	movhi	r0, r3
 8008e50:	2000      	movls	r0, #0
 8008e52:	bd70      	pop	{r4, r5, r6, pc}

08008e54 <FastDiv2>:
 8008e54:	b5f8      	push	{r3, r4, r5, r6, r7, lr}
 8008e56:	4604      	mov	r4, r0
 8008e58:	f7ff fe4d 	bl	8008af6 <IsZeroBig>
 8008e5c:	b9c8      	cbnz	r0, 8008e92 <FastDiv2+0x3e>
 8008e5e:	88a5      	ldrh	r5, [r4, #4]
 8008e60:	4601      	mov	r1, r0
 8008e62:	1e6a      	subs	r2, r5, #1
 8008e64:	4291      	cmp	r1, r2
 8008e66:	6823      	ldr	r3, [r4, #0]
 8008e68:	d209      	bcs.n	8008e7e <FastDiv2+0x2a>
 8008e6a:	0088      	lsls	r0, r1, #2
 8008e6c:	181e      	adds	r6, r3, r0
 8008e6e:	3101      	adds	r1, #1
 8008e70:	6877      	ldr	r7, [r6, #4]
 8008e72:	581e      	ldr	r6, [r3, r0]
 8008e74:	0876      	lsrs	r6, r6, #1
 8008e76:	ea46 76c7 	orr.w	r6, r6, r7, lsl #31
 8008e7a:	501e      	str	r6, [r3, r0]
 8008e7c:	e7f2      	b.n	8008e64 <FastDiv2+0x10>
 8008e7e:	f853 1022 	ldr.w	r1, [r3, r2, lsl #2]
 8008e82:	2d01      	cmp	r5, #1
 8008e84:	ea4f 0151 	mov.w	r1, r1, lsr #1
 8008e88:	f843 1022 	str.w	r1, [r3, r2, lsl #2]
 8008e8c:	d901      	bls.n	8008e92 <FastDiv2+0x3e>
 8008e8e:	b901      	cbnz	r1, 8008e92 <FastDiv2+0x3e>
 8008e90:	80a2      	strh	r2, [r4, #4]
 8008e92:	bdf8      	pop	{r3, r4, r5, r6, r7, pc}

08008e94 <FastMulInnerBase>:
 8008e94:	b5f8      	push	{r3, r4, r5, r6, r7, lr}
 8008e96:	8882      	ldrh	r2, [r0, #4]
 8008e98:	7983      	ldrb	r3, [r0, #6]
 8008e9a:	440a      	add	r2, r1
 8008e9c:	429a      	cmp	r2, r3
 8008e9e:	4605      	mov	r5, r0
 8008ea0:	460c      	mov	r4, r1
 8008ea2:	dc23      	bgt.n	8008eec <FastMulInnerBase+0x58>
 8008ea4:	f7ff fe27 	bl	8008af6 <IsZeroBig>
 8008ea8:	bb18      	cbnz	r0, 8008ef2 <FastMulInnerBase+0x5e>
 8008eaa:	b31c      	cbz	r4, 8008ef4 <FastMulInnerBase+0x60>
 8008eac:	88ae      	ldrh	r6, [r5, #4]
 8008eae:	f106 4180 	add.w	r1, r6, #1073741824	; 0x40000000
 8008eb2:	3901      	subs	r1, #1
 8008eb4:	4421      	add	r1, r4
 8008eb6:	f06f 0c03 	mvn.w	ip, #3
 8008eba:	1e73      	subs	r3, r6, #1
 8008ebc:	0089      	lsls	r1, r1, #2
 8008ebe:	fb0c fc04 	mul.w	ip, ip, r4
 8008ec2:	682a      	ldr	r2, [r5, #0]
 8008ec4:	b133      	cbz	r3, 8008ed4 <FastMulInnerBase+0x40>
 8008ec6:	1857      	adds	r7, r2, r1
 8008ec8:	3b01      	subs	r3, #1
 8008eca:	f857 700c 	ldr.w	r7, [r7, ip]
 8008ece:	5057      	str	r7, [r2, r1]
 8008ed0:	3904      	subs	r1, #4
 8008ed2:	e7f6      	b.n	8008ec2 <FastMulInnerBase+0x2e>
 8008ed4:	6811      	ldr	r1, [r2, #0]
 8008ed6:	f842 1024 	str.w	r1, [r2, r4, lsl #2]
 8008eda:	2100      	movs	r1, #0
 8008edc:	f842 1023 	str.w	r1, [r2, r3, lsl #2]
 8008ee0:	3301      	adds	r3, #1
 8008ee2:	42a3      	cmp	r3, r4
 8008ee4:	d3f9      	bcc.n	8008eda <FastMulInnerBase+0x46>
 8008ee6:	4434      	add	r4, r6
 8008ee8:	80ac      	strh	r4, [r5, #4]
 8008eea:	bdf8      	pop	{r3, r4, r5, r6, r7, pc}
 8008eec:	f241 40b5 	movw	r0, #5301	; 0x14b5
 8008ef0:	bdf8      	pop	{r3, r4, r5, r6, r7, pc}
 8008ef2:	2000      	movs	r0, #0
 8008ef4:	bdf8      	pop	{r3, r4, r5, r6, r7, pc}

08008ef6 <FastDivInnerBase>:
 8008ef6:	b5f8      	push	{r3, r4, r5, r6, r7, lr}
 8008ef8:	4602      	mov	r2, r0
 8008efa:	b1b9      	cbz	r1, 8008f2c <FastDivInnerBase+0x36>
 8008efc:	8884      	ldrh	r4, [r0, #4]
 8008efe:	428c      	cmp	r4, r1
 8008f00:	d802      	bhi.n	8008f08 <FastDivInnerBase+0x12>
 8008f02:	f7ff fe04 	bl	8008b0e <SetZeroBig>
 8008f06:	bdf8      	pop	{r3, r4, r5, r6, r7, pc}
 8008f08:	4608      	mov	r0, r1
 8008f0a:	ea4f 0c81 	mov.w	ip, r1, lsl #2
 8008f0e:	2300      	movs	r3, #0
 8008f10:	42a0      	cmp	r0, r4
 8008f12:	d209      	bcs.n	8008f28 <FastDivInnerBase+0x32>
 8008f14:	6815      	ldr	r5, [r2, #0]
 8008f16:	eb03 060c 	add.w	r6, r3, ip
 8008f1a:	3001      	adds	r0, #1
 8008f1c:	59af      	ldr	r7, [r5, r6]
 8008f1e:	50ef      	str	r7, [r5, r3]
 8008f20:	2700      	movs	r7, #0
 8008f22:	51af      	str	r7, [r5, r6]
 8008f24:	3304      	adds	r3, #4
 8008f26:	e7f3      	b.n	8008f10 <FastDivInnerBase+0x1a>
 8008f28:	1a61      	subs	r1, r4, r1
 8008f2a:	8091      	strh	r1, [r2, #4]
 8008f2c:	bdf8      	pop	{r3, r4, r5, r6, r7, pc}

08008f2e <LeftShift>:
 8008f2e:	e92d 43f0 	stmdb	sp!, {r4, r5, r6, r7, r8, r9, lr}
 8008f32:	b399      	cbz	r1, 8008f9c <LeftShift+0x6e>
 8008f34:	8884      	ldrh	r4, [r0, #4]
 8008f36:	6803      	ldr	r3, [r0, #0]
 8008f38:	f104 4280 	add.w	r2, r4, #1073741824	; 0x40000000
 8008f3c:	3a01      	subs	r2, #1
 8008f3e:	f1c1 0c20 	rsb	ip, r1, #32
 8008f42:	f853 6022 	ldr.w	r6, [r3, r2, lsl #2]
 8008f46:	ea4f 0882 	mov.w	r8, r2, lsl #2
 8008f4a:	fa26 f60c 	lsr.w	r6, r6, ip
 8008f4e:	1e62      	subs	r2, r4, #1
 8008f50:	eb03 0584 	add.w	r5, r3, r4, lsl #2
 8008f54:	b162      	cbz	r2, 8008f70 <LeftShift+0x42>
 8008f56:	f855 7c08 	ldr.w	r7, [r5, #-8]
 8008f5a:	fa27 f90c 	lsr.w	r9, r7, ip
 8008f5e:	f855 7c04 	ldr.w	r7, [r5, #-4]
 8008f62:	408f      	lsls	r7, r1
 8008f64:	ea49 0707 	orr.w	r7, r9, r7
 8008f68:	f845 7d04 	str.w	r7, [r5, #-4]!
 8008f6c:	3a01      	subs	r2, #1
 8008f6e:	e7f1      	b.n	8008f54 <LeftShift+0x26>
 8008f70:	681d      	ldr	r5, [r3, #0]
 8008f72:	fa05 f101 	lsl.w	r1, r5, r1
 8008f76:	6019      	str	r1, [r3, #0]
 8008f78:	b14e      	cbz	r6, 8008f8e <LeftShift+0x60>
 8008f7a:	7981      	ldrb	r1, [r0, #6]
 8008f7c:	3401      	adds	r4, #1
 8008f7e:	428c      	cmp	r4, r1
 8008f80:	d808      	bhi.n	8008f94 <LeftShift+0x66>
 8008f82:	4443      	add	r3, r8
 8008f84:	605e      	str	r6, [r3, #4]
 8008f86:	8084      	strh	r4, [r0, #4]
 8008f88:	4610      	mov	r0, r2
 8008f8a:	e8bd 83f0 	ldmia.w	sp!, {r4, r5, r6, r7, r8, r9, pc}
 8008f8e:	4630      	mov	r0, r6
 8008f90:	e8bd 83f0 	ldmia.w	sp!, {r4, r5, r6, r7, r8, r9, pc}
 8008f94:	f241 40b5 	movw	r0, #5301	; 0x14b5
 8008f98:	e8bd 83f0 	ldmia.w	sp!, {r4, r5, r6, r7, r8, r9, pc}
 8008f9c:	4608      	mov	r0, r1
 8008f9e:	e8bd 83f0 	ldmia.w	sp!, {r4, r5, r6, r7, r8, r9, pc}

08008fa2 <RightShift>:
 8008fa2:	1e4b      	subs	r3, r1, #1
 8008fa4:	2b1e      	cmp	r3, #30
 8008fa6:	b5f0      	push	{r4, r5, r6, r7, lr}
 8008fa8:	d820      	bhi.n	8008fec <RightShift+0x4a>
 8008faa:	8884      	ldrh	r4, [r0, #4]
 8008fac:	2200      	movs	r2, #0
 8008fae:	1e66      	subs	r6, r4, #1
 8008fb0:	42b2      	cmp	r2, r6
 8008fb2:	6803      	ldr	r3, [r0, #0]
 8008fb4:	d20d      	bcs.n	8008fd2 <RightShift+0x30>
 8008fb6:	0095      	lsls	r5, r2, #2
 8008fb8:	195f      	adds	r7, r3, r5
 8008fba:	f1c1 0c20 	rsb	ip, r1, #32
 8008fbe:	687f      	ldr	r7, [r7, #4]
 8008fc0:	fa07 fc0c 	lsl.w	ip, r7, ip
 8008fc4:	595f      	ldr	r7, [r3, r5]
 8008fc6:	40cf      	lsrs	r7, r1
 8008fc8:	ea4c 0707 	orr.w	r7, ip, r7
 8008fcc:	3201      	adds	r2, #1
 8008fce:	515f      	str	r7, [r3, r5]
 8008fd0:	e7ee      	b.n	8008fb0 <RightShift+0xe>
 8008fd2:	f104 4280 	add.w	r2, r4, #1073741824	; 0x40000000
 8008fd6:	3a01      	subs	r2, #1
 8008fd8:	f853 5022 	ldr.w	r5, [r3, r2, lsl #2]
 8008fdc:	fa25 f101 	lsr.w	r1, r5, r1
 8008fe0:	f843 1022 	str.w	r1, [r3, r2, lsl #2]
 8008fe4:	b911      	cbnz	r1, 8008fec <RightShift+0x4a>
 8008fe6:	2c01      	cmp	r4, #1
 8008fe8:	bf18      	it	ne
 8008fea:	8086      	strhne	r6, [r0, #4]
 8008fec:	bdf0      	pop	{r4, r5, r6, r7, pc}

08008fee <MulBigbyUnInt>:
 8008fee:	e92d 4df0 	stmdb	sp!, {r4, r5, r6, r7, r8, sl, fp, lr}
 8008ff2:	4606      	mov	r6, r0
 8008ff4:	460f      	mov	r7, r1
 8008ff6:	b1f9      	cbz	r1, 8009038 <MulBigbyUnInt+0x4a>
 8008ff8:	f8d0 8000 	ldr.w	r8, [r0]
 8008ffc:	8881      	ldrh	r1, [r0, #4]
 8008ffe:	46c4      	mov	ip, r8
 8009000:	2000      	movs	r0, #0
 8009002:	2200      	movs	r2, #0
 8009004:	2300      	movs	r3, #0
 8009006:	4288      	cmp	r0, r1
 8009008:	d20b      	bcs.n	8009022 <MulBigbyUnInt+0x34>
 800900a:	f8dc 4000 	ldr.w	r4, [ip]
 800900e:	4692      	mov	sl, r2
 8009010:	469b      	mov	fp, r3
 8009012:	fbe7 ab04 	umlal	sl, fp, r7, r4
 8009016:	f84c ab04 	str.w	sl, [ip], #4
 800901a:	465a      	mov	r2, fp
 800901c:	2300      	movs	r3, #0
 800901e:	3001      	adds	r0, #1
 8009020:	e7f1      	b.n	8009006 <MulBigbyUnInt+0x18>
 8009022:	b132      	cbz	r2, 8009032 <MulBigbyUnInt+0x44>
 8009024:	79b4      	ldrb	r4, [r6, #6]
 8009026:	1c48      	adds	r0, r1, #1
 8009028:	42a0      	cmp	r0, r4
 800902a:	d808      	bhi.n	800903e <MulBigbyUnInt+0x50>
 800902c:	80b0      	strh	r0, [r6, #4]
 800902e:	f848 2021 	str.w	r2, [r8, r1, lsl #2]
 8009032:	2000      	movs	r0, #0
 8009034:	e8bd 8df0 	ldmia.w	sp!, {r4, r5, r6, r7, r8, sl, fp, pc}
 8009038:	f7ff fd69 	bl	8008b0e <SetZeroBig>
 800903c:	e7f9      	b.n	8009032 <MulBigbyUnInt+0x44>
 800903e:	f241 40b5 	movw	r0, #5301	; 0x14b5
 8009042:	e8bd 8df0 	ldmia.w	sp!, {r4, r5, r6, r7, r8, sl, fp, pc}

08009046 <Sub_Moduli_Big>:
 8009046:	e92d 43f0 	stmdb	sp!, {r4, r5, r6, r7, r8, r9, lr}
 800904a:	8883      	ldrh	r3, [r0, #4]
 800904c:	f8b1 8004 	ldrh.w	r8, [r1, #4]
 8009050:	7994      	ldrb	r4, [r2, #6]
 8009052:	4543      	cmp	r3, r8
 8009054:	bf2c      	ite	cs
 8009056:	4699      	movcs	r9, r3
 8009058:	46c1      	movcc	r9, r8
 800905a:	3401      	adds	r4, #1
 800905c:	45a1      	cmp	r9, r4
 800905e:	d857      	bhi.n	8009110 <Sub_Moduli_Big+0xca>
 8009060:	7984      	ldrb	r4, [r0, #6]
 8009062:	429c      	cmp	r4, r3
 8009064:	d306      	bcc.n	8009074 <Sub_Moduli_Big+0x2e>
 8009066:	6804      	ldr	r4, [r0, #0]
 8009068:	2500      	movs	r5, #0
 800906a:	f844 5023 	str.w	r5, [r4, r3, lsl #2]
 800906e:	3301      	adds	r3, #1
 8009070:	b29b      	uxth	r3, r3
 8009072:	e7f5      	b.n	8009060 <Sub_Moduli_Big+0x1a>
 8009074:	4643      	mov	r3, r8
 8009076:	798c      	ldrb	r4, [r1, #6]
 8009078:	429c      	cmp	r4, r3
 800907a:	f04f 0400 	mov.w	r4, #0
 800907e:	d305      	bcc.n	800908c <Sub_Moduli_Big+0x46>
 8009080:	680d      	ldr	r5, [r1, #0]
 8009082:	f845 4023 	str.w	r4, [r5, r3, lsl #2]
 8009086:	3301      	adds	r3, #1
 8009088:	b29b      	uxth	r3, r3
 800908a:	e7f4      	b.n	8009076 <Sub_Moduli_Big+0x30>
 800908c:	46a4      	mov	ip, r4
 800908e:	2500      	movs	r5, #0
 8009090:	2400      	movs	r4, #0
 8009092:	fa1f f38c 	uxth.w	r3, ip
 8009096:	f108 0601 	add.w	r6, r8, #1
 800909a:	42b3      	cmp	r3, r6
 800909c:	f10c 0c01 	add.w	ip, ip, #1
 80090a0:	d211      	bcs.n	80090c6 <Sub_Moduli_Big+0x80>
 80090a2:	6806      	ldr	r6, [r0, #0]
 80090a4:	f856 7023 	ldr.w	r7, [r6, r3, lsl #2]
 80090a8:	680e      	ldr	r6, [r1, #0]
 80090aa:	f856 6023 	ldr.w	r6, [r6, r3, lsl #2]
 80090ae:	1bbe      	subs	r6, r7, r6
 80090b0:	eb67 0707 	sbc.w	r7, r7, r7
 80090b4:	1936      	adds	r6, r6, r4
 80090b6:	6814      	ldr	r4, [r2, #0]
 80090b8:	eb47 0705 	adc.w	r7, r7, r5
 80090bc:	f844 6023 	str.w	r6, [r4, r3, lsl #2]
 80090c0:	17fd      	asrs	r5, r7, #31
 80090c2:	463c      	mov	r4, r7
 80090c4:	e7e5      	b.n	8009092 <Sub_Moduli_Big+0x4c>
 80090c6:	454b      	cmp	r3, r9
 80090c8:	6811      	ldr	r1, [r2, #0]
 80090ca:	d20d      	bcs.n	80090e8 <Sub_Moduli_Big+0xa2>
 80090cc:	6806      	ldr	r6, [r0, #0]
 80090ce:	f856 c023 	ldr.w	ip, [r6, r3, lsl #2]
 80090d2:	eb14 060c 	adds.w	r6, r4, ip
 80090d6:	f145 0700 	adc.w	r7, r5, #0
 80090da:	f841 6023 	str.w	r6, [r1, r3, lsl #2]
 80090de:	3301      	adds	r3, #1
 80090e0:	463c      	mov	r4, r7
 80090e2:	17fd      	asrs	r5, r7, #31
 80090e4:	b29b      	uxth	r3, r3
 80090e6:	e7ee      	b.n	80090c6 <Sub_Moduli_Big+0x80>
 80090e8:	b134      	cbz	r4, 80090f8 <Sub_Moduli_Big+0xb2>
 80090ea:	f103 4080 	add.w	r0, r3, #1073741824	; 0x40000000
 80090ee:	3801      	subs	r0, #1
 80090f0:	f06f 0401 	mvn.w	r4, #1
 80090f4:	f841 4020 	str.w	r4, [r1, r0, lsl #2]
 80090f8:	3b01      	subs	r3, #1
 80090fa:	b29b      	uxth	r3, r3
 80090fc:	f851 0023 	ldr.w	r0, [r1, r3, lsl #2]
 8009100:	b908      	cbnz	r0, 8009106 <Sub_Moduli_Big+0xc0>
 8009102:	2b00      	cmp	r3, #0
 8009104:	d1f8      	bne.n	80090f8 <Sub_Moduli_Big+0xb2>
 8009106:	3301      	adds	r3, #1
 8009108:	8093      	strh	r3, [r2, #4]
 800910a:	2000      	movs	r0, #0
 800910c:	e8bd 83f0 	ldmia.w	sp!, {r4, r5, r6, r7, r8, r9, pc}
 8009110:	f241 40b5 	movw	r0, #5301	; 0x14b5
 8009114:	e8bd 83f0 	ldmia.w	sp!, {r4, r5, r6, r7, r8, r9, pc}

08009118 <AddBig>:
 8009118:	e92d 43f7 	stmdb	sp!, {r0, r1, r2, r4, r5, r6, r7, r8, r9, lr}
 800911c:	460d      	mov	r5, r1
 800911e:	ae02      	add	r6, sp, #8
 8009120:	461f      	mov	r7, r3
 8009122:	2300      	movs	r3, #0
 8009124:	f846 3d04 	str.w	r3, [r6, #-4]!
 8009128:	7981      	ldrb	r1, [r0, #6]
 800912a:	79ab      	ldrb	r3, [r5, #6]
 800912c:	4299      	cmp	r1, r3
 800912e:	bf38      	it	cc
 8009130:	4619      	movcc	r1, r3
 8009132:	4604      	mov	r4, r0
 8009134:	4690      	mov	r8, r2
 8009136:	4630      	mov	r0, r6
 8009138:	3101      	adds	r1, #1
 800913a:	463a      	mov	r2, r7
 800913c:	f7ff fc08 	bl	8008950 <StAllocBig>
 8009140:	2800      	cmp	r0, #0
 8009142:	d16d      	bne.n	8009220 <AddBig+0x108>
 8009144:	4620      	mov	r0, r4
 8009146:	4629      	mov	r1, r5
 8009148:	f7ff fd00 	bl	8008b4c <CompareBig>
 800914c:	3003      	adds	r0, #3
 800914e:	2806      	cmp	r0, #6
 8009150:	d857      	bhi.n	8009202 <AddBig+0xea>
 8009152:	e8df f000 	tbb	[pc, r0]
 8009156:	2c32      	.short	0x2c32
 8009158:	1c2c251c 	.word	0x1c2c251c
 800915c:	04          	.byte	0x04
 800915d:	00          	.byte	0x00
 800915e:	9901      	ldr	r1, [sp, #4]
 8009160:	4628      	mov	r0, r5
 8009162:	f7ff fc34 	bl	80089ce <CopyBig>
 8009166:	9901      	ldr	r1, [sp, #4]
 8009168:	f04f 0900 	mov.w	r9, #0
 800916c:	f881 9007 	strb.w	r9, [r1, #7]
 8009170:	4620      	mov	r0, r4
 8009172:	f7ff fceb 	bl	8008b4c <CompareBig>
 8009176:	2800      	cmp	r0, #0
 8009178:	d040      	beq.n	80091fc <AddBig+0xe4>
 800917a:	2802      	cmp	r0, #2
 800917c:	d004      	beq.n	8009188 <AddBig+0x70>
 800917e:	3001      	adds	r0, #1
 8009180:	d13f      	bne.n	8009202 <AddBig+0xea>
 8009182:	4628      	mov	r0, r5
 8009184:	4621      	mov	r1, r4
 8009186:	e034      	b.n	80091f2 <AddBig+0xda>
 8009188:	4620      	mov	r0, r4
 800918a:	4629      	mov	r1, r5
 800918c:	e028      	b.n	80091e0 <AddBig+0xc8>
 800918e:	9a01      	ldr	r2, [sp, #4]
 8009190:	4620      	mov	r0, r4
 8009192:	4629      	mov	r1, r5
 8009194:	f7ff fc45 	bl	8008a22 <Add_Moduli_Big>
 8009198:	2200      	movs	r2, #0
 800919a:	9b01      	ldr	r3, [sp, #4]
 800919c:	71da      	strb	r2, [r3, #7]
 800919e:	e030      	b.n	8009202 <AddBig+0xea>
 80091a0:	9a01      	ldr	r2, [sp, #4]
 80091a2:	4620      	mov	r0, r4
 80091a4:	4629      	mov	r1, r5
 80091a6:	f7ff fc3c 	bl	8008a22 <Add_Moduli_Big>
 80091aa:	79e2      	ldrb	r2, [r4, #7]
 80091ac:	e7f5      	b.n	800919a <AddBig+0x82>
 80091ae:	4620      	mov	r0, r4
 80091b0:	4629      	mov	r1, r5
 80091b2:	9a01      	ldr	r2, [sp, #4]
 80091b4:	f7ff fc35 	bl	8008a22 <Add_Moduli_Big>
 80091b8:	e01e      	b.n	80091f8 <AddBig+0xe0>
 80091ba:	9901      	ldr	r1, [sp, #4]
 80091bc:	4620      	mov	r0, r4
 80091be:	f7ff fc06 	bl	80089ce <CopyBig>
 80091c2:	9801      	ldr	r0, [sp, #4]
 80091c4:	f04f 0900 	mov.w	r9, #0
 80091c8:	f880 9007 	strb.w	r9, [r0, #7]
 80091cc:	4629      	mov	r1, r5
 80091ce:	f7ff fcbd 	bl	8008b4c <CompareBig>
 80091d2:	b198      	cbz	r0, 80091fc <AddBig+0xe4>
 80091d4:	2802      	cmp	r0, #2
 80091d6:	d00a      	beq.n	80091ee <AddBig+0xd6>
 80091d8:	3001      	adds	r0, #1
 80091da:	d112      	bne.n	8009202 <AddBig+0xea>
 80091dc:	4628      	mov	r0, r5
 80091de:	4621      	mov	r1, r4
 80091e0:	9a01      	ldr	r2, [sp, #4]
 80091e2:	f7ff ff30 	bl	8009046 <Sub_Moduli_Big>
 80091e6:	9b01      	ldr	r3, [sp, #4]
 80091e8:	f883 9007 	strb.w	r9, [r3, #7]
 80091ec:	e009      	b.n	8009202 <AddBig+0xea>
 80091ee:	4620      	mov	r0, r4
 80091f0:	4629      	mov	r1, r5
 80091f2:	9a01      	ldr	r2, [sp, #4]
 80091f4:	f7ff ff27 	bl	8009046 <Sub_Moduli_Big>
 80091f8:	2201      	movs	r2, #1
 80091fa:	e7ce      	b.n	800919a <AddBig+0x82>
 80091fc:	9801      	ldr	r0, [sp, #4]
 80091fe:	f7ff fc86 	bl	8008b0e <SetZeroBig>
 8009202:	4640      	mov	r0, r8
 8009204:	2100      	movs	r1, #0
 8009206:	f7ff fbcb 	bl	80089a0 <InitBig>
 800920a:	4641      	mov	r1, r8
 800920c:	9801      	ldr	r0, [sp, #4]
 800920e:	f7ff fbde 	bl	80089ce <CopyBig>
 8009212:	4639      	mov	r1, r7
 8009214:	4604      	mov	r4, r0
 8009216:	4630      	mov	r0, r6
 8009218:	f7ff fbb5 	bl	8008986 <StFreeBig>
 800921c:	4620      	mov	r0, r4
 800921e:	e001      	b.n	8009224 <AddBig+0x10c>
 8009220:	f240 30ed 	movw	r0, #1005	; 0x3ed
 8009224:	b003      	add	sp, #12
 8009226:	e8bd 83f0 	ldmia.w	sp!, {r4, r5, r6, r7, r8, r9, pc}

0800922a <SubBig>:
 800922a:	e92d 41f3 	stmdb	sp!, {r0, r1, r4, r5, r6, r7, r8, lr}
 800922e:	460c      	mov	r4, r1
 8009230:	ae02      	add	r6, sp, #8
 8009232:	461f      	mov	r7, r3
 8009234:	2300      	movs	r3, #0
 8009236:	f846 3d04 	str.w	r3, [r6, #-4]!
 800923a:	7981      	ldrb	r1, [r0, #6]
 800923c:	79a3      	ldrb	r3, [r4, #6]
 800923e:	4605      	mov	r5, r0
 8009240:	4690      	mov	r8, r2
 8009242:	4630      	mov	r0, r6
 8009244:	4299      	cmp	r1, r3
 8009246:	bf38      	it	cc
 8009248:	4619      	movcc	r1, r3
 800924a:	463a      	mov	r2, r7
 800924c:	f7ff fb80 	bl	8008950 <StAllocBig>
 8009250:	2800      	cmp	r0, #0
 8009252:	d143      	bne.n	80092dc <SubBig+0xb2>
 8009254:	9b01      	ldr	r3, [sp, #4]
 8009256:	2201      	movs	r2, #1
 8009258:	809a      	strh	r2, [r3, #4]
 800925a:	4628      	mov	r0, r5
 800925c:	4621      	mov	r1, r4
 800925e:	f7ff fc75 	bl	8008b4c <CompareBig>
 8009262:	3003      	adds	r0, #3
 8009264:	2806      	cmp	r0, #6
 8009266:	d82a      	bhi.n	80092be <SubBig+0x94>
 8009268:	e8df f000 	tbb	[pc, r0]
 800926c:	14181b21 	.word	0x14181b21
 8009270:	0a11      	.short	0x0a11
 8009272:	04          	.byte	0x04
 8009273:	00          	.byte	0x00
 8009274:	4628      	mov	r0, r5
 8009276:	4621      	mov	r1, r4
 8009278:	9a01      	ldr	r2, [sp, #4]
 800927a:	f7ff fbd2 	bl	8008a22 <Add_Moduli_Big>
 800927e:	e004      	b.n	800928a <SubBig+0x60>
 8009280:	4628      	mov	r0, r5
 8009282:	4621      	mov	r1, r4
 8009284:	9a01      	ldr	r2, [sp, #4]
 8009286:	f7ff fede 	bl	8009046 <Sub_Moduli_Big>
 800928a:	2200      	movs	r2, #0
 800928c:	e015      	b.n	80092ba <SubBig+0x90>
 800928e:	4620      	mov	r0, r4
 8009290:	4629      	mov	r1, r5
 8009292:	e7f7      	b.n	8009284 <SubBig+0x5a>
 8009294:	9801      	ldr	r0, [sp, #4]
 8009296:	f7ff fc3a 	bl	8008b0e <SetZeroBig>
 800929a:	e010      	b.n	80092be <SubBig+0x94>
 800929c:	4620      	mov	r0, r4
 800929e:	4629      	mov	r1, r5
 80092a0:	e001      	b.n	80092a6 <SubBig+0x7c>
 80092a2:	4628      	mov	r0, r5
 80092a4:	4621      	mov	r1, r4
 80092a6:	9a01      	ldr	r2, [sp, #4]
 80092a8:	f7ff fecd 	bl	8009046 <Sub_Moduli_Big>
 80092ac:	e004      	b.n	80092b8 <SubBig+0x8e>
 80092ae:	4628      	mov	r0, r5
 80092b0:	4621      	mov	r1, r4
 80092b2:	9a01      	ldr	r2, [sp, #4]
 80092b4:	f7ff fbb5 	bl	8008a22 <Add_Moduli_Big>
 80092b8:	2201      	movs	r2, #1
 80092ba:	9b01      	ldr	r3, [sp, #4]
 80092bc:	71da      	strb	r2, [r3, #7]
 80092be:	4640      	mov	r0, r8
 80092c0:	2100      	movs	r1, #0
 80092c2:	f7ff fb6d 	bl	80089a0 <InitBig>
 80092c6:	4641      	mov	r1, r8
 80092c8:	9801      	ldr	r0, [sp, #4]
 80092ca:	f7ff fb80 	bl	80089ce <CopyBig>
 80092ce:	4639      	mov	r1, r7
 80092d0:	4604      	mov	r4, r0
 80092d2:	4630      	mov	r0, r6
 80092d4:	f7ff fb57 	bl	8008986 <StFreeBig>
 80092d8:	4620      	mov	r0, r4
 80092da:	e001      	b.n	80092e0 <SubBig+0xb6>
 80092dc:	f240 30ed 	movw	r0, #1005	; 0x3ed
 80092e0:	b002      	add	sp, #8
 80092e2:	e8bd 81f0 	ldmia.w	sp!, {r4, r5, r6, r7, r8, pc}

080092e6 <MontyInit>:
 80092e6:	e92d 47f3 	stmdb	sp!, {r0, r1, r4, r5, r6, r7, r8, r9, sl, lr}
 80092ea:	f101 0904 	add.w	r9, r1, #4
 80092ee:	460c      	mov	r4, r1
 80092f0:	7981      	ldrb	r1, [r0, #6]
 80092f2:	2300      	movs	r3, #0
 80092f4:	3102      	adds	r1, #2
 80092f6:	4605      	mov	r5, r0
 80092f8:	4648      	mov	r0, r9
 80092fa:	4616      	mov	r6, r2
 80092fc:	9301      	str	r3, [sp, #4]
 80092fe:	f7ff fb27 	bl	8008950 <StAllocBig>
 8009302:	4601      	mov	r1, r0
 8009304:	2800      	cmp	r0, #0
 8009306:	f040 8088 	bne.w	800941a <MontyInit+0x134>
 800930a:	6860      	ldr	r0, [r4, #4]
 800930c:	6025      	str	r5, [r4, #0]
 800930e:	f7ff fb47 	bl	80089a0 <InitBig>
 8009312:	88aa      	ldrh	r2, [r5, #4]
 8009314:	6863      	ldr	r3, [r4, #4]
 8009316:	3201      	adds	r2, #1
 8009318:	809a      	strh	r2, [r3, #4]
 800931a:	88a9      	ldrh	r1, [r5, #4]
 800931c:	681a      	ldr	r2, [r3, #0]
 800931e:	2301      	movs	r3, #1
 8009320:	f842 3021 	str.w	r3, [r2, r1, lsl #2]
 8009324:	682a      	ldr	r2, [r5, #0]
 8009326:	f04f 081f 	mov.w	r8, #31
 800932a:	6810      	ldr	r0, [r2, #0]
 800932c:	2103      	movs	r1, #3
 800932e:	2202      	movs	r2, #2
 8009330:	fb00 f703 	mul.w	r7, r0, r3
 8009334:	400f      	ands	r7, r1
 8009336:	4297      	cmp	r7, r2
 8009338:	bf28      	it	cs
 800933a:	189b      	addcs	r3, r3, r2
 800933c:	0049      	lsls	r1, r1, #1
 800933e:	f1b8 0801 	subs.w	r8, r8, #1
 8009342:	ea4f 0242 	mov.w	r2, r2, lsl #1
 8009346:	f081 0101 	eor.w	r1, r1, #1
 800934a:	d1f1      	bne.n	8009330 <MontyInit+0x4a>
 800934c:	425b      	negs	r3, r3
 800934e:	60a3      	str	r3, [r4, #8]
 8009350:	79a9      	ldrb	r1, [r5, #6]
 8009352:	a801      	add	r0, sp, #4
 8009354:	3101      	adds	r1, #1
 8009356:	4632      	mov	r2, r6
 8009358:	f7ff fafa 	bl	8008950 <StAllocBig>
 800935c:	b108      	cbz	r0, 8009362 <MontyInit+0x7c>
 800935e:	4648      	mov	r0, r9
 8009360:	e058      	b.n	8009414 <MontyInit+0x12e>
 8009362:	9901      	ldr	r1, [sp, #4]
 8009364:	4628      	mov	r0, r5
 8009366:	f7ff fb32 	bl	80089ce <CopyBig>
 800936a:	9801      	ldr	r0, [sp, #4]
 800936c:	f7ff fc37 	bl	8008bde <CountBits>
 8009370:	4240      	negs	r0, r0
 8009372:	f000 0a1f 	and.w	sl, r0, #31
 8009376:	4651      	mov	r1, sl
 8009378:	9801      	ldr	r0, [sp, #4]
 800937a:	f7ff fdd8 	bl	8008f2e <LeftShift>
 800937e:	6860      	ldr	r0, [r4, #4]
 8009380:	9901      	ldr	r1, [sp, #4]
 8009382:	4602      	mov	r2, r0
 8009384:	4633      	mov	r3, r6
 8009386:	f7ff ff50 	bl	800922a <SubBig>
 800938a:	4607      	mov	r7, r0
 800938c:	2800      	cmp	r0, #0
 800938e:	d13c      	bne.n	800940a <MontyInit+0x124>
 8009390:	88ab      	ldrh	r3, [r5, #4]
 8009392:	4598      	cmp	r8, r3
 8009394:	d227      	bcs.n	80093e6 <MontyInit+0x100>
 8009396:	6860      	ldr	r0, [r4, #4]
 8009398:	f103 4380 	add.w	r3, r3, #1073741824	; 0x40000000
 800939c:	3b01      	subs	r3, #1
 800939e:	6802      	ldr	r2, [r0, #0]
 80093a0:	2101      	movs	r1, #1
 80093a2:	f852 9023 	ldr.w	r9, [r2, r3, lsl #2]
 80093a6:	f7ff fd75 	bl	8008e94 <FastMulInnerBase>
 80093aa:	f1b9 0f00 	cmp.w	r9, #0
 80093ae:	d017      	beq.n	80093e0 <MontyInit+0xfa>
 80093b0:	9901      	ldr	r1, [sp, #4]
 80093b2:	4628      	mov	r0, r5
 80093b4:	f7ff fb0b 	bl	80089ce <CopyBig>
 80093b8:	4649      	mov	r1, r9
 80093ba:	9801      	ldr	r0, [sp, #4]
 80093bc:	f7ff fe17 	bl	8008fee <MulBigbyUnInt>
 80093c0:	4651      	mov	r1, sl
 80093c2:	9801      	ldr	r0, [sp, #4]
 80093c4:	f7ff fdb3 	bl	8008f2e <LeftShift>
 80093c8:	6860      	ldr	r0, [r4, #4]
 80093ca:	9901      	ldr	r1, [sp, #4]
 80093cc:	4602      	mov	r2, r0
 80093ce:	4633      	mov	r3, r6
 80093d0:	f7ff ff2b 	bl	800922a <SubBig>
 80093d4:	6863      	ldr	r3, [r4, #4]
 80093d6:	88aa      	ldrh	r2, [r5, #4]
 80093d8:	681b      	ldr	r3, [r3, #0]
 80093da:	f853 9022 	ldr.w	r9, [r3, r2, lsl #2]
 80093de:	e7e4      	b.n	80093aa <MontyInit+0xc4>
 80093e0:	f108 0801 	add.w	r8, r8, #1
 80093e4:	e7d4      	b.n	8009390 <MontyInit+0xaa>
 80093e6:	a801      	add	r0, sp, #4
 80093e8:	4631      	mov	r1, r6
 80093ea:	f7ff facc 	bl	8008986 <StFreeBig>
 80093ee:	6860      	ldr	r0, [r4, #4]
 80093f0:	4629      	mov	r1, r5
 80093f2:	f7ff fbab 	bl	8008b4c <CompareBig>
 80093f6:	2800      	cmp	r0, #0
 80093f8:	dd05      	ble.n	8009406 <MontyInit+0x120>
 80093fa:	6860      	ldr	r0, [r4, #4]
 80093fc:	4629      	mov	r1, r5
 80093fe:	4602      	mov	r2, r0
 8009400:	4633      	mov	r3, r6
 8009402:	f7ff ff12 	bl	800922a <SubBig>
 8009406:	60e6      	str	r6, [r4, #12]
 8009408:	e009      	b.n	800941e <MontyInit+0x138>
 800940a:	4648      	mov	r0, r9
 800940c:	4631      	mov	r1, r6
 800940e:	f7ff faba 	bl	8008986 <StFreeBig>
 8009412:	a801      	add	r0, sp, #4
 8009414:	4631      	mov	r1, r6
 8009416:	f7ff fab6 	bl	8008986 <StFreeBig>
 800941a:	f240 37ed 	movw	r7, #1005	; 0x3ed
 800941e:	4638      	mov	r0, r7
 8009420:	b002      	add	sp, #8
 8009422:	e8bd 87f0 	ldmia.w	sp!, {r4, r5, r6, r7, r8, r9, sl, pc}

08009426 <MontyKillR2>:
 8009426:	b508      	push	{r3, lr}
 8009428:	4603      	mov	r3, r0
 800942a:	3004      	adds	r0, #4
 800942c:	68d9      	ldr	r1, [r3, #12]
 800942e:	f7ff faaa 	bl	8008986 <StFreeBig>
 8009432:	bd08      	pop	{r3, pc}

08009434 <MontyKillAll>:
 8009434:	2200      	movs	r2, #0
 8009436:	b508      	push	{r3, lr}
 8009438:	6002      	str	r2, [r0, #0]
 800943a:	6082      	str	r2, [r0, #8]
 800943c:	6842      	ldr	r2, [r0, #4]
 800943e:	4603      	mov	r3, r0
 8009440:	b11a      	cbz	r2, 800944a <MontyKillAll+0x16>
 8009442:	3004      	adds	r0, #4
 8009444:	68d9      	ldr	r1, [r3, #12]
 8009446:	f7ff fa9e 	bl	8008986 <StFreeBig>
 800944a:	bd08      	pop	{r3, pc}

0800944c <MontyMul>:
 800944c:	e92d 4ff0 	stmdb	sp!, {r4, r5, r6, r7, r8, r9, sl, fp, lr}
 8009450:	b09d      	sub	sp, #116	; 0x74
 8009452:	461c      	mov	r4, r3
 8009454:	900c      	str	r0, [sp, #48]	; 0x30
 8009456:	a81c      	add	r0, sp, #112	; 0x70
 8009458:	2300      	movs	r3, #0
 800945a:	f840 3d04 	str.w	r3, [r0, #-4]!
 800945e:	6823      	ldr	r3, [r4, #0]
 8009460:	920d      	str	r2, [sp, #52]	; 0x34
 8009462:	4689      	mov	r9, r1
 8009464:	6819      	ldr	r1, [r3, #0]
 8009466:	910e      	str	r1, [sp, #56]	; 0x38
 8009468:	68a1      	ldr	r1, [r4, #8]
 800946a:	9118      	str	r1, [sp, #96]	; 0x60
 800946c:	7999      	ldrb	r1, [r3, #6]
 800946e:	f8d9 2000 	ldr.w	r2, [r9]
 8009472:	9209      	str	r2, [sp, #36]	; 0x24
 8009474:	3101      	adds	r1, #1
 8009476:	68e2      	ldr	r2, [r4, #12]
 8009478:	889f      	ldrh	r7, [r3, #4]
 800947a:	f7ff fa69 	bl	8008950 <StAllocBig>
 800947e:	4680      	mov	r8, r0
 8009480:	2800      	cmp	r0, #0
 8009482:	f040 80c9 	bne.w	8009618 <MontyMul+0x1cc>
 8009486:	981b      	ldr	r0, [sp, #108]	; 0x6c
 8009488:	4641      	mov	r1, r8
 800948a:	f7ff fa89 	bl	80089a0 <InitBig>
 800948e:	9e1b      	ldr	r6, [sp, #108]	; 0x6c
 8009490:	f8b9 3004 	ldrh.w	r3, [r9, #4]
 8009494:	9a09      	ldr	r2, [sp, #36]	; 0x24
 8009496:	6835      	ldr	r5, [r6, #0]
 8009498:	eb02 0183 	add.w	r1, r2, r3, lsl #2
 800949c:	4640      	mov	r0, r8
 800949e:	18c2      	adds	r2, r0, r3
 80094a0:	42ba      	cmp	r2, r7
 80094a2:	f04f 0200 	mov.w	r2, #0
 80094a6:	d203      	bcs.n	80094b0 <MontyMul+0x64>
 80094a8:	f841 2020 	str.w	r2, [r1, r0, lsl #2]
 80094ac:	3001      	adds	r0, #1
 80094ae:	e7f6      	b.n	800949e <MontyMul+0x52>
 80094b0:	9b0c      	ldr	r3, [sp, #48]	; 0x30
 80094b2:	f8b3 e004 	ldrh.w	lr, [r3, #4]
 80094b6:	eb02 010e 	add.w	r1, r2, lr
 80094ba:	42b9      	cmp	r1, r7
 80094bc:	d206      	bcs.n	80094cc <MontyMul+0x80>
 80094be:	980c      	ldr	r0, [sp, #48]	; 0x30
 80094c0:	6800      	ldr	r0, [r0, #0]
 80094c2:	2300      	movs	r3, #0
 80094c4:	f840 3021 	str.w	r3, [r0, r1, lsl #2]
 80094c8:	3201      	adds	r2, #1
 80094ca:	e7f4      	b.n	80094b6 <MontyMul+0x6a>
 80094cc:	ea4f 0e87 	mov.w	lr, r7, lsl #2
 80094d0:	f1ae 0304 	sub.w	r3, lr, #4
 80094d4:	18eb      	adds	r3, r5, r3
 80094d6:	2100      	movs	r1, #0
 80094d8:	eb05 0c0e 	add.w	ip, r5, lr
 80094dc:	9319      	str	r3, [sp, #100]	; 0x64
 80094de:	9100      	str	r1, [sp, #0]
 80094e0:	9800      	ldr	r0, [sp, #0]
 80094e2:	42b8      	cmp	r0, r7
 80094e4:	d270      	bcs.n	80095c8 <MontyMul+0x17c>
 80094e6:	9a0c      	ldr	r2, [sp, #48]	; 0x30
 80094e8:	f8dd 8000 	ldr.w	r8, [sp]
 80094ec:	6813      	ldr	r3, [r2, #0]
 80094ee:	9809      	ldr	r0, [sp, #36]	; 0x24
 80094f0:	f853 3028 	ldr.w	r3, [r3, r8, lsl #2]
 80094f4:	9308      	str	r3, [sp, #32]
 80094f6:	682a      	ldr	r2, [r5, #0]
 80094f8:	6803      	ldr	r3, [r0, #0]
 80094fa:	9908      	ldr	r1, [sp, #32]
 80094fc:	980e      	ldr	r0, [sp, #56]	; 0x38
 80094fe:	4692      	mov	sl, r2
 8009500:	f04f 0b00 	mov.w	fp, #0
 8009504:	fbe3 ab01 	umlal	sl, fp, r3, r1
 8009508:	9b18      	ldr	r3, [sp, #96]	; 0x60
 800950a:	fb0a f303 	mul.w	r3, sl, r3
 800950e:	930f      	str	r3, [sp, #60]	; 0x3c
 8009510:	990f      	ldr	r1, [sp, #60]	; 0x3c
 8009512:	6803      	ldr	r3, [r0, #0]
 8009514:	46d0      	mov	r8, sl
 8009516:	f04f 0900 	mov.w	r9, #0
 800951a:	fbe3 8901 	umlal	r8, r9, r3, r1
 800951e:	2100      	movs	r1, #0
 8009520:	3104      	adds	r1, #4
 8009522:	4571      	cmp	r1, lr
 8009524:	d028      	beq.n	8009578 <MontyMul+0x12c>
 8009526:	2200      	movs	r2, #0
 8009528:	920b      	str	r2, [sp, #44]	; 0x2c
 800952a:	9b09      	ldr	r3, [sp, #36]	; 0x24
 800952c:	586a      	ldr	r2, [r5, r1]
 800952e:	5858      	ldr	r0, [r3, r1]
 8009530:	f8cd b028 	str.w	fp, [sp, #40]	; 0x28
 8009534:	4692      	mov	sl, r2
 8009536:	9a08      	ldr	r2, [sp, #32]
 8009538:	f8cd 9048 	str.w	r9, [sp, #72]	; 0x48
 800953c:	f04f 0b00 	mov.w	fp, #0
 8009540:	fbe0 ab02 	umlal	sl, fp, r0, r2
 8009544:	e9dd 230a 	ldrd	r2, r3, [sp, #40]	; 0x28
 8009548:	2000      	movs	r0, #0
 800954a:	eb1a 0a02 	adds.w	sl, sl, r2
 800954e:	eb4b 0b03 	adc.w	fp, fp, r3
 8009552:	9013      	str	r0, [sp, #76]	; 0x4c
 8009554:	9b0e      	ldr	r3, [sp, #56]	; 0x38
 8009556:	9a0f      	ldr	r2, [sp, #60]	; 0x3c
 8009558:	585b      	ldr	r3, [r3, r1]
 800955a:	9301      	str	r3, [sp, #4]
 800955c:	e9dd 8912 	ldrd	r8, r9, [sp, #72]	; 0x48
 8009560:	fbe3 8902 	umlal	r8, r9, r3, r2
 8009564:	186b      	adds	r3, r5, r1
 8009566:	e9cd 8902 	strd	r8, r9, [sp, #8]
 800956a:	eb18 080a 	adds.w	r8, r8, sl
 800956e:	f149 0900 	adc.w	r9, r9, #0
 8009572:	f843 8c04 	str.w	r8, [r3, #-4]
 8009576:	e7d3      	b.n	8009520 <MontyMul+0xd4>
 8009578:	2300      	movs	r3, #0
 800957a:	9307      	str	r3, [sp, #28]
 800957c:	f8cd b018 	str.w	fp, [sp, #24]
 8009580:	e9dd ab06 	ldrd	sl, fp, [sp, #24]
 8009584:	f8dc 3000 	ldr.w	r3, [ip]
 8009588:	f8cd 9040 	str.w	r9, [sp, #64]	; 0x40
 800958c:	2000      	movs	r0, #0
 800958e:	9011      	str	r0, [sp, #68]	; 0x44
 8009590:	eb1a 0a03 	adds.w	sl, sl, r3
 8009594:	e9dd 2310 	ldrd	r2, r3, [sp, #64]	; 0x40
 8009598:	f14b 0b00 	adc.w	fp, fp, #0
 800959c:	eb12 020a 	adds.w	r2, r2, sl
 80095a0:	f143 0300 	adc.w	r3, r3, #0
 80095a4:	9314      	str	r3, [sp, #80]	; 0x50
 80095a6:	f8dd 9000 	ldr.w	r9, [sp]
 80095aa:	9b14      	ldr	r3, [sp, #80]	; 0x50
 80095ac:	9919      	ldr	r1, [sp, #100]	; 0x64
 80095ae:	9015      	str	r0, [sp, #84]	; 0x54
 80095b0:	445b      	add	r3, fp
 80095b2:	f109 0901 	add.w	r9, r9, #1
 80095b6:	600a      	str	r2, [r1, #0]
 80095b8:	f8cd b058 	str.w	fp, [sp, #88]	; 0x58
 80095bc:	9017      	str	r0, [sp, #92]	; 0x5c
 80095be:	f8cc 3000 	str.w	r3, [ip]
 80095c2:	f8cd 9000 	str.w	r9, [sp]
 80095c6:	e78b      	b.n	80094e0 <MontyMul+0x94>
 80095c8:	1c7b      	adds	r3, r7, #1
 80095ca:	80b3      	strh	r3, [r6, #4]
 80095cc:	88b2      	ldrh	r2, [r6, #4]
 80095ce:	2a01      	cmp	r2, #1
 80095d0:	d908      	bls.n	80095e4 <MontyMul+0x198>
 80095d2:	f102 4380 	add.w	r3, r2, #1073741824	; 0x40000000
 80095d6:	3b01      	subs	r3, #1
 80095d8:	f855 3023 	ldr.w	r3, [r5, r3, lsl #2]
 80095dc:	b913      	cbnz	r3, 80095e4 <MontyMul+0x198>
 80095de:	3a01      	subs	r2, #1
 80095e0:	80b2      	strh	r2, [r6, #4]
 80095e2:	e7f3      	b.n	80095cc <MontyMul+0x180>
 80095e4:	4630      	mov	r0, r6
 80095e6:	6821      	ldr	r1, [r4, #0]
 80095e8:	f7ff fab0 	bl	8008b4c <CompareBig>
 80095ec:	2800      	cmp	r0, #0
 80095ee:	981b      	ldr	r0, [sp, #108]	; 0x6c
 80095f0:	db08      	blt.n	8009604 <MontyMul+0x1b8>
 80095f2:	6821      	ldr	r1, [r4, #0]
 80095f4:	9a0d      	ldr	r2, [sp, #52]	; 0x34
 80095f6:	f7ff fd26 	bl	8009046 <Sub_Moduli_Big>
 80095fa:	990d      	ldr	r1, [sp, #52]	; 0x34
 80095fc:	2300      	movs	r3, #0
 80095fe:	4605      	mov	r5, r0
 8009600:	71cb      	strb	r3, [r1, #7]
 8009602:	e003      	b.n	800960c <MontyMul+0x1c0>
 8009604:	990d      	ldr	r1, [sp, #52]	; 0x34
 8009606:	f7ff f9e2 	bl	80089ce <CopyBig>
 800960a:	4605      	mov	r5, r0
 800960c:	a81b      	add	r0, sp, #108	; 0x6c
 800960e:	68e1      	ldr	r1, [r4, #12]
 8009610:	f7ff f9b9 	bl	8008986 <StFreeBig>
 8009614:	4628      	mov	r0, r5
 8009616:	e001      	b.n	800961c <MontyMul+0x1d0>
 8009618:	f240 30ed 	movw	r0, #1005	; 0x3ed
 800961c:	b01d      	add	sp, #116	; 0x74
 800961e:	e8bd 8ff0 	ldmia.w	sp!, {r4, r5, r6, r7, r8, r9, sl, fp, pc}

08009622 <MontyExit>:
 8009622:	b5f7      	push	{r0, r1, r2, r4, r5, r6, r7, lr}
 8009624:	ac02      	add	r4, sp, #8
 8009626:	2300      	movs	r3, #0
 8009628:	4606      	mov	r6, r0
 800962a:	f844 3d04 	str.w	r3, [r4, #-4]!
 800962e:	460f      	mov	r7, r1
 8009630:	4615      	mov	r5, r2
 8009632:	4620      	mov	r0, r4
 8009634:	79b1      	ldrb	r1, [r6, #6]
 8009636:	68d2      	ldr	r2, [r2, #12]
 8009638:	f7ff f98a 	bl	8008950 <StAllocBig>
 800963c:	b980      	cbnz	r0, 8009660 <MontyExit+0x3e>
 800963e:	9801      	ldr	r0, [sp, #4]
 8009640:	2101      	movs	r1, #1
 8009642:	f7ff f9ad 	bl	80089a0 <InitBig>
 8009646:	4630      	mov	r0, r6
 8009648:	9901      	ldr	r1, [sp, #4]
 800964a:	463a      	mov	r2, r7
 800964c:	462b      	mov	r3, r5
 800964e:	f7ff fefd 	bl	800944c <MontyMul>
 8009652:	68e9      	ldr	r1, [r5, #12]
 8009654:	4606      	mov	r6, r0
 8009656:	4620      	mov	r0, r4
 8009658:	f7ff f995 	bl	8008986 <StFreeBig>
 800965c:	4630      	mov	r0, r6
 800965e:	e001      	b.n	8009664 <MontyExit+0x42>
 8009660:	f240 30ed 	movw	r0, #1005	; 0x3ed
 8009664:	b003      	add	sp, #12
 8009666:	bdf0      	pop	{r4, r5, r6, r7, pc}

08009668 <ModularAddBig>:
 8009668:	b570      	push	{r4, r5, r6, lr}
 800966a:	9d04      	ldr	r5, [sp, #16]
 800966c:	461e      	mov	r6, r3
 800966e:	462b      	mov	r3, r5
 8009670:	4614      	mov	r4, r2
 8009672:	f7ff fd51 	bl	8009118 <AddBig>
 8009676:	b120      	cbz	r0, 8009682 <ModularAddBig+0x1a>
 8009678:	79a3      	ldrb	r3, [r4, #6]
 800967a:	88a2      	ldrh	r2, [r4, #4]
 800967c:	3301      	adds	r3, #1
 800967e:	429a      	cmp	r2, r3
 8009680:	d113      	bne.n	80096aa <ModularAddBig+0x42>
 8009682:	4620      	mov	r0, r4
 8009684:	4631      	mov	r1, r6
 8009686:	f7ff fa61 	bl	8008b4c <CompareBig>
 800968a:	2800      	cmp	r0, #0
 800968c:	db05      	blt.n	800969a <ModularAddBig+0x32>
 800968e:	4620      	mov	r0, r4
 8009690:	4631      	mov	r1, r6
 8009692:	4622      	mov	r2, r4
 8009694:	462b      	mov	r3, r5
 8009696:	f7ff fdc8 	bl	800922a <SubBig>
 800969a:	88a0      	ldrh	r0, [r4, #4]
 800969c:	79a2      	ldrb	r2, [r4, #6]
 800969e:	f241 43b5 	movw	r3, #5301	; 0x14b5
 80096a2:	4290      	cmp	r0, r2
 80096a4:	bf8c      	ite	hi
 80096a6:	4618      	movhi	r0, r3
 80096a8:	2000      	movls	r0, #0
 80096aa:	bd70      	pop	{r4, r5, r6, pc}

080096ac <ModularSubBig>:
 80096ac:	b5f8      	push	{r3, r4, r5, r6, r7, lr}
 80096ae:	9d06      	ldr	r5, [sp, #24]
 80096b0:	461f      	mov	r7, r3
 80096b2:	462b      	mov	r3, r5
 80096b4:	4616      	mov	r6, r2
 80096b6:	f7ff fdb8 	bl	800922a <SubBig>
 80096ba:	4604      	mov	r4, r0
 80096bc:	b950      	cbnz	r0, 80096d4 <ModularSubBig+0x28>
 80096be:	4630      	mov	r0, r6
 80096c0:	f7ff fa37 	bl	8008b32 <SignBig>
 80096c4:	b130      	cbz	r0, 80096d4 <ModularSubBig+0x28>
 80096c6:	4630      	mov	r0, r6
 80096c8:	4639      	mov	r1, r7
 80096ca:	4632      	mov	r2, r6
 80096cc:	462b      	mov	r3, r5
 80096ce:	f7ff fd23 	bl	8009118 <AddBig>
 80096d2:	4604      	mov	r4, r0
 80096d4:	4620      	mov	r0, r4
 80096d6:	bdf8      	pop	{r3, r4, r5, r6, r7, pc}

080096d8 <ModularFastMul2>:
 80096d8:	b570      	push	{r4, r5, r6, lr}
 80096da:	4604      	mov	r4, r0
 80096dc:	460d      	mov	r5, r1
 80096de:	4616      	mov	r6, r2
 80096e0:	f7ff fb8e 	bl	8008e00 <FastMul2>
 80096e4:	4620      	mov	r0, r4
 80096e6:	4629      	mov	r1, r5
 80096e8:	f7ff fa30 	bl	8008b4c <CompareBig>
 80096ec:	2800      	cmp	r0, #0
 80096ee:	db06      	blt.n	80096fe <ModularFastMul2+0x26>
 80096f0:	4620      	mov	r0, r4
 80096f2:	4629      	mov	r1, r5
 80096f4:	4622      	mov	r2, r4
 80096f6:	4633      	mov	r3, r6
 80096f8:	f7ff fd97 	bl	800922a <SubBig>
 80096fc:	e000      	b.n	8009700 <ModularFastMul2+0x28>
 80096fe:	2000      	movs	r0, #0
 8009700:	88a1      	ldrh	r1, [r4, #4]
 8009702:	79a2      	ldrb	r2, [r4, #6]
 8009704:	f241 43b5 	movw	r3, #5301	; 0x14b5
 8009708:	4291      	cmp	r1, r2
 800970a:	bf88      	it	hi
 800970c:	4618      	movhi	r0, r3
 800970e:	bd70      	pop	{r4, r5, r6, pc}

08009710 <ModularInvBig>:
 8009710:	e92d 41ff 	stmdb	sp!, {r0, r1, r2, r3, r4, r5, r6, r7, r8, lr}
 8009714:	4680      	mov	r8, r0
 8009716:	461d      	mov	r5, r3
 8009718:	4610      	mov	r0, r2
 800971a:	2300      	movs	r3, #0
 800971c:	460f      	mov	r7, r1
 800971e:	4616      	mov	r6, r2
 8009720:	9300      	str	r3, [sp, #0]
 8009722:	9301      	str	r3, [sp, #4]
 8009724:	9302      	str	r3, [sp, #8]
 8009726:	9303      	str	r3, [sp, #12]
 8009728:	f7ff fa09 	bl	8008b3e <EvenBig>
 800972c:	2800      	cmp	r0, #0
 800972e:	f040 80c6 	bne.w	80098be <ModularInvBig+0x1ae>
 8009732:	4668      	mov	r0, sp
 8009734:	79b1      	ldrb	r1, [r6, #6]
 8009736:	462a      	mov	r2, r5
 8009738:	f7ff f90a 	bl	8008950 <StAllocBig>
 800973c:	4604      	mov	r4, r0
 800973e:	2800      	cmp	r0, #0
 8009740:	f040 80bf 	bne.w	80098c2 <ModularInvBig+0x1b2>
 8009744:	a801      	add	r0, sp, #4
 8009746:	79b1      	ldrb	r1, [r6, #6]
 8009748:	462a      	mov	r2, r5
 800974a:	f7ff f901 	bl	8008950 <StAllocBig>
 800974e:	4604      	mov	r4, r0
 8009750:	2800      	cmp	r0, #0
 8009752:	f040 80af 	bne.w	80098b4 <ModularInvBig+0x1a4>
 8009756:	79b1      	ldrb	r1, [r6, #6]
 8009758:	a802      	add	r0, sp, #8
 800975a:	3101      	adds	r1, #1
 800975c:	462a      	mov	r2, r5
 800975e:	f7ff f8f7 	bl	8008950 <StAllocBig>
 8009762:	4604      	mov	r4, r0
 8009764:	2800      	cmp	r0, #0
 8009766:	f040 80a1 	bne.w	80098ac <ModularInvBig+0x19c>
 800976a:	79b1      	ldrb	r1, [r6, #6]
 800976c:	a803      	add	r0, sp, #12
 800976e:	3101      	adds	r1, #1
 8009770:	462a      	mov	r2, r5
 8009772:	f7ff f8ed 	bl	8008950 <StAllocBig>
 8009776:	4604      	mov	r4, r0
 8009778:	2800      	cmp	r0, #0
 800977a:	f040 8093 	bne.w	80098a4 <ModularInvBig+0x194>
 800977e:	4640      	mov	r0, r8
 8009780:	9900      	ldr	r1, [sp, #0]
 8009782:	f7ff f924 	bl	80089ce <CopyBig>
 8009786:	4604      	mov	r4, r0
 8009788:	2800      	cmp	r0, #0
 800978a:	f040 8087 	bne.w	800989c <ModularInvBig+0x18c>
 800978e:	4630      	mov	r0, r6
 8009790:	9901      	ldr	r1, [sp, #4]
 8009792:	f7ff f91c 	bl	80089ce <CopyBig>
 8009796:	4604      	mov	r4, r0
 8009798:	2800      	cmp	r0, #0
 800979a:	d17f      	bne.n	800989c <ModularInvBig+0x18c>
 800979c:	9802      	ldr	r0, [sp, #8]
 800979e:	2101      	movs	r1, #1
 80097a0:	f7ff f8fe 	bl	80089a0 <InitBig>
 80097a4:	9803      	ldr	r0, [sp, #12]
 80097a6:	4621      	mov	r1, r4
 80097a8:	f7ff f8fa 	bl	80089a0 <InitBig>
 80097ac:	9800      	ldr	r0, [sp, #0]
 80097ae:	f7ff f9a2 	bl	8008af6 <IsZeroBig>
 80097b2:	2800      	cmp	r0, #0
 80097b4:	d15a      	bne.n	800986c <ModularInvBig+0x15c>
 80097b6:	9800      	ldr	r0, [sp, #0]
 80097b8:	f7ff f9c1 	bl	8008b3e <EvenBig>
 80097bc:	b1e8      	cbz	r0, 80097fa <ModularInvBig+0xea>
 80097be:	9800      	ldr	r0, [sp, #0]
 80097c0:	f7ff fb48 	bl	8008e54 <FastDiv2>
 80097c4:	9802      	ldr	r0, [sp, #8]
 80097c6:	f7ff f9ba 	bl	8008b3e <EvenBig>
 80097ca:	b940      	cbnz	r0, 80097de <ModularInvBig+0xce>
 80097cc:	9802      	ldr	r0, [sp, #8]
 80097ce:	4631      	mov	r1, r6
 80097d0:	4602      	mov	r2, r0
 80097d2:	462b      	mov	r3, r5
 80097d4:	f7ff fca0 	bl	8009118 <AddBig>
 80097d8:	4604      	mov	r4, r0
 80097da:	2800      	cmp	r0, #0
 80097dc:	d15e      	bne.n	800989c <ModularInvBig+0x18c>
 80097de:	9802      	ldr	r0, [sp, #8]
 80097e0:	f7ff fb38 	bl	8008e54 <FastDiv2>
 80097e4:	e7e7      	b.n	80097b6 <ModularInvBig+0xa6>
 80097e6:	9801      	ldr	r0, [sp, #4]
 80097e8:	f7ff fb34 	bl	8008e54 <FastDiv2>
 80097ec:	9803      	ldr	r0, [sp, #12]
 80097ee:	f7ff f9a6 	bl	8008b3e <EvenBig>
 80097f2:	b140      	cbz	r0, 8009806 <ModularInvBig+0xf6>
 80097f4:	9803      	ldr	r0, [sp, #12]
 80097f6:	f7ff fb2d 	bl	8008e54 <FastDiv2>
 80097fa:	9801      	ldr	r0, [sp, #4]
 80097fc:	f7ff f99f 	bl	8008b3e <EvenBig>
 8009800:	2800      	cmp	r0, #0
 8009802:	d1f0      	bne.n	80097e6 <ModularInvBig+0xd6>
 8009804:	e009      	b.n	800981a <ModularInvBig+0x10a>
 8009806:	9803      	ldr	r0, [sp, #12]
 8009808:	4631      	mov	r1, r6
 800980a:	4602      	mov	r2, r0
 800980c:	462b      	mov	r3, r5
 800980e:	f7ff fc83 	bl	8009118 <AddBig>
 8009812:	4604      	mov	r4, r0
 8009814:	2800      	cmp	r0, #0
 8009816:	d0ed      	beq.n	80097f4 <ModularInvBig+0xe4>
 8009818:	e040      	b.n	800989c <ModularInvBig+0x18c>
 800981a:	e89d 0003 	ldmia.w	sp, {r0, r1}
 800981e:	f7ff f995 	bl	8008b4c <CompareBig>
 8009822:	2800      	cmp	r0, #0
 8009824:	db0b      	blt.n	800983e <ModularInvBig+0x12e>
 8009826:	e89d 0003 	ldmia.w	sp, {r0, r1}
 800982a:	462b      	mov	r3, r5
 800982c:	4602      	mov	r2, r0
 800982e:	f7ff fcfc 	bl	800922a <SubBig>
 8009832:	4604      	mov	r4, r0
 8009834:	2800      	cmp	r0, #0
 8009836:	d131      	bne.n	800989c <ModularInvBig+0x18c>
 8009838:	9802      	ldr	r0, [sp, #8]
 800983a:	9903      	ldr	r1, [sp, #12]
 800983c:	e009      	b.n	8009852 <ModularInvBig+0x142>
 800983e:	9801      	ldr	r0, [sp, #4]
 8009840:	9900      	ldr	r1, [sp, #0]
 8009842:	4602      	mov	r2, r0
 8009844:	462b      	mov	r3, r5
 8009846:	f7ff fcf0 	bl	800922a <SubBig>
 800984a:	4604      	mov	r4, r0
 800984c:	bb30      	cbnz	r0, 800989c <ModularInvBig+0x18c>
 800984e:	9803      	ldr	r0, [sp, #12]
 8009850:	9902      	ldr	r1, [sp, #8]
 8009852:	4602      	mov	r2, r0
 8009854:	462b      	mov	r3, r5
 8009856:	f7ff fce8 	bl	800922a <SubBig>
 800985a:	e7a7      	b.n	80097ac <ModularInvBig+0x9c>
 800985c:	9803      	ldr	r0, [sp, #12]
 800985e:	4631      	mov	r1, r6
 8009860:	4602      	mov	r2, r0
 8009862:	462b      	mov	r3, r5
 8009864:	f7ff fc58 	bl	8009118 <AddBig>
 8009868:	4604      	mov	r4, r0
 800986a:	b9b8      	cbnz	r0, 800989c <ModularInvBig+0x18c>
 800986c:	9803      	ldr	r0, [sp, #12]
 800986e:	f7ff f960 	bl	8008b32 <SignBig>
 8009872:	2800      	cmp	r0, #0
 8009874:	d1f2      	bne.n	800985c <ModularInvBig+0x14c>
 8009876:	e006      	b.n	8009886 <ModularInvBig+0x176>
 8009878:	4631      	mov	r1, r6
 800987a:	4602      	mov	r2, r0
 800987c:	462b      	mov	r3, r5
 800987e:	f7ff fcd4 	bl	800922a <SubBig>
 8009882:	4604      	mov	r4, r0
 8009884:	b950      	cbnz	r0, 800989c <ModularInvBig+0x18c>
 8009886:	9803      	ldr	r0, [sp, #12]
 8009888:	4631      	mov	r1, r6
 800988a:	f7ff f95f 	bl	8008b4c <CompareBig>
 800988e:	2800      	cmp	r0, #0
 8009890:	9803      	ldr	r0, [sp, #12]
 8009892:	daf1      	bge.n	8009878 <ModularInvBig+0x168>
 8009894:	4639      	mov	r1, r7
 8009896:	f7ff f89a 	bl	80089ce <CopyBig>
 800989a:	4604      	mov	r4, r0
 800989c:	a803      	add	r0, sp, #12
 800989e:	4629      	mov	r1, r5
 80098a0:	f7ff f871 	bl	8008986 <StFreeBig>
 80098a4:	a802      	add	r0, sp, #8
 80098a6:	4629      	mov	r1, r5
 80098a8:	f7ff f86d 	bl	8008986 <StFreeBig>
 80098ac:	a801      	add	r0, sp, #4
 80098ae:	4629      	mov	r1, r5
 80098b0:	f7ff f869 	bl	8008986 <StFreeBig>
 80098b4:	4668      	mov	r0, sp
 80098b6:	4629      	mov	r1, r5
 80098b8:	f7ff f865 	bl	8008986 <StFreeBig>
 80098bc:	e001      	b.n	80098c2 <ModularInvBig+0x1b2>
 80098be:	f241 44b6 	movw	r4, #5302	; 0x14b6
 80098c2:	4620      	mov	r0, r4
 80098c4:	b004      	add	sp, #16
 80098c6:	e8bd 81f0 	ldmia.w	sp!, {r4, r5, r6, r7, r8, pc}

080098ca <ModularExpSlidWin>:
 80098ca:	e92d 4ff0 	stmdb	sp!, {r4, r5, r6, r7, r8, r9, sl, fp, lr}
 80098ce:	461c      	mov	r4, r3
 80098d0:	888b      	ldrh	r3, [r1, #4]
 80098d2:	b08d      	sub	sp, #52	; 0x34
 80098d4:	2b01      	cmp	r3, #1
 80098d6:	9105      	str	r1, [sp, #20]
 80098d8:	4693      	mov	fp, r2
 80098da:	bf8c      	ite	hi
 80098dc:	2104      	movhi	r1, #4
 80098de:	2101      	movls	r1, #1
 80098e0:	7992      	ldrb	r2, [r2, #6]
 80098e2:	9d16      	ldr	r5, [sp, #88]	; 0x58
 80098e4:	9103      	str	r1, [sp, #12]
 80098e6:	1e4f      	subs	r7, r1, #1
 80098e8:	2301      	movs	r3, #1
 80098ea:	40bb      	lsls	r3, r7
 80098ec:	4681      	mov	r9, r0
 80098ee:	00d0      	lsls	r0, r2, #3
 80098f0:	0092      	lsls	r2, r2, #2
 80098f2:	88ee      	ldrh	r6, [r5, #6]
 80098f4:	9304      	str	r3, [sp, #16]
 80098f6:	301c      	adds	r0, #28
 80098f8:	b29b      	uxth	r3, r3
 80098fa:	3211      	adds	r2, #17
 80098fc:	88a9      	ldrh	r1, [r5, #4]
 80098fe:	fb02 0203 	mla	r2, r2, r3, r0
 8009902:	fa16 f282 	uxtah	r2, r6, r2
 8009906:	4291      	cmp	r1, r2
 8009908:	da02      	bge.n	8009910 <ModularExpSlidWin+0x46>
 800990a:	f240 34ed 	movw	r4, #1005	; 0x3ed
 800990e:	e106      	b.n	8009b1e <ModularExpSlidWin+0x254>
 8009910:	f8d5 8000 	ldr.w	r8, [r5]
 8009914:	009b      	lsls	r3, r3, #2
 8009916:	b29b      	uxth	r3, r3
 8009918:	9306      	str	r3, [sp, #24]
 800991a:	eb18 0a06 	adds.w	sl, r8, r6
 800991e:	4433      	add	r3, r6
 8009920:	80eb      	strh	r3, [r5, #6]
 8009922:	d0f2      	beq.n	800990a <ModularExpSlidWin+0x40>
 8009924:	4658      	mov	r0, fp
 8009926:	a908      	add	r1, sp, #32
 8009928:	462a      	mov	r2, r5
 800992a:	f7ff fcdc 	bl	80092e6 <MontyInit>
 800992e:	2800      	cmp	r0, #0
 8009930:	d1eb      	bne.n	800990a <ModularExpSlidWin+0x40>
 8009932:	ab08      	add	r3, sp, #32
 8009934:	4648      	mov	r0, r9
 8009936:	9909      	ldr	r1, [sp, #36]	; 0x24
 8009938:	464a      	mov	r2, r9
 800993a:	f7ff fd87 	bl	800944c <MontyMul>
 800993e:	4603      	mov	r3, r0
 8009940:	2800      	cmp	r0, #0
 8009942:	d1e2      	bne.n	800990a <ModularExpSlidWin+0x40>
 8009944:	a808      	add	r0, sp, #32
 8009946:	9301      	str	r3, [sp, #4]
 8009948:	f7ff fd6d 	bl	8009426 <MontyKillR2>
 800994c:	9b01      	ldr	r3, [sp, #4]
 800994e:	eb0a 0083 	add.w	r0, sl, r3, lsl #2
 8009952:	f89b 1006 	ldrb.w	r1, [fp, #6]
 8009956:	9301      	str	r3, [sp, #4]
 8009958:	462a      	mov	r2, r5
 800995a:	f7fe fff9 	bl	8008950 <StAllocBig>
 800995e:	9b01      	ldr	r3, [sp, #4]
 8009960:	4602      	mov	r2, r0
 8009962:	2800      	cmp	r0, #0
 8009964:	d1d1      	bne.n	800990a <ModularExpSlidWin+0x40>
 8009966:	9904      	ldr	r1, [sp, #16]
 8009968:	3301      	adds	r3, #1
 800996a:	428b      	cmp	r3, r1
 800996c:	dbef      	blt.n	800994e <ModularExpSlidWin+0x84>
 800996e:	4611      	mov	r1, r2
 8009970:	4620      	mov	r0, r4
 8009972:	9201      	str	r2, [sp, #4]
 8009974:	f7ff f814 	bl	80089a0 <InitBig>
 8009978:	f858 1006 	ldr.w	r1, [r8, r6]
 800997c:	4648      	mov	r0, r9
 800997e:	f7ff f826 	bl	80089ce <CopyBig>
 8009982:	9a01      	ldr	r2, [sp, #4]
 8009984:	4616      	mov	r6, r2
 8009986:	42be      	cmp	r6, r7
 8009988:	da0a      	bge.n	80099a0 <ModularExpSlidWin+0xd6>
 800998a:	f8da 0000 	ldr.w	r0, [sl]
 800998e:	ab08      	add	r3, sp, #32
 8009990:	4601      	mov	r1, r0
 8009992:	4602      	mov	r2, r0
 8009994:	f7ff fd5a 	bl	800944c <MontyMul>
 8009998:	2800      	cmp	r0, #0
 800999a:	d1b6      	bne.n	800990a <ModularExpSlidWin+0x40>
 800999c:	3601      	adds	r6, #1
 800999e:	e7f2      	b.n	8009986 <ModularExpSlidWin+0xbc>
 80099a0:	f1aa 0804 	sub.w	r8, sl, #4
 80099a4:	2601      	movs	r6, #1
 80099a6:	9a04      	ldr	r2, [sp, #16]
 80099a8:	4296      	cmp	r6, r2
 80099aa:	da0b      	bge.n	80099c4 <ModularExpSlidWin+0xfa>
 80099ac:	f858 0f04 	ldr.w	r0, [r8, #4]!
 80099b0:	4649      	mov	r1, r9
 80099b2:	f8d8 2004 	ldr.w	r2, [r8, #4]
 80099b6:	ab08      	add	r3, sp, #32
 80099b8:	f7ff fd48 	bl	800944c <MontyMul>
 80099bc:	2800      	cmp	r0, #0
 80099be:	d1a4      	bne.n	800990a <ModularExpSlidWin+0x40>
 80099c0:	3601      	adds	r6, #1
 80099c2:	e7f0      	b.n	80099a6 <ModularExpSlidWin+0xdc>
 80099c4:	9b05      	ldr	r3, [sp, #20]
 80099c6:	4648      	mov	r0, r9
 80099c8:	4621      	mov	r1, r4
 80099ca:	f8b3 b004 	ldrh.w	fp, [r3, #4]
 80099ce:	f7fe fffe 	bl	80089ce <CopyBig>
 80099d2:	2301      	movs	r3, #1
 80099d4:	fa03 f707 	lsl.w	r7, r3, r7
 80099d8:	f04f 0800 	mov.w	r8, #0
 80099dc:	43ff      	mvns	r7, r7
 80099de:	9707      	str	r7, [sp, #28]
 80099e0:	f10b 3bff 	add.w	fp, fp, #4294967295
 80099e4:	4646      	mov	r6, r8
 80099e6:	46c4      	mov	ip, r8
 80099e8:	9302      	str	r3, [sp, #8]
 80099ea:	4647      	mov	r7, r8
 80099ec:	9902      	ldr	r1, [sp, #8]
 80099ee:	3901      	subs	r1, #1
 80099f0:	9102      	str	r1, [sp, #8]
 80099f2:	d10a      	bne.n	8009a0a <ModularExpSlidWin+0x140>
 80099f4:	f1bb 3fff 	cmp.w	fp, #4294967295
 80099f8:	d04f      	beq.n	8009a9a <ModularExpSlidWin+0x1d0>
 80099fa:	9a05      	ldr	r2, [sp, #20]
 80099fc:	6813      	ldr	r3, [r2, #0]
 80099fe:	f853 802b 	ldr.w	r8, [r3, fp, lsl #2]
 8009a02:	2320      	movs	r3, #32
 8009a04:	f10b 3bff 	add.w	fp, fp, #4294967295
 8009a08:	9302      	str	r3, [sp, #8]
 8009a0a:	ea4f 73d8 	mov.w	r3, r8, lsr #31
 8009a0e:	ea4f 0848 	mov.w	r8, r8, lsl #1
 8009a12:	f1bc 0f00 	cmp.w	ip, #0
 8009a16:	d104      	bne.n	8009a22 <ModularExpSlidWin+0x158>
 8009a18:	2b00      	cmp	r3, #0
 8009a1a:	d0e7      	beq.n	80099ec <ModularExpSlidWin+0x122>
 8009a1c:	b19b      	cbz	r3, 8009a46 <ModularExpSlidWin+0x17c>
 8009a1e:	469c      	mov	ip, r3
 8009a20:	e7e4      	b.n	80099ec <ModularExpSlidWin+0x122>
 8009a22:	f1bc 0f01 	cmp.w	ip, #1
 8009a26:	d10e      	bne.n	8009a46 <ModularExpSlidWin+0x17c>
 8009a28:	b96b      	cbnz	r3, 8009a46 <ModularExpSlidWin+0x17c>
 8009a2a:	4620      	mov	r0, r4
 8009a2c:	4621      	mov	r1, r4
 8009a2e:	4622      	mov	r2, r4
 8009a30:	ab08      	add	r3, sp, #32
 8009a32:	f8cd c004 	str.w	ip, [sp, #4]
 8009a36:	f7ff fd09 	bl	800944c <MontyMul>
 8009a3a:	f8dd c004 	ldr.w	ip, [sp, #4]
 8009a3e:	2800      	cmp	r0, #0
 8009a40:	f47f af63 	bne.w	800990a <ModularExpSlidWin+0x40>
 8009a44:	e7d2      	b.n	80099ec <ModularExpSlidWin+0x122>
 8009a46:	9903      	ldr	r1, [sp, #12]
 8009a48:	3701      	adds	r7, #1
 8009a4a:	1bca      	subs	r2, r1, r7
 8009a4c:	4093      	lsls	r3, r2
 8009a4e:	428f      	cmp	r7, r1
 8009a50:	ea46 0603 	orr.w	r6, r6, r3
 8009a54:	d002      	beq.n	8009a5c <ModularExpSlidWin+0x192>
 8009a56:	f04f 0c02 	mov.w	ip, #2
 8009a5a:	e7c7      	b.n	80099ec <ModularExpSlidWin+0x122>
 8009a5c:	2700      	movs	r7, #0
 8009a5e:	4620      	mov	r0, r4
 8009a60:	4621      	mov	r1, r4
 8009a62:	4622      	mov	r2, r4
 8009a64:	ab08      	add	r3, sp, #32
 8009a66:	f7ff fcf1 	bl	800944c <MontyMul>
 8009a6a:	2800      	cmp	r0, #0
 8009a6c:	f47f af4d 	bne.w	800990a <ModularExpSlidWin+0x40>
 8009a70:	9a03      	ldr	r2, [sp, #12]
 8009a72:	3701      	adds	r7, #1
 8009a74:	4297      	cmp	r7, r2
 8009a76:	dbf2      	blt.n	8009a5e <ModularExpSlidWin+0x194>
 8009a78:	9b07      	ldr	r3, [sp, #28]
 8009a7a:	401e      	ands	r6, r3
 8009a7c:	4620      	mov	r0, r4
 8009a7e:	f85a 1026 	ldr.w	r1, [sl, r6, lsl #2]
 8009a82:	4622      	mov	r2, r4
 8009a84:	ab08      	add	r3, sp, #32
 8009a86:	f7ff fce1 	bl	800944c <MontyMul>
 8009a8a:	2800      	cmp	r0, #0
 8009a8c:	f47f af3d 	bne.w	800990a <ModularExpSlidWin+0x40>
 8009a90:	4606      	mov	r6, r0
 8009a92:	f04f 0c01 	mov.w	ip, #1
 8009a96:	4607      	mov	r7, r0
 8009a98:	e7a8      	b.n	80099ec <ModularExpSlidWin+0x122>
 8009a9a:	f1bc 0f02 	cmp.w	ip, #2
 8009a9e:	d00d      	beq.n	8009abc <ModularExpSlidWin+0x1f2>
 8009aa0:	4620      	mov	r0, r4
 8009aa2:	4621      	mov	r1, r4
 8009aa4:	aa08      	add	r2, sp, #32
 8009aa6:	f7ff fdbc 	bl	8009622 <MontyExit>
 8009aaa:	4604      	mov	r4, r0
 8009aac:	2800      	cmp	r0, #0
 8009aae:	f47f af2c 	bne.w	800990a <ModularExpSlidWin+0x40>
 8009ab2:	a808      	add	r0, sp, #32
 8009ab4:	f7ff fcbe 	bl	8009434 <MontyKillAll>
 8009ab8:	4626      	mov	r6, r4
 8009aba:	e023      	b.n	8009b04 <ModularExpSlidWin+0x23a>
 8009abc:	2f00      	cmp	r7, #0
 8009abe:	ddef      	ble.n	8009aa0 <ModularExpSlidWin+0x1d6>
 8009ac0:	9903      	ldr	r1, [sp, #12]
 8009ac2:	f8dd b008 	ldr.w	fp, [sp, #8]
 8009ac6:	f04f 0801 	mov.w	r8, #1
 8009aca:	fa08 f801 	lsl.w	r8, r8, r1
 8009ace:	4620      	mov	r0, r4
 8009ad0:	4621      	mov	r1, r4
 8009ad2:	4622      	mov	r2, r4
 8009ad4:	ab08      	add	r3, sp, #32
 8009ad6:	f7ff fcb9 	bl	800944c <MontyMul>
 8009ada:	2800      	cmp	r0, #0
 8009adc:	f47f af15 	bne.w	800990a <ModularExpSlidWin+0x40>
 8009ae0:	0076      	lsls	r6, r6, #1
 8009ae2:	ea18 0f06 	tst.w	r8, r6
 8009ae6:	d104      	bne.n	8009af2 <ModularExpSlidWin+0x228>
 8009ae8:	f10b 0b01 	add.w	fp, fp, #1
 8009aec:	45bb      	cmp	fp, r7
 8009aee:	d1ee      	bne.n	8009ace <ModularExpSlidWin+0x204>
 8009af0:	e7d6      	b.n	8009aa0 <ModularExpSlidWin+0x1d6>
 8009af2:	4620      	mov	r0, r4
 8009af4:	4649      	mov	r1, r9
 8009af6:	4622      	mov	r2, r4
 8009af8:	ab08      	add	r3, sp, #32
 8009afa:	f7ff fca7 	bl	800944c <MontyMul>
 8009afe:	2800      	cmp	r0, #0
 8009b00:	d0f2      	beq.n	8009ae8 <ModularExpSlidWin+0x21e>
 8009b02:	e702      	b.n	800990a <ModularExpSlidWin+0x40>
 8009b04:	eb0a 0086 	add.w	r0, sl, r6, lsl #2
 8009b08:	4629      	mov	r1, r5
 8009b0a:	f7fe ff3c 	bl	8008986 <StFreeBig>
 8009b0e:	9a04      	ldr	r2, [sp, #16]
 8009b10:	3601      	adds	r6, #1
 8009b12:	4296      	cmp	r6, r2
 8009b14:	dbf6      	blt.n	8009b04 <ModularExpSlidWin+0x23a>
 8009b16:	88eb      	ldrh	r3, [r5, #6]
 8009b18:	9906      	ldr	r1, [sp, #24]
 8009b1a:	1a5b      	subs	r3, r3, r1
 8009b1c:	80eb      	strh	r3, [r5, #6]
 8009b1e:	4620      	mov	r0, r4
 8009b20:	b00d      	add	sp, #52	; 0x34
 8009b22:	e8bd 8ff0 	ldmia.w	sp!, {r4, r5, r6, r7, r8, r9, sl, fp, pc}

08009b26 <crl_ModularExp>:
 8009b26:	e92d 4ff0 	stmdb	sp!, {r4, r5, r6, r7, r8, r9, sl, fp, lr}
 8009b2a:	b087      	sub	sp, #28
 8009b2c:	461f      	mov	r7, r3
 8009b2e:	2300      	movs	r3, #0
 8009b30:	4688      	mov	r8, r1
 8009b32:	4691      	mov	r9, r2
 8009b34:	9e11      	ldr	r6, [sp, #68]	; 0x44
 8009b36:	9d12      	ldr	r5, [sp, #72]	; 0x48
 8009b38:	9302      	str	r3, [sp, #8]
 8009b3a:	9303      	str	r3, [sp, #12]
 8009b3c:	9304      	str	r3, [sp, #16]
 8009b3e:	9305      	str	r3, [sp, #20]
 8009b40:	4683      	mov	fp, r0
 8009b42:	2800      	cmp	r0, #0
 8009b44:	d078      	beq.n	8009c38 <crl_ModularExp+0x112>
 8009b46:	2a00      	cmp	r2, #0
 8009b48:	d076      	beq.n	8009c38 <crl_ModularExp+0x112>
 8009b4a:	9b10      	ldr	r3, [sp, #64]	; 0x40
 8009b4c:	2b00      	cmp	r3, #0
 8009b4e:	d073      	beq.n	8009c38 <crl_ModularExp+0x112>
 8009b50:	2900      	cmp	r1, #0
 8009b52:	d071      	beq.n	8009c38 <crl_ModularExp+0x112>
 8009b54:	2f00      	cmp	r7, #0
 8009b56:	dd6f      	ble.n	8009c38 <crl_ModularExp+0x112>
 8009b58:	2e00      	cmp	r6, #0
 8009b5a:	dd6d      	ble.n	8009c38 <crl_ModularExp+0x112>
 8009b5c:	42b7      	cmp	r7, r6
 8009b5e:	dc6b      	bgt.n	8009c38 <crl_ModularExp+0x112>
 8009b60:	1cf3      	adds	r3, r6, #3
 8009b62:	ea4f 0a93 	mov.w	sl, r3, lsr #2
 8009b66:	a802      	add	r0, sp, #8
 8009b68:	4651      	mov	r1, sl
 8009b6a:	462a      	mov	r2, r5
 8009b6c:	f7fe fef0 	bl	8008950 <StAllocBig>
 8009b70:	4604      	mov	r4, r0
 8009b72:	2800      	cmp	r0, #0
 8009b74:	d162      	bne.n	8009c3c <crl_ModularExp+0x116>
 8009b76:	a804      	add	r0, sp, #16
 8009b78:	4651      	mov	r1, sl
 8009b7a:	462a      	mov	r2, r5
 8009b7c:	f7fe fee8 	bl	8008950 <StAllocBig>
 8009b80:	4604      	mov	r4, r0
 8009b82:	2800      	cmp	r0, #0
 8009b84:	d153      	bne.n	8009c2e <crl_ModularExp+0x108>
 8009b86:	4631      	mov	r1, r6
 8009b88:	9a04      	ldr	r2, [sp, #16]
 8009b8a:	9810      	ldr	r0, [sp, #64]	; 0x40
 8009b8c:	f7ff f892 	bl	8008cb4 <W8_to_Big>
 8009b90:	4631      	mov	r1, r6
 8009b92:	9a02      	ldr	r2, [sp, #8]
 8009b94:	4658      	mov	r0, fp
 8009b96:	f7ff f88d 	bl	8008cb4 <W8_to_Big>
 8009b9a:	9802      	ldr	r0, [sp, #8]
 8009b9c:	9904      	ldr	r1, [sp, #16]
 8009b9e:	f7fe ffd5 	bl	8008b4c <CompareBig>
 8009ba2:	2800      	cmp	r0, #0
 8009ba4:	da3d      	bge.n	8009c22 <crl_ModularExp+0xfc>
 8009ba6:	1cf9      	adds	r1, r7, #3
 8009ba8:	a805      	add	r0, sp, #20
 8009baa:	0889      	lsrs	r1, r1, #2
 8009bac:	462a      	mov	r2, r5
 8009bae:	f7fe fecf 	bl	8008950 <StAllocBig>
 8009bb2:	4604      	mov	r4, r0
 8009bb4:	2800      	cmp	r0, #0
 8009bb6:	d136      	bne.n	8009c26 <crl_ModularExp+0x100>
 8009bb8:	4639      	mov	r1, r7
 8009bba:	9a05      	ldr	r2, [sp, #20]
 8009bbc:	4648      	mov	r0, r9
 8009bbe:	f7ff f879 	bl	8008cb4 <W8_to_Big>
 8009bc2:	9b04      	ldr	r3, [sp, #16]
 8009bc4:	a803      	add	r0, sp, #12
 8009bc6:	7999      	ldrb	r1, [r3, #6]
 8009bc8:	462a      	mov	r2, r5
 8009bca:	f7fe fec1 	bl	8008950 <StAllocBig>
 8009bce:	4604      	mov	r4, r0
 8009bd0:	bb10      	cbnz	r0, 8009c18 <crl_ModularExp+0xf2>
 8009bd2:	9500      	str	r5, [sp, #0]
 8009bd4:	9802      	ldr	r0, [sp, #8]
 8009bd6:	9905      	ldr	r1, [sp, #20]
 8009bd8:	9a04      	ldr	r2, [sp, #16]
 8009bda:	9b03      	ldr	r3, [sp, #12]
 8009bdc:	f7ff fe75 	bl	80098ca <ModularExpSlidWin>
 8009be0:	4604      	mov	r4, r0
 8009be2:	b9a8      	cbnz	r0, 8009c10 <crl_ModularExp+0xea>
 8009be4:	4607      	mov	r7, r0
 8009be6:	9803      	ldr	r0, [sp, #12]
 8009be8:	f7ff f817 	bl	8008c1a <CountBytes>
 8009bec:	1a30      	subs	r0, r6, r0
 8009bee:	4287      	cmp	r7, r0
 8009bf0:	da04      	bge.n	8009bfc <crl_ModularExp+0xd6>
 8009bf2:	2300      	movs	r3, #0
 8009bf4:	f808 3007 	strb.w	r3, [r8, r7]
 8009bf8:	3701      	adds	r7, #1
 8009bfa:	e7f4      	b.n	8009be6 <crl_ModularExp+0xc0>
 8009bfc:	9f03      	ldr	r7, [sp, #12]
 8009bfe:	4638      	mov	r0, r7
 8009c00:	f7ff f80b 	bl	8008c1a <CountBytes>
 8009c04:	1a31      	subs	r1, r6, r0
 8009c06:	4441      	add	r1, r8
 8009c08:	4638      	mov	r0, r7
 8009c0a:	2200      	movs	r2, #0
 8009c0c:	f7ff f8ad 	bl	8008d6a <Big_to_W8>
 8009c10:	a803      	add	r0, sp, #12
 8009c12:	4629      	mov	r1, r5
 8009c14:	f7fe feb7 	bl	8008986 <StFreeBig>
 8009c18:	a805      	add	r0, sp, #20
 8009c1a:	4629      	mov	r1, r5
 8009c1c:	f7fe feb3 	bl	8008986 <StFreeBig>
 8009c20:	e001      	b.n	8009c26 <crl_ModularExp+0x100>
 8009c22:	f241 34f2 	movw	r4, #5106	; 0x13f2
 8009c26:	a804      	add	r0, sp, #16
 8009c28:	4629      	mov	r1, r5
 8009c2a:	f7fe feac 	bl	8008986 <StFreeBig>
 8009c2e:	a802      	add	r0, sp, #8
 8009c30:	4629      	mov	r1, r5
 8009c32:	f7fe fea8 	bl	8008986 <StFreeBig>
 8009c36:	e001      	b.n	8009c3c <crl_ModularExp+0x116>
 8009c38:	f241 34ef 	movw	r4, #5103	; 0x13ef
 8009c3c:	4620      	mov	r0, r4
 8009c3e:	b007      	add	sp, #28
 8009c40:	e8bd 8ff0 	ldmia.w	sp!, {r4, r5, r6, r7, r8, r9, sl, fp, pc}

08009c44 <RSASP1>:
 8009c44:	b5f0      	push	{r4, r5, r6, r7, lr}
 8009c46:	b087      	sub	sp, #28
 8009c48:	461d      	mov	r5, r3
 8009c4a:	2300      	movs	r3, #0
 8009c4c:	9305      	str	r3, [sp, #20]
 8009c4e:	4b16      	ldr	r3, [pc, #88]	; (8009ca8 <RSASP1+0x64>)
 8009c50:	4616      	mov	r6, r2
 8009c52:	2201      	movs	r2, #1
 8009c54:	601a      	str	r2, [r3, #0]
 8009c56:	681b      	ldr	r3, [r3, #0]
 8009c58:	9305      	str	r3, [sp, #20]
 8009c5a:	4b14      	ldr	r3, [pc, #80]	; (8009cac <RSASP1+0x68>)
 8009c5c:	681a      	ldr	r2, [r3, #0]
 8009c5e:	9205      	str	r2, [sp, #20]
 8009c60:	9a05      	ldr	r2, [sp, #20]
 8009c62:	3201      	adds	r2, #1
 8009c64:	4604      	mov	r4, r0
 8009c66:	460f      	mov	r7, r1
 8009c68:	6802      	ldr	r2, [r0, #0]
 8009c6a:	d105      	bne.n	8009c78 <RSASP1+0x34>
 8009c6c:	9905      	ldr	r1, [sp, #20]
 8009c6e:	6019      	str	r1, [r3, #0]
 8009c70:	681b      	ldr	r3, [r3, #0]
 8009c72:	9305      	str	r3, [sp, #20]
 8009c74:	9b05      	ldr	r3, [sp, #20]
 8009c76:	b153      	cbz	r3, 8009c8e <RSASP1+0x4a>
 8009c78:	6863      	ldr	r3, [r4, #4]
 8009c7a:	9200      	str	r2, [sp, #0]
 8009c7c:	3b01      	subs	r3, #1
 8009c7e:	9301      	str	r3, [sp, #4]
 8009c80:	9502      	str	r5, [sp, #8]
 8009c82:	4638      	mov	r0, r7
 8009c84:	1cb1      	adds	r1, r6, #2
 8009c86:	68a2      	ldr	r2, [r4, #8]
 8009c88:	68e3      	ldr	r3, [r4, #12]
 8009c8a:	f7ff ff4c 	bl	8009b26 <crl_ModularExp>
 8009c8e:	6823      	ldr	r3, [r4, #0]
 8009c90:	9300      	str	r3, [sp, #0]
 8009c92:	6863      	ldr	r3, [r4, #4]
 8009c94:	9301      	str	r3, [sp, #4]
 8009c96:	9502      	str	r5, [sp, #8]
 8009c98:	4638      	mov	r0, r7
 8009c9a:	4631      	mov	r1, r6
 8009c9c:	68a2      	ldr	r2, [r4, #8]
 8009c9e:	68e3      	ldr	r3, [r4, #12]
 8009ca0:	f7ff ff41 	bl	8009b26 <crl_ModularExp>
 8009ca4:	b007      	add	sp, #28
 8009ca6:	bdf0      	pop	{r4, r5, r6, r7, pc}
 8009ca8:	40023008 	.word	0x40023008
 8009cac:	40023000 	.word	0x40023000

08009cb0 <RSAVP1>:
 8009cb0:	b51f      	push	{r0, r1, r2, r3, r4, lr}
 8009cb2:	4604      	mov	r4, r0
 8009cb4:	6800      	ldr	r0, [r0, #0]
 8009cb6:	9000      	str	r0, [sp, #0]
 8009cb8:	6860      	ldr	r0, [r4, #4]
 8009cba:	9001      	str	r0, [sp, #4]
 8009cbc:	9302      	str	r3, [sp, #8]
 8009cbe:	4608      	mov	r0, r1
 8009cc0:	68e3      	ldr	r3, [r4, #12]
 8009cc2:	4611      	mov	r1, r2
 8009cc4:	68a2      	ldr	r2, [r4, #8]
 8009cc6:	f7ff ff2e 	bl	8009b26 <crl_ModularExp>
 8009cca:	b004      	add	sp, #16
 8009ccc:	bd10      	pop	{r4, pc}
	...

08009cd0 <RSA_PKCS1v15_Sign>:
 8009cd0:	e92d 4ff0 	stmdb	sp!, {r4, r5, r6, r7, r8, r9, sl, fp, lr}
 8009cd4:	b09f      	sub	sp, #124	; 0x7c
 8009cd6:	4c88      	ldr	r4, [pc, #544]	; (8009ef8 <RSA_PKCS1v15_Sign+0x228>)
 8009cd8:	9d28      	ldr	r5, [sp, #160]	; 0xa0
 8009cda:	f10d 0814 	add.w	r8, sp, #20
 8009cde:	4606      	mov	r6, r0
 8009ce0:	460f      	mov	r7, r1
 8009ce2:	f104 0a10 	add.w	sl, r4, #16
 8009ce6:	46c4      	mov	ip, r8
 8009ce8:	6820      	ldr	r0, [r4, #0]
 8009cea:	6861      	ldr	r1, [r4, #4]
 8009cec:	46c1      	mov	r9, r8
 8009cee:	e8a9 0003 	stmia.w	r9!, {r0, r1}
 8009cf2:	3408      	adds	r4, #8
 8009cf4:	4554      	cmp	r4, sl
 8009cf6:	46c8      	mov	r8, r9
 8009cf8:	d1f6      	bne.n	8009ce8 <RSA_PKCS1v15_Sign+0x18>
 8009cfa:	8821      	ldrh	r1, [r4, #0]
 8009cfc:	4c7f      	ldr	r4, [pc, #508]	; (8009efc <RSA_PKCS1v15_Sign+0x22c>)
 8009cfe:	f8a8 1000 	strh.w	r1, [r8]
 8009d02:	f10d 0904 	add.w	r9, sp, #4
 8009d06:	f104 0b08 	add.w	fp, r4, #8
 8009d0a:	46c8      	mov	r8, r9
 8009d0c:	6820      	ldr	r0, [r4, #0]
 8009d0e:	6861      	ldr	r1, [r4, #4]
 8009d10:	46ca      	mov	sl, r9
 8009d12:	e8aa 0003 	stmia.w	sl!, {r0, r1}
 8009d16:	3408      	adds	r4, #8
 8009d18:	455c      	cmp	r4, fp
 8009d1a:	46d1      	mov	r9, sl
 8009d1c:	d1f6      	bne.n	8009d0c <RSA_PKCS1v15_Sign+0x3c>
 8009d1e:	6820      	ldr	r0, [r4, #0]
 8009d20:	f8c9 0000 	str.w	r0, [r9]
 8009d24:	79a1      	ldrb	r1, [r4, #6]
 8009d26:	88a0      	ldrh	r0, [r4, #4]
 8009d28:	4c75      	ldr	r4, [pc, #468]	; (8009f00 <RSA_PKCS1v15_Sign+0x230>)
 8009d2a:	f8a9 0004 	strh.w	r0, [r9, #4]
 8009d2e:	f889 1006 	strb.w	r1, [r9, #6]
 8009d32:	f104 0b10 	add.w	fp, r4, #16
 8009d36:	f10d 0928 	add.w	r9, sp, #40	; 0x28
 8009d3a:	6820      	ldr	r0, [r4, #0]
 8009d3c:	6861      	ldr	r1, [r4, #4]
 8009d3e:	46ca      	mov	sl, r9
 8009d40:	e8aa 0003 	stmia.w	sl!, {r0, r1}
 8009d44:	3408      	adds	r4, #8
 8009d46:	455c      	cmp	r4, fp
 8009d48:	46d1      	mov	r9, sl
 8009d4a:	d1f6      	bne.n	8009d3a <RSA_PKCS1v15_Sign+0x6a>
 8009d4c:	8820      	ldrh	r0, [r4, #0]
 8009d4e:	78a1      	ldrb	r1, [r4, #2]
 8009d50:	4c6c      	ldr	r4, [pc, #432]	; (8009f04 <RSA_PKCS1v15_Sign+0x234>)
 8009d52:	f8a9 0000 	strh.w	r0, [r9]
 8009d56:	f889 1002 	strb.w	r1, [r9, #2]
 8009d5a:	f104 0b10 	add.w	fp, r4, #16
 8009d5e:	f10d 093c 	add.w	r9, sp, #60	; 0x3c
 8009d62:	6820      	ldr	r0, [r4, #0]
 8009d64:	6861      	ldr	r1, [r4, #4]
 8009d66:	46ca      	mov	sl, r9
 8009d68:	e8aa 0003 	stmia.w	sl!, {r0, r1}
 8009d6c:	3408      	adds	r4, #8
 8009d6e:	455c      	cmp	r4, fp
 8009d70:	46d1      	mov	r9, sl
 8009d72:	d1f6      	bne.n	8009d62 <RSA_PKCS1v15_Sign+0x92>
 8009d74:	8820      	ldrh	r0, [r4, #0]
 8009d76:	78a1      	ldrb	r1, [r4, #2]
 8009d78:	4c63      	ldr	r4, [pc, #396]	; (8009f08 <RSA_PKCS1v15_Sign+0x238>)
 8009d7a:	f8a9 0000 	strh.w	r0, [r9]
 8009d7e:	f889 1002 	strb.w	r1, [r9, #2]
 8009d82:	f104 0b10 	add.w	fp, r4, #16
 8009d86:	f10d 0950 	add.w	r9, sp, #80	; 0x50
 8009d8a:	6820      	ldr	r0, [r4, #0]
 8009d8c:	6861      	ldr	r1, [r4, #4]
 8009d8e:	46ca      	mov	sl, r9
 8009d90:	e8aa 0003 	stmia.w	sl!, {r0, r1}
 8009d94:	3408      	adds	r4, #8
 8009d96:	455c      	cmp	r4, fp
 8009d98:	46d1      	mov	r9, sl
 8009d9a:	d1f6      	bne.n	8009d8a <RSA_PKCS1v15_Sign+0xba>
 8009d9c:	8820      	ldrh	r0, [r4, #0]
 8009d9e:	78a1      	ldrb	r1, [r4, #2]
 8009da0:	4c5a      	ldr	r4, [pc, #360]	; (8009f0c <RSA_PKCS1v15_Sign+0x23c>)
 8009da2:	f8a9 0000 	strh.w	r0, [r9]
 8009da6:	f889 1002 	strb.w	r1, [r9, #2]
 8009daa:	f104 0b10 	add.w	fp, r4, #16
 8009dae:	f10d 0964 	add.w	r9, sp, #100	; 0x64
 8009db2:	6820      	ldr	r0, [r4, #0]
 8009db4:	6861      	ldr	r1, [r4, #4]
 8009db6:	46ca      	mov	sl, r9
 8009db8:	e8aa 0003 	stmia.w	sl!, {r0, r1}
 8009dbc:	3408      	adds	r4, #8
 8009dbe:	455c      	cmp	r4, fp
 8009dc0:	46d1      	mov	r9, sl
 8009dc2:	d1f6      	bne.n	8009db2 <RSA_PKCS1v15_Sign+0xe2>
 8009dc4:	8820      	ldrh	r0, [r4, #0]
 8009dc6:	78a1      	ldrb	r1, [r4, #2]
 8009dc8:	f8a9 0000 	strh.w	r0, [r9]
 8009dcc:	f889 1002 	strb.w	r1, [r9, #2]
 8009dd0:	2e00      	cmp	r6, #0
 8009dd2:	f000 8085 	beq.w	8009ee0 <RSA_PKCS1v15_Sign+0x210>
 8009dd6:	2f00      	cmp	r7, #0
 8009dd8:	f000 8082 	beq.w	8009ee0 <RSA_PKCS1v15_Sign+0x210>
 8009ddc:	2b00      	cmp	r3, #0
 8009dde:	d07f      	beq.n	8009ee0 <RSA_PKCS1v15_Sign+0x210>
 8009de0:	2d00      	cmp	r5, #0
 8009de2:	d07d      	beq.n	8009ee0 <RSA_PKCS1v15_Sign+0x210>
 8009de4:	2a05      	cmp	r2, #5
 8009de6:	d87e      	bhi.n	8009ee6 <RSA_PKCS1v15_Sign+0x216>
 8009de8:	e8df f002 	tbb	[pc, r2]
 8009dec:	0c07031b 	.word	0x0c07031b
 8009df0:	1611      	.short	0x1611
 8009df2:	46c4      	mov	ip, r8
 8009df4:	220f      	movs	r2, #15
 8009df6:	2014      	movs	r0, #20
 8009df8:	e015      	b.n	8009e26 <RSA_PKCS1v15_Sign+0x156>
 8009dfa:	f10d 0c28 	add.w	ip, sp, #40	; 0x28
 8009dfe:	2213      	movs	r2, #19
 8009e00:	201c      	movs	r0, #28
 8009e02:	e010      	b.n	8009e26 <RSA_PKCS1v15_Sign+0x156>
 8009e04:	f10d 0c3c 	add.w	ip, sp, #60	; 0x3c
 8009e08:	2213      	movs	r2, #19
 8009e0a:	2020      	movs	r0, #32
 8009e0c:	e00b      	b.n	8009e26 <RSA_PKCS1v15_Sign+0x156>
 8009e0e:	f10d 0c50 	add.w	ip, sp, #80	; 0x50
 8009e12:	2213      	movs	r2, #19
 8009e14:	2030      	movs	r0, #48	; 0x30
 8009e16:	e006      	b.n	8009e26 <RSA_PKCS1v15_Sign+0x156>
 8009e18:	f10d 0c64 	add.w	ip, sp, #100	; 0x64
 8009e1c:	2213      	movs	r2, #19
 8009e1e:	2040      	movs	r0, #64	; 0x40
 8009e20:	e001      	b.n	8009e26 <RSA_PKCS1v15_Sign+0x156>
 8009e22:	2212      	movs	r2, #18
 8009e24:	2010      	movs	r0, #16
 8009e26:	f8b5 8006 	ldrh.w	r8, [r5, #6]
 8009e2a:	88b4      	ldrh	r4, [r6, #4]
 8009e2c:	88a9      	ldrh	r1, [r5, #4]
 8009e2e:	eb08 0904 	add.w	r9, r8, r4
 8009e32:	4549      	cmp	r1, r9
 8009e34:	db5a      	blt.n	8009eec <RSA_PKCS1v15_Sign+0x21c>
 8009e36:	1811      	adds	r1, r2, r0
 8009e38:	f8a5 9006 	strh.w	r9, [r5, #6]
 8009e3c:	f101 090a 	add.w	r9, r1, #10
 8009e40:	45a1      	cmp	r9, r4
 8009e42:	f8d5 a000 	ldr.w	sl, [r5]
 8009e46:	da45      	bge.n	8009ed4 <RSA_PKCS1v15_Sign+0x204>
 8009e48:	f1a4 0903 	sub.w	r9, r4, #3
 8009e4c:	ebc1 0909 	rsb	r9, r1, r9
 8009e50:	f04f 0e00 	mov.w	lr, #0
 8009e54:	eb0a 0108 	add.w	r1, sl, r8
 8009e58:	f80a e008 	strb.w	lr, [sl, r8]
 8009e5c:	f04f 0e01 	mov.w	lr, #1
 8009e60:	f881 e001 	strb.w	lr, [r1, #1]
 8009e64:	fa1f f989 	uxth.w	r9, r9
 8009e68:	468e      	mov	lr, r1
 8009e6a:	ebc1 080e 	rsb	r8, r1, lr
 8009e6e:	fa1f f888 	uxth.w	r8, r8
 8009e72:	45c8      	cmp	r8, r9
 8009e74:	d206      	bcs.n	8009e84 <RSA_PKCS1v15_Sign+0x1b4>
 8009e76:	f04f 08ff 	mov.w	r8, #255	; 0xff
 8009e7a:	f88e 8002 	strb.w	r8, [lr, #2]
 8009e7e:	f10e 0e01 	add.w	lr, lr, #1
 8009e82:	e7f2      	b.n	8009e6a <RSA_PKCS1v15_Sign+0x19a>
 8009e84:	eb01 0809 	add.w	r8, r1, r9
 8009e88:	f04f 0e00 	mov.w	lr, #0
 8009e8c:	f888 e002 	strb.w	lr, [r8, #2]
 8009e90:	eb08 0a0e 	add.w	sl, r8, lr
 8009e94:	f81c b00e 	ldrb.w	fp, [ip, lr]
 8009e98:	f88a b003 	strb.w	fp, [sl, #3]
 8009e9c:	f10e 0e01 	add.w	lr, lr, #1
 8009ea0:	fa1f fa8e 	uxth.w	sl, lr
 8009ea4:	4592      	cmp	sl, r2
 8009ea6:	d3f3      	bcc.n	8009e90 <RSA_PKCS1v15_Sign+0x1c0>
 8009ea8:	f04f 0e00 	mov.w	lr, #0
 8009eac:	eb09 0c02 	add.w	ip, r9, r2
 8009eb0:	448c      	add	ip, r1
 8009eb2:	44f4      	add	ip, lr
 8009eb4:	f817 800e 	ldrb.w	r8, [r7, lr]
 8009eb8:	f88c 8003 	strb.w	r8, [ip, #3]
 8009ebc:	f10e 0e01 	add.w	lr, lr, #1
 8009ec0:	fa1f fc8e 	uxth.w	ip, lr
 8009ec4:	4584      	cmp	ip, r0
 8009ec6:	d3f1      	bcc.n	8009eac <RSA_PKCS1v15_Sign+0x1dc>
 8009ec8:	461a      	mov	r2, r3
 8009eca:	4630      	mov	r0, r6
 8009ecc:	462b      	mov	r3, r5
 8009ece:	f7ff feb9 	bl	8009c44 <RSASP1>
 8009ed2:	e001      	b.n	8009ed8 <RSA_PKCS1v15_Sign+0x208>
 8009ed4:	f241 30f3 	movw	r0, #5107	; 0x13f3
 8009ed8:	88eb      	ldrh	r3, [r5, #6]
 8009eda:	1b1c      	subs	r4, r3, r4
 8009edc:	80ec      	strh	r4, [r5, #6]
 8009ede:	e007      	b.n	8009ef0 <RSA_PKCS1v15_Sign+0x220>
 8009ee0:	f241 30f0 	movw	r0, #5104	; 0x13f0
 8009ee4:	e004      	b.n	8009ef0 <RSA_PKCS1v15_Sign+0x220>
 8009ee6:	f241 30f1 	movw	r0, #5105	; 0x13f1
 8009eea:	e001      	b.n	8009ef0 <RSA_PKCS1v15_Sign+0x220>
 8009eec:	f240 30ed 	movw	r0, #1005	; 0x3ed
 8009ef0:	b01f      	add	sp, #124	; 0x7c
 8009ef2:	e8bd 8ff0 	ldmia.w	sp!, {r4, r5, r6, r7, r8, r9, sl, fp, pc}
 8009ef6:	bf00      	nop
 8009ef8:	0800ebcc 	.word	0x0800ebcc
 8009efc:	0800ebde 	.word	0x0800ebde
 8009f00:	0800ebed 	.word	0x0800ebed
 8009f04:	0800ec00 	.word	0x0800ec00
 8009f08:	0800ec13 	.word	0x0800ec13
 8009f0c:	0800ec26 	.word	0x0800ec26

08009f10 <RSA_PKCS1v15_Verify>:
 8009f10:	e92d 4ff0 	stmdb	sp!, {r4, r5, r6, r7, r8, r9, sl, fp, lr}
 8009f14:	b09f      	sub	sp, #124	; 0x7c
 8009f16:	4690      	mov	r8, r2
 8009f18:	4a95      	ldr	r2, [pc, #596]	; (800a170 <RSA_PKCS1v15_Verify+0x260>)
 8009f1a:	9c28      	ldr	r4, [sp, #160]	; 0xa0
 8009f1c:	ad05      	add	r5, sp, #20
 8009f1e:	4606      	mov	r6, r0
 8009f20:	460f      	mov	r7, r1
 8009f22:	f102 0a10 	add.w	sl, r2, #16
 8009f26:	46a9      	mov	r9, r5
 8009f28:	6810      	ldr	r0, [r2, #0]
 8009f2a:	6851      	ldr	r1, [r2, #4]
 8009f2c:	46ac      	mov	ip, r5
 8009f2e:	e8ac 0003 	stmia.w	ip!, {r0, r1}
 8009f32:	3208      	adds	r2, #8
 8009f34:	4552      	cmp	r2, sl
 8009f36:	4665      	mov	r5, ip
 8009f38:	d1f6      	bne.n	8009f28 <RSA_PKCS1v15_Verify+0x18>
 8009f3a:	8812      	ldrh	r2, [r2, #0]
 8009f3c:	802a      	strh	r2, [r5, #0]
 8009f3e:	4d8d      	ldr	r5, [pc, #564]	; (800a174 <RSA_PKCS1v15_Verify+0x264>)
 8009f40:	aa01      	add	r2, sp, #4
 8009f42:	f105 0b08 	add.w	fp, r5, #8
 8009f46:	4692      	mov	sl, r2
 8009f48:	6828      	ldr	r0, [r5, #0]
 8009f4a:	6869      	ldr	r1, [r5, #4]
 8009f4c:	4694      	mov	ip, r2
 8009f4e:	e8ac 0003 	stmia.w	ip!, {r0, r1}
 8009f52:	3508      	adds	r5, #8
 8009f54:	455d      	cmp	r5, fp
 8009f56:	4662      	mov	r2, ip
 8009f58:	d1f6      	bne.n	8009f48 <RSA_PKCS1v15_Verify+0x38>
 8009f5a:	6828      	ldr	r0, [r5, #0]
 8009f5c:	6010      	str	r0, [r2, #0]
 8009f5e:	79a9      	ldrb	r1, [r5, #6]
 8009f60:	88a8      	ldrh	r0, [r5, #4]
 8009f62:	8090      	strh	r0, [r2, #4]
 8009f64:	7191      	strb	r1, [r2, #6]
 8009f66:	4a84      	ldr	r2, [pc, #528]	; (800a178 <RSA_PKCS1v15_Verify+0x268>)
 8009f68:	ad0a      	add	r5, sp, #40	; 0x28
 8009f6a:	f102 0b10 	add.w	fp, r2, #16
 8009f6e:	6810      	ldr	r0, [r2, #0]
 8009f70:	6851      	ldr	r1, [r2, #4]
 8009f72:	46ac      	mov	ip, r5
 8009f74:	e8ac 0003 	stmia.w	ip!, {r0, r1}
 8009f78:	3208      	adds	r2, #8
 8009f7a:	455a      	cmp	r2, fp
 8009f7c:	4665      	mov	r5, ip
 8009f7e:	d1f6      	bne.n	8009f6e <RSA_PKCS1v15_Verify+0x5e>
 8009f80:	8811      	ldrh	r1, [r2, #0]
 8009f82:	7892      	ldrb	r2, [r2, #2]
 8009f84:	70aa      	strb	r2, [r5, #2]
 8009f86:	4a7d      	ldr	r2, [pc, #500]	; (800a17c <RSA_PKCS1v15_Verify+0x26c>)
 8009f88:	8029      	strh	r1, [r5, #0]
 8009f8a:	f102 0b10 	add.w	fp, r2, #16
 8009f8e:	ad0f      	add	r5, sp, #60	; 0x3c
 8009f90:	6810      	ldr	r0, [r2, #0]
 8009f92:	6851      	ldr	r1, [r2, #4]
 8009f94:	46ac      	mov	ip, r5
 8009f96:	e8ac 0003 	stmia.w	ip!, {r0, r1}
 8009f9a:	3208      	adds	r2, #8
 8009f9c:	455a      	cmp	r2, fp
 8009f9e:	4665      	mov	r5, ip
 8009fa0:	d1f6      	bne.n	8009f90 <RSA_PKCS1v15_Verify+0x80>
 8009fa2:	8811      	ldrh	r1, [r2, #0]
 8009fa4:	7892      	ldrb	r2, [r2, #2]
 8009fa6:	70aa      	strb	r2, [r5, #2]
 8009fa8:	8029      	strh	r1, [r5, #0]
 8009faa:	4d75      	ldr	r5, [pc, #468]	; (800a180 <RSA_PKCS1v15_Verify+0x270>)
 8009fac:	aa14      	add	r2, sp, #80	; 0x50
 8009fae:	f105 0b10 	add.w	fp, r5, #16
 8009fb2:	6828      	ldr	r0, [r5, #0]
 8009fb4:	6869      	ldr	r1, [r5, #4]
 8009fb6:	4694      	mov	ip, r2
 8009fb8:	e8ac 0003 	stmia.w	ip!, {r0, r1}
 8009fbc:	3508      	adds	r5, #8
 8009fbe:	455d      	cmp	r5, fp
 8009fc0:	4662      	mov	r2, ip
 8009fc2:	d1f6      	bne.n	8009fb2 <RSA_PKCS1v15_Verify+0xa2>
 8009fc4:	8828      	ldrh	r0, [r5, #0]
 8009fc6:	78a9      	ldrb	r1, [r5, #2]
 8009fc8:	4d6e      	ldr	r5, [pc, #440]	; (800a184 <RSA_PKCS1v15_Verify+0x274>)
 8009fca:	8010      	strh	r0, [r2, #0]
 8009fcc:	7091      	strb	r1, [r2, #2]
 8009fce:	f105 0b10 	add.w	fp, r5, #16
 8009fd2:	aa19      	add	r2, sp, #100	; 0x64
 8009fd4:	6828      	ldr	r0, [r5, #0]
 8009fd6:	6869      	ldr	r1, [r5, #4]
 8009fd8:	4694      	mov	ip, r2
 8009fda:	e8ac 0003 	stmia.w	ip!, {r0, r1}
 8009fde:	3508      	adds	r5, #8
 8009fe0:	455d      	cmp	r5, fp
 8009fe2:	4662      	mov	r2, ip
 8009fe4:	d1f6      	bne.n	8009fd4 <RSA_PKCS1v15_Verify+0xc4>
 8009fe6:	8828      	ldrh	r0, [r5, #0]
 8009fe8:	78a9      	ldrb	r1, [r5, #2]
 8009fea:	8010      	strh	r0, [r2, #0]
 8009fec:	7091      	strb	r1, [r2, #2]
 8009fee:	2e00      	cmp	r6, #0
 8009ff0:	f000 80b5 	beq.w	800a15e <RSA_PKCS1v15_Verify+0x24e>
 8009ff4:	2f00      	cmp	r7, #0
 8009ff6:	f000 80b2 	beq.w	800a15e <RSA_PKCS1v15_Verify+0x24e>
 8009ffa:	2b00      	cmp	r3, #0
 8009ffc:	f000 80af 	beq.w	800a15e <RSA_PKCS1v15_Verify+0x24e>
 800a000:	2c00      	cmp	r4, #0
 800a002:	f000 80ac 	beq.w	800a15e <RSA_PKCS1v15_Verify+0x24e>
 800a006:	88e1      	ldrh	r1, [r4, #6]
 800a008:	6872      	ldr	r2, [r6, #4]
 800a00a:	88a0      	ldrh	r0, [r4, #4]
 800a00c:	440a      	add	r2, r1
 800a00e:	4290      	cmp	r0, r2
 800a010:	da02      	bge.n	800a018 <RSA_PKCS1v15_Verify+0x108>
 800a012:	f240 30ed 	movw	r0, #1005	; 0x3ed
 800a016:	e0a7      	b.n	800a168 <RSA_PKCS1v15_Verify+0x258>
 800a018:	6825      	ldr	r5, [r4, #0]
 800a01a:	80e2      	strh	r2, [r4, #6]
 800a01c:	440d      	add	r5, r1
 800a01e:	4630      	mov	r0, r6
 800a020:	4619      	mov	r1, r3
 800a022:	462a      	mov	r2, r5
 800a024:	4623      	mov	r3, r4
 800a026:	f7ff fe43 	bl	8009cb0 <RSAVP1>
 800a02a:	2800      	cmp	r0, #0
 800a02c:	f040 8090 	bne.w	800a150 <RSA_PKCS1v15_Verify+0x240>
 800a030:	f1b8 0f05 	cmp.w	r8, #5
 800a034:	f200 8096 	bhi.w	800a164 <RSA_PKCS1v15_Verify+0x254>
 800a038:	e8df f008 	tbb	[pc, r8]
 800a03c:	0c07031b 	.word	0x0c07031b
 800a040:	1611      	.short	0x1611
 800a042:	46d1      	mov	r9, sl
 800a044:	230f      	movs	r3, #15
 800a046:	2214      	movs	r2, #20
 800a048:	e015      	b.n	800a076 <RSA_PKCS1v15_Verify+0x166>
 800a04a:	f10d 0928 	add.w	r9, sp, #40	; 0x28
 800a04e:	2313      	movs	r3, #19
 800a050:	221c      	movs	r2, #28
 800a052:	e010      	b.n	800a076 <RSA_PKCS1v15_Verify+0x166>
 800a054:	f10d 093c 	add.w	r9, sp, #60	; 0x3c
 800a058:	2313      	movs	r3, #19
 800a05a:	2220      	movs	r2, #32
 800a05c:	e00b      	b.n	800a076 <RSA_PKCS1v15_Verify+0x166>
 800a05e:	f10d 0950 	add.w	r9, sp, #80	; 0x50
 800a062:	2313      	movs	r3, #19
 800a064:	2230      	movs	r2, #48	; 0x30
 800a066:	e006      	b.n	800a076 <RSA_PKCS1v15_Verify+0x166>
 800a068:	f10d 0964 	add.w	r9, sp, #100	; 0x64
 800a06c:	2313      	movs	r3, #19
 800a06e:	2240      	movs	r2, #64	; 0x40
 800a070:	e001      	b.n	800a076 <RSA_PKCS1v15_Verify+0x166>
 800a072:	2312      	movs	r3, #18
 800a074:	2210      	movs	r2, #16
 800a076:	6871      	ldr	r1, [r6, #4]
 800a078:	f8b4 c006 	ldrh.w	ip, [r4, #6]
 800a07c:	f8b4 8004 	ldrh.w	r8, [r4, #4]
 800a080:	eb0c 0001 	add.w	r0, ip, r1
 800a084:	4580      	cmp	r8, r0
 800a086:	dbc4      	blt.n	800a012 <RSA_PKCS1v15_Verify+0x102>
 800a088:	fa1f fa81 	uxth.w	sl, r1
 800a08c:	eb0a 0b0c 	add.w	fp, sl, ip
 800a090:	eb03 0802 	add.w	r8, r3, r2
 800a094:	f8a4 b006 	strh.w	fp, [r4, #6]
 800a098:	f108 0b0a 	add.w	fp, r8, #10
 800a09c:	458b      	cmp	fp, r1
 800a09e:	6820      	ldr	r0, [r4, #0]
 800a0a0:	da4f      	bge.n	800a142 <RSA_PKCS1v15_Verify+0x232>
 800a0a2:	eb00 010c 	add.w	r1, r0, ip
 800a0a6:	f04f 0b00 	mov.w	fp, #0
 800a0aa:	f800 b00c 	strb.w	fp, [r0, ip]
 800a0ae:	2001      	movs	r0, #1
 800a0b0:	7048      	strb	r0, [r1, #1]
 800a0b2:	4658      	mov	r0, fp
 800a0b4:	f1aa 0c03 	sub.w	ip, sl, #3
 800a0b8:	ebc8 0c0c 	rsb	ip, r8, ip
 800a0bc:	fa1f fc8c 	uxth.w	ip, ip
 800a0c0:	4560      	cmp	r0, ip
 800a0c2:	da07      	bge.n	800a0d4 <RSA_PKCS1v15_Verify+0x1c4>
 800a0c4:	eb01 0c00 	add.w	ip, r1, r0
 800a0c8:	f04f 0bff 	mov.w	fp, #255	; 0xff
 800a0cc:	f88c b002 	strb.w	fp, [ip, #2]
 800a0d0:	3001      	adds	r0, #1
 800a0d2:	e7ef      	b.n	800a0b4 <RSA_PKCS1v15_Verify+0x1a4>
 800a0d4:	ebc8 080a 	rsb	r8, r8, sl
 800a0d8:	448c      	add	ip, r1
 800a0da:	f1a8 0803 	sub.w	r8, r8, #3
 800a0de:	2000      	movs	r0, #0
 800a0e0:	fa1f f888 	uxth.w	r8, r8
 800a0e4:	f88c 0002 	strb.w	r0, [ip, #2]
 800a0e8:	4298      	cmp	r0, r3
 800a0ea:	da08      	bge.n	800a0fe <RSA_PKCS1v15_Verify+0x1ee>
 800a0ec:	eb01 0c08 	add.w	ip, r1, r8
 800a0f0:	4484      	add	ip, r0
 800a0f2:	f819 a000 	ldrb.w	sl, [r9, r0]
 800a0f6:	f88c a003 	strb.w	sl, [ip, #3]
 800a0fa:	3001      	adds	r0, #1
 800a0fc:	e7f4      	b.n	800a0e8 <RSA_PKCS1v15_Verify+0x1d8>
 800a0fe:	2000      	movs	r0, #0
 800a100:	4290      	cmp	r0, r2
 800a102:	da09      	bge.n	800a118 <RSA_PKCS1v15_Verify+0x208>
 800a104:	eb08 0c03 	add.w	ip, r8, r3
 800a108:	448c      	add	ip, r1
 800a10a:	4484      	add	ip, r0
 800a10c:	f817 9000 	ldrb.w	r9, [r7, r0]
 800a110:	f88c 9003 	strb.w	r9, [ip, #3]
 800a114:	3001      	adds	r0, #1
 800a116:	e7f3      	b.n	800a100 <RSA_PKCS1v15_Verify+0x1f0>
 800a118:	2200      	movs	r2, #0
 800a11a:	6870      	ldr	r0, [r6, #4]
 800a11c:	4613      	mov	r3, r2
 800a11e:	4283      	cmp	r3, r0
 800a120:	da07      	bge.n	800a132 <RSA_PKCS1v15_Verify+0x222>
 800a122:	f815 c003 	ldrb.w	ip, [r5, r3]
 800a126:	5ccf      	ldrb	r7, [r1, r3]
 800a128:	ea8c 0707 	eor.w	r7, ip, r7
 800a12c:	433a      	orrs	r2, r7
 800a12e:	3301      	adds	r3, #1
 800a130:	e7f5      	b.n	800a11e <RSA_PKCS1v15_Verify+0x20e>
 800a132:	2a00      	cmp	r2, #0
 800a134:	f240 33eb 	movw	r3, #1003	; 0x3eb
 800a138:	bf14      	ite	ne
 800a13a:	f44f 707b 	movne.w	r0, #1004	; 0x3ec
 800a13e:	4618      	moveq	r0, r3
 800a140:	e001      	b.n	800a146 <RSA_PKCS1v15_Verify+0x236>
 800a142:	f241 30f3 	movw	r0, #5107	; 0x13f3
 800a146:	6872      	ldr	r2, [r6, #4]
 800a148:	88e1      	ldrh	r1, [r4, #6]
 800a14a:	1a8a      	subs	r2, r1, r2
 800a14c:	80e2      	strh	r2, [r4, #6]
 800a14e:	e001      	b.n	800a154 <RSA_PKCS1v15_Verify+0x244>
 800a150:	f44f 707b 	mov.w	r0, #1004	; 0x3ec
 800a154:	6872      	ldr	r2, [r6, #4]
 800a156:	88e1      	ldrh	r1, [r4, #6]
 800a158:	1a8a      	subs	r2, r1, r2
 800a15a:	80e2      	strh	r2, [r4, #6]
 800a15c:	e004      	b.n	800a168 <RSA_PKCS1v15_Verify+0x258>
 800a15e:	f241 30f0 	movw	r0, #5104	; 0x13f0
 800a162:	e001      	b.n	800a168 <RSA_PKCS1v15_Verify+0x258>
 800a164:	f241 30f1 	movw	r0, #5105	; 0x13f1
 800a168:	b01f      	add	sp, #124	; 0x7c
 800a16a:	e8bd 8ff0 	ldmia.w	sp!, {r4, r5, r6, r7, r8, r9, sl, fp, pc}
 800a16e:	bf00      	nop
 800a170:	0800ebcc 	.word	0x0800ebcc
 800a174:	0800ebde 	.word	0x0800ebde
 800a178:	0800ebed 	.word	0x0800ebed
 800a17c:	0800ec00 	.word	0x0800ec00
 800a180:	0800ec13 	.word	0x0800ec13
 800a184:	0800ec26 	.word	0x0800ec26

0800a188 <RSA_PKCS1v15_Decrypt>:
 800a188:	e92d 47f3 	stmdb	sp!, {r0, r1, r4, r5, r6, r7, r8, r9, sl, lr}
 800a18c:	4691      	mov	r9, r2
 800a18e:	2200      	movs	r2, #0
 800a190:	460c      	mov	r4, r1
 800a192:	461e      	mov	r6, r3
 800a194:	9201      	str	r2, [sp, #4]
 800a196:	4607      	mov	r7, r0
 800a198:	2800      	cmp	r0, #0
 800a19a:	f000 80c2 	beq.w	800a322 <RSA_PKCS1v15_Decrypt+0x19a>
 800a19e:	2900      	cmp	r1, #0
 800a1a0:	f000 80bf 	beq.w	800a322 <RSA_PKCS1v15_Decrypt+0x19a>
 800a1a4:	f1b9 0f00 	cmp.w	r9, #0
 800a1a8:	f000 80bb 	beq.w	800a322 <RSA_PKCS1v15_Decrypt+0x19a>
 800a1ac:	6809      	ldr	r1, [r1, #0]
 800a1ae:	2900      	cmp	r1, #0
 800a1b0:	f000 80b7 	beq.w	800a322 <RSA_PKCS1v15_Decrypt+0x19a>
 800a1b4:	68a2      	ldr	r2, [r4, #8]
 800a1b6:	2a00      	cmp	r2, #0
 800a1b8:	f000 80b3 	beq.w	800a322 <RSA_PKCS1v15_Decrypt+0x19a>
 800a1bc:	6862      	ldr	r2, [r4, #4]
 800a1be:	6845      	ldr	r5, [r0, #4]
 800a1c0:	42aa      	cmp	r2, r5
 800a1c2:	f040 80ae 	bne.w	800a322 <RSA_PKCS1v15_Decrypt+0x19a>
 800a1c6:	88dd      	ldrh	r5, [r3, #6]
 800a1c8:	f8b3 c004 	ldrh.w	ip, [r3, #4]
 800a1cc:	442a      	add	r2, r5
 800a1ce:	4594      	cmp	ip, r2
 800a1d0:	f2c0 80a7 	blt.w	800a322 <RSA_PKCS1v15_Decrypt+0x19a>
 800a1d4:	f8d3 a000 	ldr.w	sl, [r3]
 800a1d8:	80da      	strh	r2, [r3, #6]
 800a1da:	eb0a 0805 	add.w	r8, sl, r5
 800a1de:	4642      	mov	r2, r8
 800a1e0:	f7ff fd30 	bl	8009c44 <RSASP1>
 800a1e4:	2800      	cmp	r0, #0
 800a1e6:	f040 8095 	bne.w	800a314 <RSA_PKCS1v15_Decrypt+0x18c>
 800a1ea:	f898 c001 	ldrb.w	ip, [r8, #1]
 800a1ee:	f81a 3005 	ldrb.w	r3, [sl, r5]
 800a1f2:	f08c 0c02 	eor.w	ip, ip, #2
 800a1f6:	ea4c 0c03 	orr.w	ip, ip, r3
 800a1fa:	687b      	ldr	r3, [r7, #4]
 800a1fc:	2502      	movs	r5, #2
 800a1fe:	4601      	mov	r1, r0
 800a200:	2201      	movs	r2, #1
 800a202:	429d      	cmp	r5, r3
 800a204:	da0b      	bge.n	800a21e <RSA_PKCS1v15_Decrypt+0x96>
 800a206:	f818 0005 	ldrb.w	r0, [r8, r5]
 800a20a:	ea40 1010 	orr.w	r0, r0, r0, lsr #4
 800a20e:	ea40 0090 	orr.w	r0, r0, r0, lsr #2
 800a212:	ea40 0050 	orr.w	r0, r0, r0, lsr #1
 800a216:	4002      	ands	r2, r0
 800a218:	4411      	add	r1, r2
 800a21a:	3501      	adds	r5, #1
 800a21c:	e7f1      	b.n	800a202 <RSA_PKCS1v15_Decrypt+0x7a>
 800a21e:	f021 0207 	bic.w	r2, r1, #7
 800a222:	ea42 2222 	orr.w	r2, r2, r2, asr #8
 800a226:	ea42 1222 	orr.w	r2, r2, r2, asr #4
 800a22a:	ea42 02a2 	orr.w	r2, r2, r2, asr #2
 800a22e:	1a58      	subs	r0, r3, r1
 800a230:	ea42 0262 	orr.w	r2, r2, r2, asr #1
 800a234:	3803      	subs	r0, #3
 800a236:	f002 0201 	and.w	r2, r2, #1
 800a23a:	f082 0201 	eor.w	r2, r2, #1
 800a23e:	ea4c 7cd0 	orr.w	ip, ip, r0, lsr #31
 800a242:	ea4c 0002 	orr.w	r0, ip, r2
 800a246:	f000 0001 	and.w	r0, r0, #1
 800a24a:	f080 0001 	eor.w	r0, r0, #1
 800a24e:	0042      	lsls	r2, r0, #1
 800a250:	4310      	orrs	r0, r2
 800a252:	6862      	ldr	r2, [r4, #4]
 800a254:	1a52      	subs	r2, r2, r1
 800a256:	3a03      	subs	r2, #3
 800a258:	fb92 f5f3 	sdiv	r5, r2, r3
 800a25c:	fb03 2315 	mls	r3, r3, r5, r2
 800a260:	f8c9 3000 	str.w	r3, [r9]
 800a264:	4b31      	ldr	r3, [pc, #196]	; (800a32c <RSA_PKCS1v15_Decrypt+0x1a4>)
 800a266:	2201      	movs	r2, #1
 800a268:	601a      	str	r2, [r3, #0]
 800a26a:	681b      	ldr	r3, [r3, #0]
 800a26c:	9301      	str	r3, [sp, #4]
 800a26e:	4b30      	ldr	r3, [pc, #192]	; (800a330 <RSA_PKCS1v15_Decrypt+0x1a8>)
 800a270:	681a      	ldr	r2, [r3, #0]
 800a272:	9201      	str	r2, [sp, #4]
 800a274:	ea40 0080 	orr.w	r0, r0, r0, lsl #2
 800a278:	9a01      	ldr	r2, [sp, #4]
 800a27a:	ea40 1000 	orr.w	r0, r0, r0, lsl #4
 800a27e:	ea40 2000 	orr.w	r0, r0, r0, lsl #8
 800a282:	3201      	adds	r2, #1
 800a284:	ea40 4000 	orr.w	r0, r0, r0, lsl #16
 800a288:	d002      	beq.n	800a290 <RSA_PKCS1v15_Decrypt+0x108>
 800a28a:	2500      	movs	r5, #0
 800a28c:	462a      	mov	r2, r5
 800a28e:	e02f      	b.n	800a2f0 <RSA_PKCS1v15_Decrypt+0x168>
 800a290:	9a01      	ldr	r2, [sp, #4]
 800a292:	601a      	str	r2, [r3, #0]
 800a294:	681b      	ldr	r3, [r3, #0]
 800a296:	9301      	str	r3, [sp, #4]
 800a298:	9b01      	ldr	r3, [sp, #4]
 800a29a:	b113      	cbz	r3, 800a2a2 <RSA_PKCS1v15_Decrypt+0x11a>
 800a29c:	2300      	movs	r3, #0
 800a29e:	461d      	mov	r5, r3
 800a2a0:	e015      	b.n	800a2ce <RSA_PKCS1v15_Decrypt+0x146>
 800a2a2:	461d      	mov	r5, r3
 800a2a4:	687a      	ldr	r2, [r7, #4]
 800a2a6:	4293      	cmp	r3, r2
 800a2a8:	da0c      	bge.n	800a2c4 <RSA_PKCS1v15_Decrypt+0x13c>
 800a2aa:	f818 c003 	ldrb.w	ip, [r8, r3]
 800a2ae:	68a2      	ldr	r2, [r4, #8]
 800a2b0:	ea0c 0c00 	and.w	ip, ip, r0
 800a2b4:	f802 c005 	strb.w	ip, [r2, r5]
 800a2b8:	1c8a      	adds	r2, r1, #2
 800a2ba:	1ad2      	subs	r2, r2, r3
 800a2bc:	eb05 75d2 	add.w	r5, r5, r2, lsr #31
 800a2c0:	3301      	adds	r3, #1
 800a2c2:	e7ef      	b.n	800a2a4 <RSA_PKCS1v15_Decrypt+0x11c>
 800a2c4:	43c3      	mvns	r3, r0
 800a2c6:	f241 30f4 	movw	r0, #5108	; 0x13f4
 800a2ca:	4018      	ands	r0, r3
 800a2cc:	e024      	b.n	800a318 <RSA_PKCS1v15_Decrypt+0x190>
 800a2ce:	687a      	ldr	r2, [r7, #4]
 800a2d0:	4293      	cmp	r3, r2
 800a2d2:	daf7      	bge.n	800a2c4 <RSA_PKCS1v15_Decrypt+0x13c>
 800a2d4:	f818 c003 	ldrb.w	ip, [r8, r3]
 800a2d8:	68a2      	ldr	r2, [r4, #8]
 800a2da:	ea0c 0c00 	and.w	ip, ip, r0
 800a2de:	f802 c005 	strb.w	ip, [r2, r5]
 800a2e2:	1eca      	subs	r2, r1, #3
 800a2e4:	441a      	add	r2, r3
 800a2e6:	f3c2 6240 	ubfx	r2, r2, #25, #1
 800a2ea:	4415      	add	r5, r2
 800a2ec:	3301      	adds	r3, #1
 800a2ee:	e7ee      	b.n	800a2ce <RSA_PKCS1v15_Decrypt+0x146>
 800a2f0:	687b      	ldr	r3, [r7, #4]
 800a2f2:	429d      	cmp	r5, r3
 800a2f4:	dae6      	bge.n	800a2c4 <RSA_PKCS1v15_Decrypt+0x13c>
 800a2f6:	f818 c005 	ldrb.w	ip, [r8, r5]
 800a2fa:	68a3      	ldr	r3, [r4, #8]
 800a2fc:	ea0c 0c00 	and.w	ip, ip, r0
 800a300:	f803 c002 	strb.w	ip, [r3, r2]
 800a304:	eb05 0385 	add.w	r3, r5, r5, lsl #2
 800a308:	1acb      	subs	r3, r1, r3
 800a30a:	f3c3 63c0 	ubfx	r3, r3, #27, #1
 800a30e:	441a      	add	r2, r3
 800a310:	3501      	adds	r5, #1
 800a312:	e7ed      	b.n	800a2f0 <RSA_PKCS1v15_Decrypt+0x168>
 800a314:	f241 30f4 	movw	r0, #5108	; 0x13f4
 800a318:	687b      	ldr	r3, [r7, #4]
 800a31a:	88f2      	ldrh	r2, [r6, #6]
 800a31c:	1ad3      	subs	r3, r2, r3
 800a31e:	80f3      	strh	r3, [r6, #6]
 800a320:	e001      	b.n	800a326 <RSA_PKCS1v15_Decrypt+0x19e>
 800a322:	f241 30f4 	movw	r0, #5108	; 0x13f4
 800a326:	b002      	add	sp, #8
 800a328:	e8bd 87f0 	ldmia.w	sp!, {r4, r5, r6, r7, r8, r9, sl, pc}
 800a32c:	40023008 	.word	0x40023008
 800a330:	40023000 	.word	0x40023000

0800a334 <crl_DRBG_AES128_Instantiate>:
 800a334:	e92d 4ff0 	stmdb	sp!, {r4, r5, r6, r7, r8, r9, sl, fp, lr}
 800a338:	b0c9      	sub	sp, #292	; 0x124
 800a33a:	4616      	mov	r6, r2
 800a33c:	4607      	mov	r7, r0
 800a33e:	2250      	movs	r2, #80	; 0x50
 800a340:	468b      	mov	fp, r1
 800a342:	a808      	add	r0, sp, #32
 800a344:	2100      	movs	r1, #0
 800a346:	469a      	mov	sl, r3
 800a348:	9d52      	ldr	r5, [sp, #328]	; 0x148
 800a34a:	9c54      	ldr	r4, [sp, #336]	; 0x150
 800a34c:	f004 faf9 	bl	800e942 <memset>
 800a350:	a81c      	add	r0, sp, #112	; 0x70
 800a352:	4923      	ldr	r1, [pc, #140]	; (800a3e0 <crl_DRBG_AES128_Instantiate+0xac>)
 800a354:	22b0      	movs	r2, #176	; 0xb0
 800a356:	f004 facf 	bl	800e8f8 <memcpy>
 800a35a:	f1a6 0310 	sub.w	r3, r6, #16
 800a35e:	2b10      	cmp	r3, #16
 800a360:	d830      	bhi.n	800a3c4 <crl_DRBG_AES128_Instantiate+0x90>
 800a362:	2c20      	cmp	r4, #32
 800a364:	dc31      	bgt.n	800a3ca <crl_DRBG_AES128_Instantiate+0x96>
 800a366:	2d10      	cmp	r5, #16
 800a368:	dc32      	bgt.n	800a3d0 <crl_DRBG_AES128_Instantiate+0x9c>
 800a36a:	a808      	add	r0, sp, #32
 800a36c:	4659      	mov	r1, fp
 800a36e:	4632      	mov	r2, r6
 800a370:	eb06 0805 	add.w	r8, r6, r5
 800a374:	f004 fac0 	bl	800e8f8 <memcpy>
 800a378:	2d00      	cmp	r5, #0
 800a37a:	eb08 0904 	add.w	r9, r8, r4
 800a37e:	dd05      	ble.n	800a38c <crl_DRBG_AES128_Instantiate+0x58>
 800a380:	a808      	add	r0, sp, #32
 800a382:	4430      	add	r0, r6
 800a384:	4651      	mov	r1, sl
 800a386:	462a      	mov	r2, r5
 800a388:	f004 fab6 	bl	800e8f8 <memcpy>
 800a38c:	2c00      	cmp	r4, #0
 800a38e:	dd05      	ble.n	800a39c <crl_DRBG_AES128_Instantiate+0x68>
 800a390:	a808      	add	r0, sp, #32
 800a392:	4440      	add	r0, r8
 800a394:	9953      	ldr	r1, [sp, #332]	; 0x14c
 800a396:	4622      	mov	r2, r4
 800a398:	f004 faae 	bl	800e8f8 <memcpy>
 800a39c:	2100      	movs	r1, #0
 800a39e:	2210      	movs	r2, #16
 800a3a0:	4638      	mov	r0, r7
 800a3a2:	f004 face 	bl	800e942 <memset>
 800a3a6:	a808      	add	r0, sp, #32
 800a3a8:	4649      	mov	r1, r9
 800a3aa:	466a      	mov	r2, sp
 800a3ac:	f7f9 ff48 	bl	8004240 <DRBG_AES128_Block_cipher_df.constprop.37>
 800a3b0:	4604      	mov	r4, r0
 800a3b2:	b980      	cbnz	r0, 800a3d6 <crl_DRBG_AES128_Instantiate+0xa2>
 800a3b4:	4638      	mov	r0, r7
 800a3b6:	a91c      	add	r1, sp, #112	; 0x70
 800a3b8:	466a      	mov	r2, sp
 800a3ba:	f7f9 ff13 	bl	80041e4 <DRBG_AES128_Update>
 800a3be:	2301      	movs	r3, #1
 800a3c0:	623b      	str	r3, [r7, #32]
 800a3c2:	e008      	b.n	800a3d6 <crl_DRBG_AES128_Instantiate+0xa2>
 800a3c4:	f241 7076 	movw	r0, #6006	; 0x1776
 800a3c8:	e006      	b.n	800a3d8 <crl_DRBG_AES128_Instantiate+0xa4>
 800a3ca:	f241 7077 	movw	r0, #6007	; 0x1777
 800a3ce:	e003      	b.n	800a3d8 <crl_DRBG_AES128_Instantiate+0xa4>
 800a3d0:	f241 707a 	movw	r0, #6010	; 0x177a
 800a3d4:	e000      	b.n	800a3d8 <crl_DRBG_AES128_Instantiate+0xa4>
 800a3d6:	4620      	mov	r0, r4
 800a3d8:	b049      	add	sp, #292	; 0x124
 800a3da:	e8bd 8ff0 	ldmia.w	sp!, {r4, r5, r6, r7, r8, r9, sl, fp, pc}
 800a3de:	bf00      	nop
 800a3e0:	0800ec3c 	.word	0x0800ec3c

0800a3e4 <crl_DRBG_AES128_Generate>:
 800a3e4:	b510      	push	{r4, lr}
 800a3e6:	2b20      	cmp	r3, #32
 800a3e8:	9c02      	ldr	r4, [sp, #8]
 800a3ea:	dc06      	bgt.n	800a3fa <crl_DRBG_AES128_Generate+0x16>
 800a3ec:	f5b4 3f80 	cmp.w	r4, #65536	; 0x10000
 800a3f0:	dc06      	bgt.n	800a400 <crl_DRBG_AES128_Generate+0x1c>
 800a3f2:	e8bd 4010 	ldmia.w	sp!, {r4, lr}
 800a3f6:	f7f9 bf89 	b.w	800430c <crl_DRBG_AES128_Generate.part.31>
 800a3fa:	f241 7078 	movw	r0, #6008	; 0x1778
 800a3fe:	bd10      	pop	{r4, pc}
 800a400:	f241 7079 	movw	r0, #6009	; 0x1779
 800a404:	bd10      	pop	{r4, pc}

0800a406 <crl_DRBG_AES128_Reseed>:
 800a406:	e92d 41f0 	stmdb	sp!, {r4, r5, r6, r7, r8, lr}
 800a40a:	b0c4      	sub	sp, #272	; 0x110
 800a40c:	4606      	mov	r6, r0
 800a40e:	9d4a      	ldr	r5, [sp, #296]	; 0x128
 800a410:	4688      	mov	r8, r1
 800a412:	4614      	mov	r4, r2
 800a414:	a808      	add	r0, sp, #32
 800a416:	2100      	movs	r1, #0
 800a418:	2240      	movs	r2, #64	; 0x40
 800a41a:	461f      	mov	r7, r3
 800a41c:	f004 fa91 	bl	800e942 <memset>
 800a420:	2d20      	cmp	r5, #32
 800a422:	dc27      	bgt.n	800a474 <crl_DRBG_AES128_Reseed+0x6e>
 800a424:	f1a4 0310 	sub.w	r3, r4, #16
 800a428:	2b10      	cmp	r3, #16
 800a42a:	d826      	bhi.n	800a47a <crl_DRBG_AES128_Reseed+0x74>
 800a42c:	a808      	add	r0, sp, #32
 800a42e:	4641      	mov	r1, r8
 800a430:	4622      	mov	r2, r4
 800a432:	f004 fa61 	bl	800e8f8 <memcpy>
 800a436:	2d00      	cmp	r5, #0
 800a438:	a808      	add	r0, sp, #32
 800a43a:	dd07      	ble.n	800a44c <crl_DRBG_AES128_Reseed+0x46>
 800a43c:	4639      	mov	r1, r7
 800a43e:	4420      	add	r0, r4
 800a440:	462a      	mov	r2, r5
 800a442:	f004 fa59 	bl	800e8f8 <memcpy>
 800a446:	a808      	add	r0, sp, #32
 800a448:	1929      	adds	r1, r5, r4
 800a44a:	e000      	b.n	800a44e <crl_DRBG_AES128_Reseed+0x48>
 800a44c:	4621      	mov	r1, r4
 800a44e:	466a      	mov	r2, sp
 800a450:	f7f9 fef6 	bl	8004240 <DRBG_AES128_Block_cipher_df.constprop.37>
 800a454:	4604      	mov	r4, r0
 800a456:	b998      	cbnz	r0, 800a480 <crl_DRBG_AES128_Reseed+0x7a>
 800a458:	f106 0010 	add.w	r0, r6, #16
 800a45c:	a918      	add	r1, sp, #96	; 0x60
 800a45e:	2210      	movs	r2, #16
 800a460:	f7f7 fb9a 	bl	8001b98 <AES_keyschedule_enc_LL>
 800a464:	4630      	mov	r0, r6
 800a466:	a918      	add	r1, sp, #96	; 0x60
 800a468:	466a      	mov	r2, sp
 800a46a:	f7f9 febb 	bl	80041e4 <DRBG_AES128_Update>
 800a46e:	2301      	movs	r3, #1
 800a470:	6233      	str	r3, [r6, #32]
 800a472:	e005      	b.n	800a480 <crl_DRBG_AES128_Reseed+0x7a>
 800a474:	f241 7078 	movw	r0, #6008	; 0x1778
 800a478:	e003      	b.n	800a482 <crl_DRBG_AES128_Reseed+0x7c>
 800a47a:	f241 7076 	movw	r0, #6006	; 0x1776
 800a47e:	e000      	b.n	800a482 <crl_DRBG_AES128_Reseed+0x7c>
 800a480:	4620      	mov	r0, r4
 800a482:	b044      	add	sp, #272	; 0x110
 800a484:	e8bd 81f0 	ldmia.w	sp!, {r4, r5, r6, r7, r8, pc}

0800a488 <RNGinit>:
 800a488:	b51f      	push	{r0, r1, r2, r3, r4, lr}
 800a48a:	4603      	mov	r3, r0
 800a48c:	460c      	mov	r4, r1
 800a48e:	b189      	cbz	r1, 800a4b4 <RNGinit+0x2c>
 800a490:	b180      	cbz	r0, 800a4b4 <RNGinit+0x2c>
 800a492:	2200      	movs	r2, #0
 800a494:	624a      	str	r2, [r1, #36]	; 0x24
 800a496:	628a      	str	r2, [r1, #40]	; 0x28
 800a498:	68c2      	ldr	r2, [r0, #12]
 800a49a:	9200      	str	r2, [sp, #0]
 800a49c:	6902      	ldr	r2, [r0, #16]
 800a49e:	9201      	str	r2, [sp, #4]
 800a4a0:	6942      	ldr	r2, [r0, #20]
 800a4a2:	9202      	str	r2, [sp, #8]
 800a4a4:	4608      	mov	r0, r1
 800a4a6:	cb0e      	ldmia	r3, {r1, r2, r3}
 800a4a8:	f7ff ff44 	bl	800a334 <crl_DRBG_AES128_Instantiate>
 800a4ac:	b920      	cbnz	r0, 800a4b8 <RNGinit+0x30>
 800a4ae:	2301      	movs	r3, #1
 800a4b0:	62a3      	str	r3, [r4, #40]	; 0x28
 800a4b2:	e001      	b.n	800a4b8 <RNGinit+0x30>
 800a4b4:	f241 7074 	movw	r0, #6004	; 0x1774
 800a4b8:	b004      	add	sp, #16
 800a4ba:	bd10      	pop	{r4, pc}

0800a4bc <RNGfree>:
 800a4bc:	b128      	cbz	r0, 800a4ca <RNGfree+0xe>
 800a4be:	6a83      	ldr	r3, [r0, #40]	; 0x28
 800a4c0:	2b01      	cmp	r3, #1
 800a4c2:	d005      	beq.n	800a4d0 <RNGfree+0x14>
 800a4c4:	f241 7071 	movw	r0, #6001	; 0x1771
 800a4c8:	4770      	bx	lr
 800a4ca:	f241 7074 	movw	r0, #6004	; 0x1774
 800a4ce:	4770      	bx	lr
 800a4d0:	2300      	movs	r3, #0
 800a4d2:	2200      	movs	r2, #0
 800a4d4:	54c2      	strb	r2, [r0, r3]
 800a4d6:	3301      	adds	r3, #1
 800a4d8:	2b24      	cmp	r3, #36	; 0x24
 800a4da:	d1fa      	bne.n	800a4d2 <RNGfree+0x16>
 800a4dc:	4610      	mov	r0, r2
 800a4de:	4770      	bx	lr

0800a4e0 <RNGreseed>:
 800a4e0:	b507      	push	{r0, r1, r2, lr}
 800a4e2:	4603      	mov	r3, r0
 800a4e4:	b139      	cbz	r1, 800a4f6 <RNGreseed+0x16>
 800a4e6:	b130      	cbz	r0, 800a4f6 <RNGreseed+0x16>
 800a4e8:	68c2      	ldr	r2, [r0, #12]
 800a4ea:	9200      	str	r2, [sp, #0]
 800a4ec:	4608      	mov	r0, r1
 800a4ee:	cb0e      	ldmia	r3, {r1, r2, r3}
 800a4f0:	f7ff ff89 	bl	800a406 <crl_DRBG_AES128_Reseed>
 800a4f4:	e001      	b.n	800a4fa <RNGreseed+0x1a>
 800a4f6:	f241 7074 	movw	r0, #6004	; 0x1774
 800a4fa:	b003      	add	sp, #12
 800a4fc:	f85d fb04 	ldr.w	pc, [sp], #4

0800a500 <RNGgenBytes>:
 800a500:	e92d 47f3 	stmdb	sp!, {r0, r1, r4, r5, r6, r7, r8, r9, sl, lr}
 800a504:	460c      	mov	r4, r1
 800a506:	4617      	mov	r7, r2
 800a508:	4698      	mov	r8, r3
 800a50a:	4605      	mov	r5, r0
 800a50c:	b368      	cbz	r0, 800a56a <RNGgenBytes+0x6a>
 800a50e:	b90a      	cbnz	r2, 800a514 <RNGgenBytes+0x14>
 800a510:	2b00      	cmp	r3, #0
 800a512:	dc2a      	bgt.n	800a56a <RNGgenBytes+0x6a>
 800a514:	6aab      	ldr	r3, [r5, #40]	; 0x28
 800a516:	b35b      	cbz	r3, 800a570 <RNGgenBytes+0x70>
 800a518:	ea4f 4a18 	mov.w	sl, r8, lsr #16
 800a51c:	46b9      	mov	r9, r7
 800a51e:	2600      	movs	r6, #0
 800a520:	4556      	cmp	r6, sl
 800a522:	da13      	bge.n	800a54c <RNGgenBytes+0x4c>
 800a524:	f44f 3380 	mov.w	r3, #65536	; 0x10000
 800a528:	9300      	str	r3, [sp, #0]
 800a52a:	4628      	mov	r0, r5
 800a52c:	4649      	mov	r1, r9
 800a52e:	b924      	cbnz	r4, 800a53a <RNGgenBytes+0x3a>
 800a530:	4622      	mov	r2, r4
 800a532:	4623      	mov	r3, r4
 800a534:	f7f9 feea 	bl	800430c <crl_DRBG_AES128_Generate.part.31>
 800a538:	e003      	b.n	800a542 <RNGgenBytes+0x42>
 800a53a:	e894 000c 	ldmia.w	r4, {r2, r3}
 800a53e:	f7ff ff51 	bl	800a3e4 <crl_DRBG_AES128_Generate>
 800a542:	f509 3980 	add.w	r9, r9, #65536	; 0x10000
 800a546:	b9a8      	cbnz	r0, 800a574 <RNGgenBytes+0x74>
 800a548:	3601      	adds	r6, #1
 800a54a:	e7e9      	b.n	800a520 <RNGgenBytes+0x20>
 800a54c:	0431      	lsls	r1, r6, #16
 800a54e:	eba8 4606 	sub.w	r6, r8, r6, lsl #16
 800a552:	9600      	str	r6, [sp, #0]
 800a554:	4628      	mov	r0, r5
 800a556:	4439      	add	r1, r7
 800a558:	b914      	cbnz	r4, 800a560 <RNGgenBytes+0x60>
 800a55a:	4622      	mov	r2, r4
 800a55c:	4623      	mov	r3, r4
 800a55e:	e001      	b.n	800a564 <RNGgenBytes+0x64>
 800a560:	e894 000c 	ldmia.w	r4, {r2, r3}
 800a564:	f7ff ff3e 	bl	800a3e4 <crl_DRBG_AES128_Generate>
 800a568:	e004      	b.n	800a574 <RNGgenBytes+0x74>
 800a56a:	f241 7074 	movw	r0, #6004	; 0x1774
 800a56e:	e001      	b.n	800a574 <RNGgenBytes+0x74>
 800a570:	f241 7071 	movw	r0, #6001	; 0x1771
 800a574:	b002      	add	sp, #8
 800a576:	e8bd 87f0 	ldmia.w	sp!, {r4, r5, r6, r7, r8, r9, sl, pc}
	...

0800a57c <RSA_PKCS1v15_Encrypt>:
 800a57c:	e92d 4ff7 	stmdb	sp!, {r0, r1, r2, r4, r5, r6, r7, r8, r9, sl, fp, lr}
 800a580:	2600      	movs	r6, #0
 800a582:	460c      	mov	r4, r1
 800a584:	4693      	mov	fp, r2
 800a586:	461d      	mov	r5, r3
 800a588:	9601      	str	r6, [sp, #4]
 800a58a:	4680      	mov	r8, r0
 800a58c:	2800      	cmp	r0, #0
 800a58e:	f000 808b 	beq.w	800a6a8 <RSA_PKCS1v15_Encrypt+0x12c>
 800a592:	2900      	cmp	r1, #0
 800a594:	f000 8088 	beq.w	800a6a8 <RSA_PKCS1v15_Encrypt+0x12c>
 800a598:	2a00      	cmp	r2, #0
 800a59a:	f000 8085 	beq.w	800a6a8 <RSA_PKCS1v15_Encrypt+0x12c>
 800a59e:	2b00      	cmp	r3, #0
 800a5a0:	f000 8082 	beq.w	800a6a8 <RSA_PKCS1v15_Encrypt+0x12c>
 800a5a4:	680b      	ldr	r3, [r1, #0]
 800a5a6:	2b00      	cmp	r3, #0
 800a5a8:	d07e      	beq.n	800a6a8 <RSA_PKCS1v15_Encrypt+0x12c>
 800a5aa:	688b      	ldr	r3, [r1, #8]
 800a5ac:	2b00      	cmp	r3, #0
 800a5ae:	d07b      	beq.n	800a6a8 <RSA_PKCS1v15_Encrypt+0x12c>
 800a5b0:	684a      	ldr	r2, [r1, #4]
 800a5b2:	42b2      	cmp	r2, r6
 800a5b4:	dd78      	ble.n	800a6a8 <RSA_PKCS1v15_Encrypt+0x12c>
 800a5b6:	6841      	ldr	r1, [r0, #4]
 800a5b8:	f1a1 030a 	sub.w	r3, r1, #10
 800a5bc:	4293      	cmp	r3, r2
 800a5be:	dd76      	ble.n	800a6ae <RSA_PKCS1v15_Encrypt+0x132>
 800a5c0:	88eb      	ldrh	r3, [r5, #6]
 800a5c2:	88af      	ldrh	r7, [r5, #4]
 800a5c4:	1858      	adds	r0, r3, r1
 800a5c6:	4287      	cmp	r7, r0
 800a5c8:	db74      	blt.n	800a6b4 <RSA_PKCS1v15_Encrypt+0x138>
 800a5ca:	f8d5 e000 	ldr.w	lr, [r5]
 800a5ce:	80e8      	strh	r0, [r5, #6]
 800a5d0:	eb0e 0703 	add.w	r7, lr, r3
 800a5d4:	f80e 6003 	strb.w	r6, [lr, r3]
 800a5d8:	ebc2 0a01 	rsb	sl, r2, r1
 800a5dc:	2302      	movs	r3, #2
 800a5de:	f1aa 0903 	sub.w	r9, sl, #3
 800a5e2:	707b      	strb	r3, [r7, #1]
 800a5e4:	454e      	cmp	r6, r9
 800a5e6:	da1a      	bge.n	800a61e <RSA_PKCS1v15_Encrypt+0xa2>
 800a5e8:	1cb2      	adds	r2, r6, #2
 800a5ea:	4658      	mov	r0, fp
 800a5ec:	2100      	movs	r1, #0
 800a5ee:	443a      	add	r2, r7
 800a5f0:	ebc6 0309 	rsb	r3, r6, r9
 800a5f4:	f7ff ff84 	bl	800a500 <RNGgenBytes>
 800a5f8:	b110      	cbz	r0, 800a600 <RSA_PKCS1v15_Encrypt+0x84>
 800a5fa:	f241 30ee 	movw	r0, #5102	; 0x13ee
 800a5fe:	e04d      	b.n	800a69c <RSA_PKCS1v15_Encrypt+0x120>
 800a600:	4633      	mov	r3, r6
 800a602:	18fa      	adds	r2, r7, r3
 800a604:	7892      	ldrb	r2, [r2, #2]
 800a606:	b132      	cbz	r2, 800a616 <RSA_PKCS1v15_Encrypt+0x9a>
 800a608:	429e      	cmp	r6, r3
 800a60a:	bf18      	it	ne
 800a60c:	19b9      	addne	r1, r7, r6
 800a60e:	f106 0601 	add.w	r6, r6, #1
 800a612:	bf18      	it	ne
 800a614:	708a      	strbne	r2, [r1, #2]
 800a616:	3301      	adds	r3, #1
 800a618:	454b      	cmp	r3, r9
 800a61a:	dbf2      	blt.n	800a602 <RSA_PKCS1v15_Encrypt+0x86>
 800a61c:	e7e2      	b.n	800a5e4 <RSA_PKCS1v15_Encrypt+0x68>
 800a61e:	4928      	ldr	r1, [pc, #160]	; (800a6c0 <RSA_PKCS1v15_Encrypt+0x144>)
 800a620:	eb07 020a 	add.w	r2, r7, sl
 800a624:	2001      	movs	r0, #1
 800a626:	2300      	movs	r3, #0
 800a628:	f802 3c01 	strb.w	r3, [r2, #-1]
 800a62c:	6008      	str	r0, [r1, #0]
 800a62e:	6809      	ldr	r1, [r1, #0]
 800a630:	9101      	str	r1, [sp, #4]
 800a632:	4924      	ldr	r1, [pc, #144]	; (800a6c4 <RSA_PKCS1v15_Encrypt+0x148>)
 800a634:	6808      	ldr	r0, [r1, #0]
 800a636:	9001      	str	r0, [sp, #4]
 800a638:	9801      	ldr	r0, [sp, #4]
 800a63a:	3001      	adds	r0, #1
 800a63c:	d122      	bne.n	800a684 <RSA_PKCS1v15_Encrypt+0x108>
 800a63e:	9801      	ldr	r0, [sp, #4]
 800a640:	6008      	str	r0, [r1, #0]
 800a642:	6809      	ldr	r1, [r1, #0]
 800a644:	9101      	str	r1, [sp, #4]
 800a646:	9901      	ldr	r1, [sp, #4]
 800a648:	b989      	cbnz	r1, 800a66e <RSA_PKCS1v15_Encrypt+0xf2>
 800a64a:	460b      	mov	r3, r1
 800a64c:	6861      	ldr	r1, [r4, #4]
 800a64e:	428b      	cmp	r3, r1
 800a650:	da04      	bge.n	800a65c <RSA_PKCS1v15_Encrypt+0xe0>
 800a652:	6821      	ldr	r1, [r4, #0]
 800a654:	5cc9      	ldrb	r1, [r1, r3]
 800a656:	54d1      	strb	r1, [r2, r3]
 800a658:	3301      	adds	r3, #1
 800a65a:	e7f7      	b.n	800a64c <RSA_PKCS1v15_Encrypt+0xd0>
 800a65c:	4640      	mov	r0, r8
 800a65e:	4639      	mov	r1, r7
 800a660:	68a2      	ldr	r2, [r4, #8]
 800a662:	462b      	mov	r3, r5
 800a664:	f7ff fb24 	bl	8009cb0 <RSAVP1>
 800a668:	2800      	cmp	r0, #0
 800a66a:	d1c6      	bne.n	800a5fa <RSA_PKCS1v15_Encrypt+0x7e>
 800a66c:	e016      	b.n	800a69c <RSA_PKCS1v15_Encrypt+0x120>
 800a66e:	6861      	ldr	r1, [r4, #4]
 800a670:	428b      	cmp	r3, r1
 800a672:	daf3      	bge.n	800a65c <RSA_PKCS1v15_Encrypt+0xe0>
 800a674:	6821      	ldr	r1, [r4, #0]
 800a676:	5cc9      	ldrb	r1, [r1, r3]
 800a678:	3107      	adds	r1, #7
 800a67a:	eb01 0181 	add.w	r1, r1, r1, lsl #2
 800a67e:	54d1      	strb	r1, [r2, r3]
 800a680:	3301      	adds	r3, #1
 800a682:	e7f4      	b.n	800a66e <RSA_PKCS1v15_Encrypt+0xf2>
 800a684:	6861      	ldr	r1, [r4, #4]
 800a686:	428b      	cmp	r3, r1
 800a688:	dae8      	bge.n	800a65c <RSA_PKCS1v15_Encrypt+0xe0>
 800a68a:	6821      	ldr	r1, [r4, #0]
 800a68c:	5cc9      	ldrb	r1, [r1, r3]
 800a68e:	3104      	adds	r1, #4
 800a690:	eb01 0141 	add.w	r1, r1, r1, lsl #1
 800a694:	0049      	lsls	r1, r1, #1
 800a696:	54d1      	strb	r1, [r2, r3]
 800a698:	3301      	adds	r3, #1
 800a69a:	e7f3      	b.n	800a684 <RSA_PKCS1v15_Encrypt+0x108>
 800a69c:	f8d8 3004 	ldr.w	r3, [r8, #4]
 800a6a0:	88e9      	ldrh	r1, [r5, #6]
 800a6a2:	1acb      	subs	r3, r1, r3
 800a6a4:	80eb      	strh	r3, [r5, #6]
 800a6a6:	e007      	b.n	800a6b8 <RSA_PKCS1v15_Encrypt+0x13c>
 800a6a8:	f241 30f0 	movw	r0, #5104	; 0x13f0
 800a6ac:	e004      	b.n	800a6b8 <RSA_PKCS1v15_Encrypt+0x13c>
 800a6ae:	f241 30f2 	movw	r0, #5106	; 0x13f2
 800a6b2:	e001      	b.n	800a6b8 <RSA_PKCS1v15_Encrypt+0x13c>
 800a6b4:	f241 30ee 	movw	r0, #5102	; 0x13ee
 800a6b8:	b003      	add	sp, #12
 800a6ba:	e8bd 8ff0 	ldmia.w	sp!, {r4, r5, r6, r7, r8, r9, sl, fp, pc}
 800a6be:	bf00      	nop
 800a6c0:	40023008 	.word	0x40023008
 800a6c4:	40023000 	.word	0x40023000

0800a6c8 <RNGgenWords>:
 800a6c8:	009b      	lsls	r3, r3, #2
 800a6ca:	f7ff bf19 	b.w	800a500 <RNGgenBytes>

0800a6ce <GenRndBN>:
 800a6ce:	b538      	push	{r3, r4, r5, lr}
 800a6d0:	460c      	mov	r4, r1
 800a6d2:	2320      	movs	r3, #32
 800a6d4:	f100 011f 	add.w	r1, r0, #31
 800a6d8:	4605      	mov	r5, r0
 800a6da:	fb91 f3f3 	sdiv	r3, r1, r3
 800a6de:	79a0      	ldrb	r0, [r4, #6]
 800a6e0:	b2d9      	uxtb	r1, r3
 800a6e2:	4288      	cmp	r0, r1
 800a6e4:	d32e      	bcc.n	800a744 <GenRndBN+0x76>
 800a6e6:	2100      	movs	r1, #0
 800a6e8:	80a3      	strh	r3, [r4, #4]
 800a6ea:	4610      	mov	r0, r2
 800a6ec:	71e1      	strb	r1, [r4, #7]
 800a6ee:	6822      	ldr	r2, [r4, #0]
 800a6f0:	b29b      	uxth	r3, r3
 800a6f2:	f005 051f 	and.w	r5, r5, #31
 800a6f6:	f7ff ffe7 	bl	800a6c8 <RNGgenWords>
 800a6fa:	88a2      	ldrh	r2, [r4, #4]
 800a6fc:	b1b5      	cbz	r5, 800a72c <GenRndBN+0x5e>
 800a6fe:	3a01      	subs	r2, #1
 800a700:	6823      	ldr	r3, [r4, #0]
 800a702:	f04f 31ff 	mov.w	r1, #4294967295
 800a706:	f1c5 0520 	rsb	r5, r5, #32
 800a70a:	fa21 f505 	lsr.w	r5, r1, r5
 800a70e:	f853 1022 	ldr.w	r1, [r3, r2, lsl #2]
 800a712:	4029      	ands	r1, r5
 800a714:	f843 1022 	str.w	r1, [r3, r2, lsl #2]
 800a718:	e008      	b.n	800a72c <GenRndBN+0x5e>
 800a71a:	f101 4280 	add.w	r2, r1, #1073741824	; 0x40000000
 800a71e:	3a01      	subs	r2, #1
 800a720:	6823      	ldr	r3, [r4, #0]
 800a722:	f853 3022 	ldr.w	r3, [r3, r2, lsl #2]
 800a726:	b923      	cbnz	r3, 800a732 <GenRndBN+0x64>
 800a728:	3901      	subs	r1, #1
 800a72a:	80a1      	strh	r1, [r4, #4]
 800a72c:	88a1      	ldrh	r1, [r4, #4]
 800a72e:	2901      	cmp	r1, #1
 800a730:	d8f3      	bhi.n	800a71a <GenRndBN+0x4c>
 800a732:	f5a0 53bb 	sub.w	r3, r0, #5984	; 0x1760
 800a736:	3b18      	subs	r3, #24
 800a738:	f241 727b 	movw	r2, #6011	; 0x177b
 800a73c:	2b01      	cmp	r3, #1
 800a73e:	bf98      	it	ls
 800a740:	4610      	movls	r0, r2
 800a742:	bd38      	pop	{r3, r4, r5, pc}
 800a744:	f241 40b5 	movw	r0, #5301	; 0x14b5
 800a748:	bd38      	pop	{r3, r4, r5, pc}

0800a74a <GenRndBNmodN>:
 800a74a:	e92d 41f0 	stmdb	sp!, {r4, r5, r6, r7, r8, lr}
 800a74e:	4605      	mov	r5, r0
 800a750:	4608      	mov	r0, r1
 800a752:	460c      	mov	r4, r1
 800a754:	4690      	mov	r8, r2
 800a756:	f7fe fa42 	bl	8008bde <CountBits>
 800a75a:	4607      	mov	r7, r0
 800a75c:	4638      	mov	r0, r7
 800a75e:	4629      	mov	r1, r5
 800a760:	4642      	mov	r2, r8
 800a762:	f7ff ffb4 	bl	800a6ce <GenRndBN>
 800a766:	4606      	mov	r6, r0
 800a768:	b928      	cbnz	r0, 800a776 <GenRndBNmodN+0x2c>
 800a76a:	4628      	mov	r0, r5
 800a76c:	4621      	mov	r1, r4
 800a76e:	f7fe f9ed 	bl	8008b4c <CompareBig>
 800a772:	2800      	cmp	r0, #0
 800a774:	daf2      	bge.n	800a75c <GenRndBNmodN+0x12>
 800a776:	4630      	mov	r0, r6
 800a778:	e8bd 81f0 	ldmia.w	sp!, {r4, r5, r6, r7, r8, pc}

0800a77c <ECCpoint2Monty>:
 800a77c:	b538      	push	{r3, r4, r5, lr}
 800a77e:	7b03      	ldrb	r3, [r0, #12]
 800a780:	079b      	lsls	r3, r3, #30
 800a782:	4604      	mov	r4, r0
 800a784:	460d      	mov	r5, r1
 800a786:	d417      	bmi.n	800a7b8 <ECCpoint2Monty+0x3c>
 800a788:	6800      	ldr	r0, [r0, #0]
 800a78a:	6849      	ldr	r1, [r1, #4]
 800a78c:	4602      	mov	r2, r0
 800a78e:	462b      	mov	r3, r5
 800a790:	f7fe fe5c 	bl	800944c <MontyMul>
 800a794:	b988      	cbnz	r0, 800a7ba <ECCpoint2Monty+0x3e>
 800a796:	6860      	ldr	r0, [r4, #4]
 800a798:	6869      	ldr	r1, [r5, #4]
 800a79a:	462b      	mov	r3, r5
 800a79c:	4602      	mov	r2, r0
 800a79e:	f7fe fe55 	bl	800944c <MontyMul>
 800a7a2:	68a0      	ldr	r0, [r4, #8]
 800a7a4:	6869      	ldr	r1, [r5, #4]
 800a7a6:	462b      	mov	r3, r5
 800a7a8:	4602      	mov	r2, r0
 800a7aa:	f7fe fe4f 	bl	800944c <MontyMul>
 800a7ae:	7b23      	ldrb	r3, [r4, #12]
 800a7b0:	f043 0304 	orr.w	r3, r3, #4
 800a7b4:	7323      	strb	r3, [r4, #12]
 800a7b6:	bd38      	pop	{r3, r4, r5, pc}
 800a7b8:	2000      	movs	r0, #0
 800a7ba:	bd38      	pop	{r3, r4, r5, pc}

0800a7bc <ECCpointFromMonty>:
 800a7bc:	b538      	push	{r3, r4, r5, lr}
 800a7be:	7b03      	ldrb	r3, [r0, #12]
 800a7c0:	f003 0306 	and.w	r3, r3, #6
 800a7c4:	2b04      	cmp	r3, #4
 800a7c6:	4604      	mov	r4, r0
 800a7c8:	460d      	mov	r5, r1
 800a7ca:	d114      	bne.n	800a7f6 <ECCpointFromMonty+0x3a>
 800a7cc:	6800      	ldr	r0, [r0, #0]
 800a7ce:	462a      	mov	r2, r5
 800a7d0:	4601      	mov	r1, r0
 800a7d2:	f7fe ff26 	bl	8009622 <MontyExit>
 800a7d6:	b978      	cbnz	r0, 800a7f8 <ECCpointFromMonty+0x3c>
 800a7d8:	6860      	ldr	r0, [r4, #4]
 800a7da:	462a      	mov	r2, r5
 800a7dc:	4601      	mov	r1, r0
 800a7de:	f7fe ff20 	bl	8009622 <MontyExit>
 800a7e2:	68a0      	ldr	r0, [r4, #8]
 800a7e4:	462a      	mov	r2, r5
 800a7e6:	4601      	mov	r1, r0
 800a7e8:	f7fe ff1b 	bl	8009622 <MontyExit>
 800a7ec:	7b23      	ldrb	r3, [r4, #12]
 800a7ee:	f023 0304 	bic.w	r3, r3, #4
 800a7f2:	7323      	strb	r3, [r4, #12]
 800a7f4:	bd38      	pop	{r3, r4, r5, pc}
 800a7f6:	2000      	movs	r0, #0
 800a7f8:	bd38      	pop	{r3, r4, r5, pc}

0800a7fa <MontyJacProjDoublePoint>:
 800a7fa:	e92d 43f0 	stmdb	sp!, {r4, r5, r6, r7, r8, r9, lr}
 800a7fe:	b085      	sub	sp, #20
 800a800:	461c      	mov	r4, r3
 800a802:	f10d 0810 	add.w	r8, sp, #16
 800a806:	2300      	movs	r3, #0
 800a808:	f848 3d04 	str.w	r3, [r8, #-4]!
 800a80c:	9302      	str	r3, [sp, #8]
 800a80e:	6823      	ldr	r3, [r4, #0]
 800a810:	460e      	mov	r6, r1
 800a812:	7999      	ldrb	r1, [r3, #6]
 800a814:	4607      	mov	r7, r0
 800a816:	4691      	mov	r9, r2
 800a818:	4640      	mov	r0, r8
 800a81a:	3102      	adds	r1, #2
 800a81c:	68e2      	ldr	r2, [r4, #12]
 800a81e:	f7fe f897 	bl	8008950 <StAllocBig>
 800a822:	4605      	mov	r5, r0
 800a824:	2800      	cmp	r0, #0
 800a826:	f040 8108 	bne.w	800aa3a <MontyJacProjDoublePoint+0x240>
 800a82a:	6823      	ldr	r3, [r4, #0]
 800a82c:	68e2      	ldr	r2, [r4, #12]
 800a82e:	7999      	ldrb	r1, [r3, #6]
 800a830:	a802      	add	r0, sp, #8
 800a832:	3102      	adds	r1, #2
 800a834:	f7fe f88c 	bl	8008950 <StAllocBig>
 800a838:	4605      	mov	r5, r0
 800a83a:	2800      	cmp	r0, #0
 800a83c:	f040 80f9 	bne.w	800aa32 <MontyJacProjDoublePoint+0x238>
 800a840:	9803      	ldr	r0, [sp, #12]
 800a842:	f06f 0102 	mvn.w	r1, #2
 800a846:	f7fe f8ab 	bl	80089a0 <InitBig>
 800a84a:	7b3b      	ldrb	r3, [r7, #12]
 800a84c:	079b      	lsls	r3, r3, #30
 800a84e:	d502      	bpl.n	800a856 <MontyJacProjDoublePoint+0x5c>
 800a850:	2302      	movs	r3, #2
 800a852:	7333      	strb	r3, [r6, #12]
 800a854:	e0e9      	b.n	800aa2a <MontyJacProjDoublePoint+0x230>
 800a856:	68b8      	ldr	r0, [r7, #8]
 800a858:	9a02      	ldr	r2, [sp, #8]
 800a85a:	2304      	movs	r3, #4
 800a85c:	7333      	strb	r3, [r6, #12]
 800a85e:	4601      	mov	r1, r0
 800a860:	4623      	mov	r3, r4
 800a862:	f7fe fdf3 	bl	800944c <MontyMul>
 800a866:	4605      	mov	r5, r0
 800a868:	2800      	cmp	r0, #0
 800a86a:	f040 80de 	bne.w	800aa2a <MontyJacProjDoublePoint+0x230>
 800a86e:	6879      	ldr	r1, [r7, #4]
 800a870:	68b2      	ldr	r2, [r6, #8]
 800a872:	68b8      	ldr	r0, [r7, #8]
 800a874:	4623      	mov	r3, r4
 800a876:	f7fe fde9 	bl	800944c <MontyMul>
 800a87a:	68b0      	ldr	r0, [r6, #8]
 800a87c:	6821      	ldr	r1, [r4, #0]
 800a87e:	68e2      	ldr	r2, [r4, #12]
 800a880:	f7fe ff2a 	bl	80096d8 <ModularFastMul2>
 800a884:	4605      	mov	r5, r0
 800a886:	2800      	cmp	r0, #0
 800a888:	f040 80cf 	bne.w	800aa2a <MontyJacProjDoublePoint+0x230>
 800a88c:	9803      	ldr	r0, [sp, #12]
 800a88e:	6821      	ldr	r1, [r4, #0]
 800a890:	68e3      	ldr	r3, [r4, #12]
 800a892:	4602      	mov	r2, r0
 800a894:	f7fe fc40 	bl	8009118 <AddBig>
 800a898:	f8d9 3030 	ldr.w	r3, [r9, #48]	; 0x30
 800a89c:	9803      	ldr	r0, [sp, #12]
 800a89e:	6819      	ldr	r1, [r3, #0]
 800a8a0:	f7fe f954 	bl	8008b4c <CompareBig>
 800a8a4:	2800      	cmp	r0, #0
 800a8a6:	d137      	bne.n	800a918 <MontyJacProjDoublePoint+0x11e>
 800a8a8:	68e3      	ldr	r3, [r4, #12]
 800a8aa:	9300      	str	r3, [sp, #0]
 800a8ac:	6838      	ldr	r0, [r7, #0]
 800a8ae:	9902      	ldr	r1, [sp, #8]
 800a8b0:	9a03      	ldr	r2, [sp, #12]
 800a8b2:	6823      	ldr	r3, [r4, #0]
 800a8b4:	f7fe fefa 	bl	80096ac <ModularSubBig>
 800a8b8:	4605      	mov	r5, r0
 800a8ba:	2800      	cmp	r0, #0
 800a8bc:	f040 80b5 	bne.w	800aa2a <MontyJacProjDoublePoint+0x230>
 800a8c0:	68e3      	ldr	r3, [r4, #12]
 800a8c2:	9300      	str	r3, [sp, #0]
 800a8c4:	6838      	ldr	r0, [r7, #0]
 800a8c6:	9902      	ldr	r1, [sp, #8]
 800a8c8:	6832      	ldr	r2, [r6, #0]
 800a8ca:	6823      	ldr	r3, [r4, #0]
 800a8cc:	f7fe fecc 	bl	8009668 <ModularAddBig>
 800a8d0:	4605      	mov	r5, r0
 800a8d2:	2800      	cmp	r0, #0
 800a8d4:	f040 80a9 	bne.w	800aa2a <MontyJacProjDoublePoint+0x230>
 800a8d8:	6830      	ldr	r0, [r6, #0]
 800a8da:	9903      	ldr	r1, [sp, #12]
 800a8dc:	9a02      	ldr	r2, [sp, #8]
 800a8de:	4623      	mov	r3, r4
 800a8e0:	f7fe fdb4 	bl	800944c <MontyMul>
 800a8e4:	4605      	mov	r5, r0
 800a8e6:	2800      	cmp	r0, #0
 800a8e8:	f040 809f 	bne.w	800aa2a <MontyJacProjDoublePoint+0x230>
 800a8ec:	9903      	ldr	r1, [sp, #12]
 800a8ee:	9802      	ldr	r0, [sp, #8]
 800a8f0:	f7fe f86d 	bl	80089ce <CopyBig>
 800a8f4:	9803      	ldr	r0, [sp, #12]
 800a8f6:	6821      	ldr	r1, [r4, #0]
 800a8f8:	68e2      	ldr	r2, [r4, #12]
 800a8fa:	f7fe feed 	bl	80096d8 <ModularFastMul2>
 800a8fe:	4605      	mov	r5, r0
 800a900:	2800      	cmp	r0, #0
 800a902:	f040 8092 	bne.w	800aa2a <MontyJacProjDoublePoint+0x230>
 800a906:	9902      	ldr	r1, [sp, #8]
 800a908:	68e3      	ldr	r3, [r4, #12]
 800a90a:	9300      	str	r3, [sp, #0]
 800a90c:	9803      	ldr	r0, [sp, #12]
 800a90e:	6823      	ldr	r3, [r4, #0]
 800a910:	460a      	mov	r2, r1
 800a912:	f7fe fea9 	bl	8009668 <ModularAddBig>
 800a916:	e034      	b.n	800a982 <MontyJacProjDoublePoint+0x188>
 800a918:	9802      	ldr	r0, [sp, #8]
 800a91a:	4623      	mov	r3, r4
 800a91c:	4601      	mov	r1, r0
 800a91e:	4602      	mov	r2, r0
 800a920:	f7fe fd94 	bl	800944c <MontyMul>
 800a924:	4605      	mov	r5, r0
 800a926:	2800      	cmp	r0, #0
 800a928:	d17f      	bne.n	800aa2a <MontyJacProjDoublePoint+0x230>
 800a92a:	f8d9 3030 	ldr.w	r3, [r9, #48]	; 0x30
 800a92e:	6861      	ldr	r1, [r4, #4]
 800a930:	6818      	ldr	r0, [r3, #0]
 800a932:	9a03      	ldr	r2, [sp, #12]
 800a934:	4623      	mov	r3, r4
 800a936:	f7fe fd89 	bl	800944c <MontyMul>
 800a93a:	9902      	ldr	r1, [sp, #8]
 800a93c:	9803      	ldr	r0, [sp, #12]
 800a93e:	460a      	mov	r2, r1
 800a940:	4623      	mov	r3, r4
 800a942:	f7fe fd83 	bl	800944c <MontyMul>
 800a946:	6838      	ldr	r0, [r7, #0]
 800a948:	9a03      	ldr	r2, [sp, #12]
 800a94a:	4601      	mov	r1, r0
 800a94c:	4623      	mov	r3, r4
 800a94e:	f7fe fd7d 	bl	800944c <MontyMul>
 800a952:	9802      	ldr	r0, [sp, #8]
 800a954:	68e3      	ldr	r3, [r4, #12]
 800a956:	9300      	str	r3, [sp, #0]
 800a958:	9903      	ldr	r1, [sp, #12]
 800a95a:	6823      	ldr	r3, [r4, #0]
 800a95c:	4602      	mov	r2, r0
 800a95e:	f7fe fe83 	bl	8009668 <ModularAddBig>
 800a962:	6821      	ldr	r1, [r4, #0]
 800a964:	68e2      	ldr	r2, [r4, #12]
 800a966:	9803      	ldr	r0, [sp, #12]
 800a968:	f7fe feb6 	bl	80096d8 <ModularFastMul2>
 800a96c:	9802      	ldr	r0, [sp, #8]
 800a96e:	68e3      	ldr	r3, [r4, #12]
 800a970:	9300      	str	r3, [sp, #0]
 800a972:	9903      	ldr	r1, [sp, #12]
 800a974:	6823      	ldr	r3, [r4, #0]
 800a976:	4602      	mov	r2, r0
 800a978:	f7fe fe76 	bl	8009668 <ModularAddBig>
 800a97c:	4605      	mov	r5, r0
 800a97e:	2800      	cmp	r0, #0
 800a980:	d153      	bne.n	800aa2a <MontyJacProjDoublePoint+0x230>
 800a982:	6878      	ldr	r0, [r7, #4]
 800a984:	6832      	ldr	r2, [r6, #0]
 800a986:	4601      	mov	r1, r0
 800a988:	4623      	mov	r3, r4
 800a98a:	f7fe fd5f 	bl	800944c <MontyMul>
 800a98e:	4605      	mov	r5, r0
 800a990:	2800      	cmp	r0, #0
 800a992:	d14a      	bne.n	800aa2a <MontyJacProjDoublePoint+0x230>
 800a994:	6821      	ldr	r1, [r4, #0]
 800a996:	68e2      	ldr	r2, [r4, #12]
 800a998:	6830      	ldr	r0, [r6, #0]
 800a99a:	f7fe fe9d 	bl	80096d8 <ModularFastMul2>
 800a99e:	6830      	ldr	r0, [r6, #0]
 800a9a0:	9a03      	ldr	r2, [sp, #12]
 800a9a2:	4623      	mov	r3, r4
 800a9a4:	4601      	mov	r1, r0
 800a9a6:	f7fe fd51 	bl	800944c <MontyMul>
 800a9aa:	6821      	ldr	r1, [r4, #0]
 800a9ac:	68e2      	ldr	r2, [r4, #12]
 800a9ae:	9803      	ldr	r0, [sp, #12]
 800a9b0:	f7fe fe92 	bl	80096d8 <ModularFastMul2>
 800a9b4:	6821      	ldr	r1, [r4, #0]
 800a9b6:	68e2      	ldr	r2, [r4, #12]
 800a9b8:	6830      	ldr	r0, [r6, #0]
 800a9ba:	f7fe fe8d 	bl	80096d8 <ModularFastMul2>
 800a9be:	6838      	ldr	r0, [r7, #0]
 800a9c0:	e896 0006 	ldmia.w	r6, {r1, r2}
 800a9c4:	4623      	mov	r3, r4
 800a9c6:	f7fe fd41 	bl	800944c <MontyMul>
 800a9ca:	4605      	mov	r5, r0
 800a9cc:	2800      	cmp	r0, #0
 800a9ce:	d12c      	bne.n	800aa2a <MontyJacProjDoublePoint+0x230>
 800a9d0:	9802      	ldr	r0, [sp, #8]
 800a9d2:	6832      	ldr	r2, [r6, #0]
 800a9d4:	4601      	mov	r1, r0
 800a9d6:	4623      	mov	r3, r4
 800a9d8:	f7fe fd38 	bl	800944c <MontyMul>
 800a9dc:	6830      	ldr	r0, [r6, #0]
 800a9de:	68e3      	ldr	r3, [r4, #12]
 800a9e0:	9300      	str	r3, [sp, #0]
 800a9e2:	6871      	ldr	r1, [r6, #4]
 800a9e4:	6823      	ldr	r3, [r4, #0]
 800a9e6:	4602      	mov	r2, r0
 800a9e8:	f7fe fe60 	bl	80096ac <ModularSubBig>
 800a9ec:	6830      	ldr	r0, [r6, #0]
 800a9ee:	68e3      	ldr	r3, [r4, #12]
 800a9f0:	9300      	str	r3, [sp, #0]
 800a9f2:	6871      	ldr	r1, [r6, #4]
 800a9f4:	6823      	ldr	r3, [r4, #0]
 800a9f6:	4602      	mov	r2, r0
 800a9f8:	f7fe fe58 	bl	80096ac <ModularSubBig>
 800a9fc:	6870      	ldr	r0, [r6, #4]
 800a9fe:	68e3      	ldr	r3, [r4, #12]
 800aa00:	9300      	str	r3, [sp, #0]
 800aa02:	6831      	ldr	r1, [r6, #0]
 800aa04:	6823      	ldr	r3, [r4, #0]
 800aa06:	4602      	mov	r2, r0
 800aa08:	f7fe fe50 	bl	80096ac <ModularSubBig>
 800aa0c:	6871      	ldr	r1, [r6, #4]
 800aa0e:	9802      	ldr	r0, [sp, #8]
 800aa10:	460a      	mov	r2, r1
 800aa12:	4623      	mov	r3, r4
 800aa14:	f7fe fd1a 	bl	800944c <MontyMul>
 800aa18:	6870      	ldr	r0, [r6, #4]
 800aa1a:	68e3      	ldr	r3, [r4, #12]
 800aa1c:	9300      	str	r3, [sp, #0]
 800aa1e:	9903      	ldr	r1, [sp, #12]
 800aa20:	6823      	ldr	r3, [r4, #0]
 800aa22:	4602      	mov	r2, r0
 800aa24:	f7fe fe42 	bl	80096ac <ModularSubBig>
 800aa28:	4605      	mov	r5, r0
 800aa2a:	a802      	add	r0, sp, #8
 800aa2c:	68e1      	ldr	r1, [r4, #12]
 800aa2e:	f7fd ffaa 	bl	8008986 <StFreeBig>
 800aa32:	4640      	mov	r0, r8
 800aa34:	68e1      	ldr	r1, [r4, #12]
 800aa36:	f7fd ffa6 	bl	8008986 <StFreeBig>
 800aa3a:	4628      	mov	r0, r5
 800aa3c:	b005      	add	sp, #20
 800aa3e:	e8bd 83f0 	ldmia.w	sp!, {r4, r5, r6, r7, r8, r9, pc}

0800aa42 <ECCinitEC>:
 800aa42:	e92d 41f0 	stmdb	sp!, {r4, r5, r6, r7, r8, lr}
 800aa46:	460d      	mov	r5, r1
 800aa48:	4604      	mov	r4, r0
 800aa4a:	2800      	cmp	r0, #0
 800aa4c:	f000 80d6 	beq.w	800abfc <ECCinitEC+0x1ba>
 800aa50:	2900      	cmp	r1, #0
 800aa52:	f000 80d3 	beq.w	800abfc <ECCinitEC+0x1ba>
 800aa56:	6903      	ldr	r3, [r0, #16]
 800aa58:	2b00      	cmp	r3, #0
 800aa5a:	f000 80d3 	beq.w	800ac04 <ECCinitEC+0x1c2>
 800aa5e:	6941      	ldr	r1, [r0, #20]
 800aa60:	1e4b      	subs	r3, r1, #1
 800aa62:	2b43      	cmp	r3, #67	; 0x43
 800aa64:	f200 80ce 	bhi.w	800ac04 <ECCinitEC+0x1c2>
 800aa68:	6803      	ldr	r3, [r0, #0]
 800aa6a:	2b00      	cmp	r3, #0
 800aa6c:	f000 80ca 	beq.w	800ac04 <ECCinitEC+0x1c2>
 800aa70:	6843      	ldr	r3, [r0, #4]
 800aa72:	2b44      	cmp	r3, #68	; 0x44
 800aa74:	f200 80c6 	bhi.w	800ac04 <ECCinitEC+0x1c2>
 800aa78:	6983      	ldr	r3, [r0, #24]
 800aa7a:	2b00      	cmp	r3, #0
 800aa7c:	f000 80c2 	beq.w	800ac04 <ECCinitEC+0x1c2>
 800aa80:	69c3      	ldr	r3, [r0, #28]
 800aa82:	3b01      	subs	r3, #1
 800aa84:	2b43      	cmp	r3, #67	; 0x43
 800aa86:	f200 80bd 	bhi.w	800ac04 <ECCinitEC+0x1c2>
 800aa8a:	6828      	ldr	r0, [r5, #0]
 800aa8c:	2800      	cmp	r0, #0
 800aa8e:	f000 80b9 	beq.w	800ac04 <ECCinitEC+0x1c2>
 800aa92:	3103      	adds	r1, #3
 800aa94:	0889      	lsrs	r1, r1, #2
 800aa96:	2318      	movs	r3, #24
 800aa98:	88aa      	ldrh	r2, [r5, #4]
 800aa9a:	434b      	muls	r3, r1
 800aa9c:	3360      	adds	r3, #96	; 0x60
 800aa9e:	429a      	cmp	r2, r3
 800aaa0:	d203      	bcs.n	800aaaa <ECCinitEC+0x68>
 800aaa2:	f240 30ed 	movw	r0, #1005	; 0x3ed
 800aaa6:	e8bd 81f0 	ldmia.w	sp!, {r4, r5, r6, r7, r8, pc}
 800aaaa:	88eb      	ldrh	r3, [r5, #6]
 800aaac:	4418      	add	r0, r3
 800aaae:	3318      	adds	r3, #24
 800aab0:	6320      	str	r0, [r4, #48]	; 0x30
 800aab2:	80eb      	strh	r3, [r5, #6]
 800aab4:	2800      	cmp	r0, #0
 800aab6:	d0f4      	beq.n	800aaa2 <ECCinitEC+0x60>
 800aab8:	3008      	adds	r0, #8
 800aaba:	462a      	mov	r2, r5
 800aabc:	f7fd ff48 	bl	8008950 <StAllocBig>
 800aac0:	4606      	mov	r6, r0
 800aac2:	2800      	cmp	r0, #0
 800aac4:	f040 8092 	bne.w	800abec <ECCinitEC+0x1aa>
 800aac8:	6961      	ldr	r1, [r4, #20]
 800aaca:	6b20      	ldr	r0, [r4, #48]	; 0x30
 800aacc:	3103      	adds	r1, #3
 800aace:	0889      	lsrs	r1, r1, #2
 800aad0:	462a      	mov	r2, r5
 800aad2:	f7fd ff3d 	bl	8008950 <StAllocBig>
 800aad6:	4606      	mov	r6, r0
 800aad8:	2800      	cmp	r0, #0
 800aada:	f040 8082 	bne.w	800abe2 <ECCinitEC+0x1a0>
 800aade:	6b23      	ldr	r3, [r4, #48]	; 0x30
 800aae0:	e894 0003 	ldmia.w	r4, {r0, r1}
 800aae4:	681a      	ldr	r2, [r3, #0]
 800aae6:	f7fe f8e5 	bl	8008cb4 <W8_to_Big>
 800aaea:	6b23      	ldr	r3, [r4, #48]	; 0x30
 800aaec:	6961      	ldr	r1, [r4, #20]
 800aaee:	689a      	ldr	r2, [r3, #8]
 800aaf0:	4680      	mov	r8, r0
 800aaf2:	6920      	ldr	r0, [r4, #16]
 800aaf4:	f7fe f8de 	bl	8008cb4 <W8_to_Big>
 800aaf8:	69e1      	ldr	r1, [r4, #28]
 800aafa:	4607      	mov	r7, r0
 800aafc:	6b20      	ldr	r0, [r4, #48]	; 0x30
 800aafe:	3103      	adds	r1, #3
 800ab00:	300c      	adds	r0, #12
 800ab02:	0889      	lsrs	r1, r1, #2
 800ab04:	462a      	mov	r2, r5
 800ab06:	f7fd ff23 	bl	8008950 <StAllocBig>
 800ab0a:	4606      	mov	r6, r0
 800ab0c:	2800      	cmp	r0, #0
 800ab0e:	d164      	bne.n	800abda <ECCinitEC+0x198>
 800ab10:	6b23      	ldr	r3, [r4, #48]	; 0x30
 800ab12:	69a0      	ldr	r0, [r4, #24]
 800ab14:	68da      	ldr	r2, [r3, #12]
 800ab16:	69e1      	ldr	r1, [r4, #28]
 800ab18:	f7fe f8cc 	bl	8008cb4 <W8_to_Big>
 800ab1c:	4447      	add	r7, r8
 800ab1e:	4407      	add	r7, r0
 800ab20:	68a3      	ldr	r3, [r4, #8]
 800ab22:	6b20      	ldr	r0, [r4, #48]	; 0x30
 800ab24:	6046      	str	r6, [r0, #4]
 800ab26:	6106      	str	r6, [r0, #16]
 800ab28:	6146      	str	r6, [r0, #20]
 800ab2a:	b19b      	cbz	r3, 800ab54 <ECCinitEC+0x112>
 800ab2c:	68e1      	ldr	r1, [r4, #12]
 800ab2e:	1e4b      	subs	r3, r1, #1
 800ab30:	2b42      	cmp	r3, #66	; 0x42
 800ab32:	d80f      	bhi.n	800ab54 <ECCinitEC+0x112>
 800ab34:	3103      	adds	r1, #3
 800ab36:	3004      	adds	r0, #4
 800ab38:	0889      	lsrs	r1, r1, #2
 800ab3a:	462a      	mov	r2, r5
 800ab3c:	f7fd ff08 	bl	8008950 <StAllocBig>
 800ab40:	4606      	mov	r6, r0
 800ab42:	2800      	cmp	r0, #0
 800ab44:	d144      	bne.n	800abd0 <ECCinitEC+0x18e>
 800ab46:	6b23      	ldr	r3, [r4, #48]	; 0x30
 800ab48:	68a0      	ldr	r0, [r4, #8]
 800ab4a:	68e1      	ldr	r1, [r4, #12]
 800ab4c:	685a      	ldr	r2, [r3, #4]
 800ab4e:	f7fe f8b1 	bl	8008cb4 <W8_to_Big>
 800ab52:	4407      	add	r7, r0
 800ab54:	6a23      	ldr	r3, [r4, #32]
 800ab56:	b353      	cbz	r3, 800abae <ECCinitEC+0x16c>
 800ab58:	6a61      	ldr	r1, [r4, #36]	; 0x24
 800ab5a:	1e4b      	subs	r3, r1, #1
 800ab5c:	2b42      	cmp	r3, #66	; 0x42
 800ab5e:	d826      	bhi.n	800abae <ECCinitEC+0x16c>
 800ab60:	6aa3      	ldr	r3, [r4, #40]	; 0x28
 800ab62:	b323      	cbz	r3, 800abae <ECCinitEC+0x16c>
 800ab64:	6ae3      	ldr	r3, [r4, #44]	; 0x2c
 800ab66:	3b01      	subs	r3, #1
 800ab68:	2b42      	cmp	r3, #66	; 0x42
 800ab6a:	d820      	bhi.n	800abae <ECCinitEC+0x16c>
 800ab6c:	6b20      	ldr	r0, [r4, #48]	; 0x30
 800ab6e:	3103      	adds	r1, #3
 800ab70:	3010      	adds	r0, #16
 800ab72:	0889      	lsrs	r1, r1, #2
 800ab74:	462a      	mov	r2, r5
 800ab76:	f7fd feeb 	bl	8008950 <StAllocBig>
 800ab7a:	4606      	mov	r6, r0
 800ab7c:	bb18      	cbnz	r0, 800abc6 <ECCinitEC+0x184>
 800ab7e:	6b23      	ldr	r3, [r4, #48]	; 0x30
 800ab80:	6a61      	ldr	r1, [r4, #36]	; 0x24
 800ab82:	691a      	ldr	r2, [r3, #16]
 800ab84:	6a20      	ldr	r0, [r4, #32]
 800ab86:	f7fe f895 	bl	8008cb4 <W8_to_Big>
 800ab8a:	6ae1      	ldr	r1, [r4, #44]	; 0x2c
 800ab8c:	4407      	add	r7, r0
 800ab8e:	6b20      	ldr	r0, [r4, #48]	; 0x30
 800ab90:	3103      	adds	r1, #3
 800ab92:	3014      	adds	r0, #20
 800ab94:	0889      	lsrs	r1, r1, #2
 800ab96:	462a      	mov	r2, r5
 800ab98:	f7fd feda 	bl	8008950 <StAllocBig>
 800ab9c:	6b23      	ldr	r3, [r4, #48]	; 0x30
 800ab9e:	4606      	mov	r6, r0
 800aba0:	b960      	cbnz	r0, 800abbc <ECCinitEC+0x17a>
 800aba2:	6aa0      	ldr	r0, [r4, #40]	; 0x28
 800aba4:	6ae1      	ldr	r1, [r4, #44]	; 0x2c
 800aba6:	695a      	ldr	r2, [r3, #20]
 800aba8:	f7fe f884 	bl	8008cb4 <W8_to_Big>
 800abac:	4407      	add	r7, r0
 800abae:	2f00      	cmp	r7, #0
 800abb0:	f241 40bf 	movw	r0, #5311	; 0x14bf
 800abb4:	bf08      	it	eq
 800abb6:	2000      	moveq	r0, #0
 800abb8:	e8bd 81f0 	ldmia.w	sp!, {r4, r5, r6, r7, r8, pc}
 800abbc:	f103 0010 	add.w	r0, r3, #16
 800abc0:	4629      	mov	r1, r5
 800abc2:	f7fd fee0 	bl	8008986 <StFreeBig>
 800abc6:	6b20      	ldr	r0, [r4, #48]	; 0x30
 800abc8:	4629      	mov	r1, r5
 800abca:	3004      	adds	r0, #4
 800abcc:	f7fd fedb 	bl	8008986 <StFreeBig>
 800abd0:	6b20      	ldr	r0, [r4, #48]	; 0x30
 800abd2:	4629      	mov	r1, r5
 800abd4:	300c      	adds	r0, #12
 800abd6:	f7fd fed6 	bl	8008986 <StFreeBig>
 800abda:	6b20      	ldr	r0, [r4, #48]	; 0x30
 800abdc:	4629      	mov	r1, r5
 800abde:	f7fd fed2 	bl	8008986 <StFreeBig>
 800abe2:	6b20      	ldr	r0, [r4, #48]	; 0x30
 800abe4:	4629      	mov	r1, r5
 800abe6:	3008      	adds	r0, #8
 800abe8:	f7fd fecd 	bl	8008986 <StFreeBig>
 800abec:	88eb      	ldrh	r3, [r5, #6]
 800abee:	3b18      	subs	r3, #24
 800abf0:	80eb      	strh	r3, [r5, #6]
 800abf2:	2300      	movs	r3, #0
 800abf4:	6323      	str	r3, [r4, #48]	; 0x30
 800abf6:	4630      	mov	r0, r6
 800abf8:	e8bd 81f0 	ldmia.w	sp!, {r4, r5, r6, r7, r8, pc}
 800abfc:	f241 4054 	movw	r0, #5204	; 0x1454
 800ac00:	e8bd 81f0 	ldmia.w	sp!, {r4, r5, r6, r7, r8, pc}
 800ac04:	f241 4053 	movw	r0, #5203	; 0x1453
 800ac08:	e8bd 81f0 	ldmia.w	sp!, {r4, r5, r6, r7, r8, pc}

0800ac0c <ECCfreeEC>:
 800ac0c:	b538      	push	{r3, r4, r5, lr}
 800ac0e:	460d      	mov	r5, r1
 800ac10:	4604      	mov	r4, r0
 800ac12:	2800      	cmp	r0, #0
 800ac14:	d032      	beq.n	800ac7c <ECCfreeEC+0x70>
 800ac16:	2900      	cmp	r1, #0
 800ac18:	d030      	beq.n	800ac7c <ECCfreeEC+0x70>
 800ac1a:	6b00      	ldr	r0, [r0, #48]	; 0x30
 800ac1c:	2800      	cmp	r0, #0
 800ac1e:	d030      	beq.n	800ac82 <ECCfreeEC+0x76>
 800ac20:	6803      	ldr	r3, [r0, #0]
 800ac22:	2b00      	cmp	r3, #0
 800ac24:	d02d      	beq.n	800ac82 <ECCfreeEC+0x76>
 800ac26:	6883      	ldr	r3, [r0, #8]
 800ac28:	b35b      	cbz	r3, 800ac82 <ECCfreeEC+0x76>
 800ac2a:	f7fd feac 	bl	8008986 <StFreeBig>
 800ac2e:	6b20      	ldr	r0, [r4, #48]	; 0x30
 800ac30:	4629      	mov	r1, r5
 800ac32:	3008      	adds	r0, #8
 800ac34:	f7fd fea7 	bl	8008986 <StFreeBig>
 800ac38:	6b20      	ldr	r0, [r4, #48]	; 0x30
 800ac3a:	68c3      	ldr	r3, [r0, #12]
 800ac3c:	b11b      	cbz	r3, 800ac46 <ECCfreeEC+0x3a>
 800ac3e:	300c      	adds	r0, #12
 800ac40:	4629      	mov	r1, r5
 800ac42:	f7fd fea0 	bl	8008986 <StFreeBig>
 800ac46:	6b20      	ldr	r0, [r4, #48]	; 0x30
 800ac48:	6843      	ldr	r3, [r0, #4]
 800ac4a:	b11b      	cbz	r3, 800ac54 <ECCfreeEC+0x48>
 800ac4c:	3004      	adds	r0, #4
 800ac4e:	4629      	mov	r1, r5
 800ac50:	f7fd fe99 	bl	8008986 <StFreeBig>
 800ac54:	6b20      	ldr	r0, [r4, #48]	; 0x30
 800ac56:	6903      	ldr	r3, [r0, #16]
 800ac58:	b11b      	cbz	r3, 800ac62 <ECCfreeEC+0x56>
 800ac5a:	3010      	adds	r0, #16
 800ac5c:	4629      	mov	r1, r5
 800ac5e:	f7fd fe92 	bl	8008986 <StFreeBig>
 800ac62:	6b20      	ldr	r0, [r4, #48]	; 0x30
 800ac64:	6943      	ldr	r3, [r0, #20]
 800ac66:	b11b      	cbz	r3, 800ac70 <ECCfreeEC+0x64>
 800ac68:	3014      	adds	r0, #20
 800ac6a:	4629      	mov	r1, r5
 800ac6c:	f7fd fe8b 	bl	8008986 <StFreeBig>
 800ac70:	88eb      	ldrh	r3, [r5, #6]
 800ac72:	2000      	movs	r0, #0
 800ac74:	3b18      	subs	r3, #24
 800ac76:	80eb      	strh	r3, [r5, #6]
 800ac78:	6320      	str	r0, [r4, #48]	; 0x30
 800ac7a:	bd38      	pop	{r3, r4, r5, pc}
 800ac7c:	f241 4054 	movw	r0, #5204	; 0x1454
 800ac80:	bd38      	pop	{r3, r4, r5, pc}
 800ac82:	f241 4053 	movw	r0, #5203	; 0x1453
 800ac86:	bd38      	pop	{r3, r4, r5, pc}

0800ac88 <ECCinitPoint>:
 800ac88:	e92d 41f0 	stmdb	sp!, {r4, r5, r6, r7, r8, lr}
 800ac8c:	4605      	mov	r5, r0
 800ac8e:	4614      	mov	r4, r2
 800ac90:	460e      	mov	r6, r1
 800ac92:	2900      	cmp	r1, #0
 800ac94:	d05c      	beq.n	800ad50 <ECCinitPoint+0xc8>
 800ac96:	2a00      	cmp	r2, #0
 800ac98:	d05a      	beq.n	800ad50 <ECCinitPoint+0xc8>
 800ac9a:	2800      	cmp	r0, #0
 800ac9c:	d058      	beq.n	800ad50 <ECCinitPoint+0xc8>
 800ac9e:	6b0b      	ldr	r3, [r1, #48]	; 0x30
 800aca0:	2b00      	cmp	r3, #0
 800aca2:	d04f      	beq.n	800ad44 <ECCinitPoint+0xbc>
 800aca4:	6810      	ldr	r0, [r2, #0]
 800aca6:	2800      	cmp	r0, #0
 800aca8:	d04c      	beq.n	800ad44 <ECCinitPoint+0xbc>
 800acaa:	6899      	ldr	r1, [r3, #8]
 800acac:	2900      	cmp	r1, #0
 800acae:	d049      	beq.n	800ad44 <ECCinitPoint+0xbc>
 800acb0:	88d3      	ldrh	r3, [r2, #6]
 800acb2:	7989      	ldrb	r1, [r1, #6]
 800acb4:	8897      	ldrh	r7, [r2, #4]
 800acb6:	f103 0c34 	add.w	ip, r3, #52	; 0x34
 800acba:	f04f 080c 	mov.w	r8, #12
 800acbe:	fb18 c101 	smlabb	r1, r8, r1, ip
 800acc2:	428f      	cmp	r7, r1
 800acc4:	d341      	bcc.n	800ad4a <ECCinitPoint+0xc2>
 800acc6:	4418      	add	r0, r3
 800acc8:	6028      	str	r0, [r5, #0]
 800acca:	3310      	adds	r3, #16
 800accc:	80d3      	strh	r3, [r2, #6]
 800acce:	6b33      	ldr	r3, [r6, #48]	; 0x30
 800acd0:	689b      	ldr	r3, [r3, #8]
 800acd2:	7999      	ldrb	r1, [r3, #6]
 800acd4:	f7fd fe3c 	bl	8008950 <StAllocBig>
 800acd8:	2800      	cmp	r0, #0
 800acda:	d12d      	bne.n	800ad38 <ECCinitPoint+0xb0>
 800acdc:	6b33      	ldr	r3, [r6, #48]	; 0x30
 800acde:	6828      	ldr	r0, [r5, #0]
 800ace0:	689b      	ldr	r3, [r3, #8]
 800ace2:	3004      	adds	r0, #4
 800ace4:	7999      	ldrb	r1, [r3, #6]
 800ace6:	4622      	mov	r2, r4
 800ace8:	f7fd fe32 	bl	8008950 <StAllocBig>
 800acec:	bb00      	cbnz	r0, 800ad30 <ECCinitPoint+0xa8>
 800acee:	6b33      	ldr	r3, [r6, #48]	; 0x30
 800acf0:	6828      	ldr	r0, [r5, #0]
 800acf2:	689b      	ldr	r3, [r3, #8]
 800acf4:	3008      	adds	r0, #8
 800acf6:	7999      	ldrb	r1, [r3, #6]
 800acf8:	4622      	mov	r2, r4
 800acfa:	f7fd fe29 	bl	8008950 <StAllocBig>
 800acfe:	4606      	mov	r6, r0
 800ad00:	6828      	ldr	r0, [r5, #0]
 800ad02:	b98e      	cbnz	r6, 800ad28 <ECCinitPoint+0xa0>
 800ad04:	6800      	ldr	r0, [r0, #0]
 800ad06:	2100      	movs	r1, #0
 800ad08:	f7fd fe4a 	bl	80089a0 <InitBig>
 800ad0c:	682b      	ldr	r3, [r5, #0]
 800ad0e:	2100      	movs	r1, #0
 800ad10:	6858      	ldr	r0, [r3, #4]
 800ad12:	f7fd fe45 	bl	80089a0 <InitBig>
 800ad16:	682b      	ldr	r3, [r5, #0]
 800ad18:	2101      	movs	r1, #1
 800ad1a:	6898      	ldr	r0, [r3, #8]
 800ad1c:	f7fd fe40 	bl	80089a0 <InitBig>
 800ad20:	682b      	ldr	r3, [r5, #0]
 800ad22:	2201      	movs	r2, #1
 800ad24:	731a      	strb	r2, [r3, #12]
 800ad26:	e015      	b.n	800ad54 <ECCinitPoint+0xcc>
 800ad28:	3004      	adds	r0, #4
 800ad2a:	4621      	mov	r1, r4
 800ad2c:	f7fd fe2b 	bl	8008986 <StFreeBig>
 800ad30:	6828      	ldr	r0, [r5, #0]
 800ad32:	4621      	mov	r1, r4
 800ad34:	f7fd fe27 	bl	8008986 <StFreeBig>
 800ad38:	88e3      	ldrh	r3, [r4, #6]
 800ad3a:	3b10      	subs	r3, #16
 800ad3c:	80e3      	strh	r3, [r4, #6]
 800ad3e:	2300      	movs	r3, #0
 800ad40:	602b      	str	r3, [r5, #0]
 800ad42:	e002      	b.n	800ad4a <ECCinitPoint+0xc2>
 800ad44:	f241 4653 	movw	r6, #5203	; 0x1453
 800ad48:	e004      	b.n	800ad54 <ECCinitPoint+0xcc>
 800ad4a:	f240 36ed 	movw	r6, #1005	; 0x3ed
 800ad4e:	e001      	b.n	800ad54 <ECCinitPoint+0xcc>
 800ad50:	f241 4654 	movw	r6, #5204	; 0x1454
 800ad54:	4630      	mov	r0, r6
 800ad56:	e8bd 81f0 	ldmia.w	sp!, {r4, r5, r6, r7, r8, pc}

0800ad5a <ECCfreePoint>:
 800ad5a:	b538      	push	{r3, r4, r5, lr}
 800ad5c:	460d      	mov	r5, r1
 800ad5e:	4604      	mov	r4, r0
 800ad60:	b1b8      	cbz	r0, 800ad92 <ECCfreePoint+0x38>
 800ad62:	b1b1      	cbz	r1, 800ad92 <ECCfreePoint+0x38>
 800ad64:	6800      	ldr	r0, [r0, #0]
 800ad66:	b188      	cbz	r0, 800ad8c <ECCfreePoint+0x32>
 800ad68:	3008      	adds	r0, #8
 800ad6a:	f7fd fe0c 	bl	8008986 <StFreeBig>
 800ad6e:	6820      	ldr	r0, [r4, #0]
 800ad70:	4629      	mov	r1, r5
 800ad72:	3004      	adds	r0, #4
 800ad74:	f7fd fe07 	bl	8008986 <StFreeBig>
 800ad78:	6820      	ldr	r0, [r4, #0]
 800ad7a:	4629      	mov	r1, r5
 800ad7c:	f7fd fe03 	bl	8008986 <StFreeBig>
 800ad80:	88eb      	ldrh	r3, [r5, #6]
 800ad82:	2000      	movs	r0, #0
 800ad84:	3b10      	subs	r3, #16
 800ad86:	80eb      	strh	r3, [r5, #6]
 800ad88:	6020      	str	r0, [r4, #0]
 800ad8a:	bd38      	pop	{r3, r4, r5, pc}
 800ad8c:	f241 4053 	movw	r0, #5203	; 0x1453
 800ad90:	bd38      	pop	{r3, r4, r5, pc}
 800ad92:	f241 4054 	movw	r0, #5204	; 0x1454
 800ad96:	bd38      	pop	{r3, r4, r5, pc}

0800ad98 <ECCsetPointCoordinate>:
 800ad98:	b570      	push	{r4, r5, r6, lr}
 800ad9a:	460d      	mov	r5, r1
 800ad9c:	4614      	mov	r4, r2
 800ad9e:	4619      	mov	r1, r3
 800ada0:	b1e0      	cbz	r0, 800addc <ECCsetPointCoordinate+0x44>
 800ada2:	b1da      	cbz	r2, 800addc <ECCsetPointCoordinate+0x44>
 800ada4:	2b00      	cmp	r3, #0
 800ada6:	db19      	blt.n	800addc <ECCsetPointCoordinate+0x44>
 800ada8:	6806      	ldr	r6, [r0, #0]
 800adaa:	b1be      	cbz	r6, 800addc <ECCsetPointCoordinate+0x44>
 800adac:	6842      	ldr	r2, [r0, #4]
 800adae:	b1aa      	cbz	r2, 800addc <ECCsetPointCoordinate+0x44>
 800adb0:	6883      	ldr	r3, [r0, #8]
 800adb2:	b19b      	cbz	r3, 800addc <ECCsetPointCoordinate+0x44>
 800adb4:	2d01      	cmp	r5, #1
 800adb6:	d008      	beq.n	800adca <ECCsetPointCoordinate+0x32>
 800adb8:	d304      	bcc.n	800adc4 <ECCsetPointCoordinate+0x2c>
 800adba:	2d02      	cmp	r5, #2
 800adbc:	d111      	bne.n	800ade2 <ECCsetPointCoordinate+0x4a>
 800adbe:	4620      	mov	r0, r4
 800adc0:	461a      	mov	r2, r3
 800adc2:	e003      	b.n	800adcc <ECCsetPointCoordinate+0x34>
 800adc4:	4620      	mov	r0, r4
 800adc6:	4632      	mov	r2, r6
 800adc8:	e000      	b.n	800adcc <ECCsetPointCoordinate+0x34>
 800adca:	4620      	mov	r0, r4
 800adcc:	f7fd ff72 	bl	8008cb4 <W8_to_Big>
 800add0:	2800      	cmp	r0, #0
 800add2:	f241 40bf 	movw	r0, #5311	; 0x14bf
 800add6:	bf08      	it	eq
 800add8:	2000      	moveq	r0, #0
 800adda:	bd70      	pop	{r4, r5, r6, pc}
 800addc:	f241 4054 	movw	r0, #5204	; 0x1454
 800ade0:	bd70      	pop	{r4, r5, r6, pc}
 800ade2:	f241 40bf 	movw	r0, #5311	; 0x14bf
 800ade6:	bd70      	pop	{r4, r5, r6, pc}

0800ade8 <ECCgetPointCoordinate>:
 800ade8:	b573      	push	{r0, r1, r4, r5, r6, lr}
 800adea:	461d      	mov	r5, r3
 800adec:	2300      	movs	r3, #0
 800adee:	9301      	str	r3, [sp, #4]
 800adf0:	4614      	mov	r4, r2
 800adf2:	4603      	mov	r3, r0
 800adf4:	2800      	cmp	r0, #0
 800adf6:	d04a      	beq.n	800ae8e <ECCgetPointCoordinate+0xa6>
 800adf8:	2a00      	cmp	r2, #0
 800adfa:	d048      	beq.n	800ae8e <ECCgetPointCoordinate+0xa6>
 800adfc:	2d00      	cmp	r5, #0
 800adfe:	d046      	beq.n	800ae8e <ECCgetPointCoordinate+0xa6>
 800ae00:	6806      	ldr	r6, [r0, #0]
 800ae02:	2e00      	cmp	r6, #0
 800ae04:	d043      	beq.n	800ae8e <ECCgetPointCoordinate+0xa6>
 800ae06:	6840      	ldr	r0, [r0, #4]
 800ae08:	2800      	cmp	r0, #0
 800ae0a:	d040      	beq.n	800ae8e <ECCgetPointCoordinate+0xa6>
 800ae0c:	689b      	ldr	r3, [r3, #8]
 800ae0e:	2b00      	cmp	r3, #0
 800ae10:	d03d      	beq.n	800ae8e <ECCgetPointCoordinate+0xa6>
 800ae12:	79b2      	ldrb	r2, [r6, #6]
 800ae14:	2901      	cmp	r1, #1
 800ae16:	ea4f 0282 	mov.w	r2, r2, lsl #2
 800ae1a:	602a      	str	r2, [r5, #0]
 800ae1c:	d005      	beq.n	800ae2a <ECCgetPointCoordinate+0x42>
 800ae1e:	d303      	bcc.n	800ae28 <ECCgetPointCoordinate+0x40>
 800ae20:	2902      	cmp	r1, #2
 800ae22:	d106      	bne.n	800ae32 <ECCgetPointCoordinate+0x4a>
 800ae24:	4618      	mov	r0, r3
 800ae26:	e000      	b.n	800ae2a <ECCgetPointCoordinate+0x42>
 800ae28:	4630      	mov	r0, r6
 800ae2a:	4621      	mov	r1, r4
 800ae2c:	f7fd ffc6 	bl	8008dbc <Big_to_fixedW8>
 800ae30:	e001      	b.n	800ae36 <ECCgetPointCoordinate+0x4e>
 800ae32:	f241 4054 	movw	r0, #5204	; 0x1454
 800ae36:	4b18      	ldr	r3, [pc, #96]	; (800ae98 <ECCgetPointCoordinate+0xb0>)
 800ae38:	2201      	movs	r2, #1
 800ae3a:	601a      	str	r2, [r3, #0]
 800ae3c:	681b      	ldr	r3, [r3, #0]
 800ae3e:	9301      	str	r3, [sp, #4]
 800ae40:	4b16      	ldr	r3, [pc, #88]	; (800ae9c <ECCgetPointCoordinate+0xb4>)
 800ae42:	681a      	ldr	r2, [r3, #0]
 800ae44:	9201      	str	r2, [sp, #4]
 800ae46:	9a01      	ldr	r2, [sp, #4]
 800ae48:	3201      	adds	r2, #1
 800ae4a:	d105      	bne.n	800ae58 <ECCgetPointCoordinate+0x70>
 800ae4c:	9a01      	ldr	r2, [sp, #4]
 800ae4e:	601a      	str	r2, [r3, #0]
 800ae50:	681b      	ldr	r3, [r3, #0]
 800ae52:	9301      	str	r3, [sp, #4]
 800ae54:	9b01      	ldr	r3, [sp, #4]
 800ae56:	b1a3      	cbz	r3, 800ae82 <ECCgetPointCoordinate+0x9a>
 800ae58:	7823      	ldrb	r3, [r4, #0]
 800ae5a:	f003 035f 	and.w	r3, r3, #95	; 0x5f
 800ae5e:	7023      	strb	r3, [r4, #0]
 800ae60:	682a      	ldr	r2, [r5, #0]
 800ae62:	3a01      	subs	r2, #1
 800ae64:	1052      	asrs	r2, r2, #1
 800ae66:	f083 0355 	eor.w	r3, r3, #85	; 0x55
 800ae6a:	54a3      	strb	r3, [r4, r2]
 800ae6c:	682b      	ldr	r3, [r5, #0]
 800ae6e:	7822      	ldrb	r2, [r4, #0]
 800ae70:	3b01      	subs	r3, #1
 800ae72:	f062 0255 	orn	r2, r2, #85	; 0x55
 800ae76:	5ce1      	ldrb	r1, [r4, r3]
 800ae78:	404a      	eors	r2, r1
 800ae7a:	54e2      	strb	r2, [r4, r3]
 800ae7c:	682b      	ldr	r3, [r5, #0]
 800ae7e:	105b      	asrs	r3, r3, #1
 800ae80:	602b      	str	r3, [r5, #0]
 800ae82:	2800      	cmp	r0, #0
 800ae84:	f241 40bf 	movw	r0, #5311	; 0x14bf
 800ae88:	bf08      	it	eq
 800ae8a:	2000      	moveq	r0, #0
 800ae8c:	e001      	b.n	800ae92 <ECCgetPointCoordinate+0xaa>
 800ae8e:	f241 4054 	movw	r0, #5204	; 0x1454
 800ae92:	b002      	add	sp, #8
 800ae94:	bd70      	pop	{r4, r5, r6, pc}
 800ae96:	bf00      	nop
 800ae98:	40023008 	.word	0x40023008
 800ae9c:	40023000 	.word	0x40023000

0800aea0 <ECCgetPointFlag>:
 800aea0:	b108      	cbz	r0, 800aea6 <ECCgetPointFlag+0x6>
 800aea2:	7b00      	ldrb	r0, [r0, #12]
 800aea4:	4770      	bx	lr
 800aea6:	f241 4054 	movw	r0, #5204	; 0x1454
 800aeaa:	4770      	bx	lr

0800aeac <ECCsetPointFlag>:
 800aeac:	b100      	cbz	r0, 800aeb0 <ECCsetPointFlag+0x4>
 800aeae:	7301      	strb	r1, [r0, #12]
 800aeb0:	4770      	bx	lr

0800aeb2 <ECCcopyPoint>:
 800aeb2:	b538      	push	{r3, r4, r5, lr}
 800aeb4:	460d      	mov	r5, r1
 800aeb6:	4604      	mov	r4, r0
 800aeb8:	b1f0      	cbz	r0, 800aef8 <ECCcopyPoint+0x46>
 800aeba:	b1e9      	cbz	r1, 800aef8 <ECCcopyPoint+0x46>
 800aebc:	6800      	ldr	r0, [r0, #0]
 800aebe:	b1d8      	cbz	r0, 800aef8 <ECCcopyPoint+0x46>
 800aec0:	6863      	ldr	r3, [r4, #4]
 800aec2:	b1cb      	cbz	r3, 800aef8 <ECCcopyPoint+0x46>
 800aec4:	68a3      	ldr	r3, [r4, #8]
 800aec6:	b1bb      	cbz	r3, 800aef8 <ECCcopyPoint+0x46>
 800aec8:	6809      	ldr	r1, [r1, #0]
 800aeca:	b1a9      	cbz	r1, 800aef8 <ECCcopyPoint+0x46>
 800aecc:	686b      	ldr	r3, [r5, #4]
 800aece:	b19b      	cbz	r3, 800aef8 <ECCcopyPoint+0x46>
 800aed0:	68ab      	ldr	r3, [r5, #8]
 800aed2:	b18b      	cbz	r3, 800aef8 <ECCcopyPoint+0x46>
 800aed4:	7b23      	ldrb	r3, [r4, #12]
 800aed6:	732b      	strb	r3, [r5, #12]
 800aed8:	7b23      	ldrb	r3, [r4, #12]
 800aeda:	079b      	lsls	r3, r3, #30
 800aedc:	d40f      	bmi.n	800aefe <ECCcopyPoint+0x4c>
 800aede:	f7fd fd76 	bl	80089ce <CopyBig>
 800aee2:	b968      	cbnz	r0, 800af00 <ECCcopyPoint+0x4e>
 800aee4:	6860      	ldr	r0, [r4, #4]
 800aee6:	6869      	ldr	r1, [r5, #4]
 800aee8:	f7fd fd71 	bl	80089ce <CopyBig>
 800aeec:	b940      	cbnz	r0, 800af00 <ECCcopyPoint+0x4e>
 800aeee:	68a0      	ldr	r0, [r4, #8]
 800aef0:	68a9      	ldr	r1, [r5, #8]
 800aef2:	f7fd fd6c 	bl	80089ce <CopyBig>
 800aef6:	bd38      	pop	{r3, r4, r5, pc}
 800aef8:	f241 4054 	movw	r0, #5204	; 0x1454
 800aefc:	bd38      	pop	{r3, r4, r5, pc}
 800aefe:	2000      	movs	r0, #0
 800af00:	bd38      	pop	{r3, r4, r5, pc}

0800af02 <ECCsymmetricPoint>:
 800af02:	b5f8      	push	{r3, r4, r5, r6, r7, lr}
 800af04:	4605      	mov	r5, r0
 800af06:	460c      	mov	r4, r1
 800af08:	4616      	mov	r6, r2
 800af0a:	461f      	mov	r7, r3
 800af0c:	f7ff ffd1 	bl	800aeb2 <ECCcopyPoint>
 800af10:	b930      	cbnz	r0, 800af20 <ECCsymmetricPoint+0x1e>
 800af12:	6b33      	ldr	r3, [r6, #48]	; 0x30
 800af14:	6869      	ldr	r1, [r5, #4]
 800af16:	6898      	ldr	r0, [r3, #8]
 800af18:	6862      	ldr	r2, [r4, #4]
 800af1a:	463b      	mov	r3, r7
 800af1c:	f7fe f985 	bl	800922a <SubBig>
 800af20:	bdf8      	pop	{r3, r4, r5, r6, r7, pc}

0800af22 <Normalize>:
 800af22:	7b03      	ldrb	r3, [r0, #12]
 800af24:	b5f7      	push	{r0, r1, r2, r4, r5, r6, r7, lr}
 800af26:	f013 0403 	ands.w	r4, r3, #3
 800af2a:	4607      	mov	r7, r0
 800af2c:	460e      	mov	r6, r1
 800af2e:	4615      	mov	r5, r2
 800af30:	d003      	beq.n	800af3a <Normalize+0x18>
 800af32:	f7ff ffbe 	bl	800aeb2 <ECCcopyPoint>
 800af36:	4604      	mov	r4, r0
 800af38:	e075      	b.n	800b026 <Normalize+0x104>
 800af3a:	075b      	lsls	r3, r3, #29
 800af3c:	9401      	str	r4, [sp, #4]
 800af3e:	d51e      	bpl.n	800af7e <Normalize+0x5c>
 800af40:	6880      	ldr	r0, [r0, #8]
 800af42:	6889      	ldr	r1, [r1, #8]
 800af44:	f7fe fb6d 	bl	8009622 <MontyExit>
 800af48:	4604      	mov	r4, r0
 800af4a:	2800      	cmp	r0, #0
 800af4c:	d16b      	bne.n	800b026 <Normalize+0x104>
 800af4e:	6838      	ldr	r0, [r7, #0]
 800af50:	6831      	ldr	r1, [r6, #0]
 800af52:	f7fd fd3c 	bl	80089ce <CopyBig>
 800af56:	4604      	mov	r4, r0
 800af58:	2800      	cmp	r0, #0
 800af5a:	d164      	bne.n	800b026 <Normalize+0x104>
 800af5c:	6878      	ldr	r0, [r7, #4]
 800af5e:	6871      	ldr	r1, [r6, #4]
 800af60:	f7fd fd35 	bl	80089ce <CopyBig>
 800af64:	4604      	mov	r4, r0
 800af66:	2800      	cmp	r0, #0
 800af68:	d15d      	bne.n	800b026 <Normalize+0x104>
 800af6a:	68b0      	ldr	r0, [r6, #8]
 800af6c:	682a      	ldr	r2, [r5, #0]
 800af6e:	68eb      	ldr	r3, [r5, #12]
 800af70:	4601      	mov	r1, r0
 800af72:	f7fe fbcd 	bl	8009710 <ModularInvBig>
 800af76:	4604      	mov	r4, r0
 800af78:	2800      	cmp	r0, #0
 800af7a:	d154      	bne.n	800b026 <Normalize+0x104>
 800af7c:	e00f      	b.n	800af9e <Normalize+0x7c>
 800af7e:	6851      	ldr	r1, [r2, #4]
 800af80:	6800      	ldr	r0, [r0, #0]
 800af82:	6832      	ldr	r2, [r6, #0]
 800af84:	462b      	mov	r3, r5
 800af86:	f7fe fa61 	bl	800944c <MontyMul>
 800af8a:	4604      	mov	r4, r0
 800af8c:	2800      	cmp	r0, #0
 800af8e:	d14a      	bne.n	800b026 <Normalize+0x104>
 800af90:	6878      	ldr	r0, [r7, #4]
 800af92:	6869      	ldr	r1, [r5, #4]
 800af94:	6872      	ldr	r2, [r6, #4]
 800af96:	462b      	mov	r3, r5
 800af98:	f7fe fa58 	bl	800944c <MontyMul>
 800af9c:	e7e2      	b.n	800af64 <Normalize+0x42>
 800af9e:	68b0      	ldr	r0, [r6, #8]
 800afa0:	6869      	ldr	r1, [r5, #4]
 800afa2:	4602      	mov	r2, r0
 800afa4:	462b      	mov	r3, r5
 800afa6:	f7fe fa51 	bl	800944c <MontyMul>
 800afaa:	4604      	mov	r4, r0
 800afac:	2800      	cmp	r0, #0
 800afae:	d13a      	bne.n	800b026 <Normalize+0x104>
 800afb0:	682b      	ldr	r3, [r5, #0]
 800afb2:	68ea      	ldr	r2, [r5, #12]
 800afb4:	7999      	ldrb	r1, [r3, #6]
 800afb6:	a801      	add	r0, sp, #4
 800afb8:	f7fd fcca 	bl	8008950 <StAllocBig>
 800afbc:	4604      	mov	r4, r0
 800afbe:	2800      	cmp	r0, #0
 800afc0:	d131      	bne.n	800b026 <Normalize+0x104>
 800afc2:	68b0      	ldr	r0, [r6, #8]
 800afc4:	9a01      	ldr	r2, [sp, #4]
 800afc6:	4601      	mov	r1, r0
 800afc8:	462b      	mov	r3, r5
 800afca:	f7fe fa3f 	bl	800944c <MontyMul>
 800afce:	4604      	mov	r4, r0
 800afd0:	b120      	cbz	r0, 800afdc <Normalize+0xba>
 800afd2:	a801      	add	r0, sp, #4
 800afd4:	68e9      	ldr	r1, [r5, #12]
 800afd6:	f7fd fcd6 	bl	8008986 <StFreeBig>
 800afda:	e024      	b.n	800b026 <Normalize+0x104>
 800afdc:	6830      	ldr	r0, [r6, #0]
 800afde:	9901      	ldr	r1, [sp, #4]
 800afe0:	4602      	mov	r2, r0
 800afe2:	462b      	mov	r3, r5
 800afe4:	f7fe fa32 	bl	800944c <MontyMul>
 800afe8:	68b0      	ldr	r0, [r6, #8]
 800afea:	9901      	ldr	r1, [sp, #4]
 800afec:	4602      	mov	r2, r0
 800afee:	462b      	mov	r3, r5
 800aff0:	f7fe fa2c 	bl	800944c <MontyMul>
 800aff4:	a801      	add	r0, sp, #4
 800aff6:	68e9      	ldr	r1, [r5, #12]
 800aff8:	f7fd fcc5 	bl	8008986 <StFreeBig>
 800affc:	6871      	ldr	r1, [r6, #4]
 800affe:	68b0      	ldr	r0, [r6, #8]
 800b000:	460a      	mov	r2, r1
 800b002:	462b      	mov	r3, r5
 800b004:	f7fe fa22 	bl	800944c <MontyMul>
 800b008:	4604      	mov	r4, r0
 800b00a:	b960      	cbnz	r0, 800b026 <Normalize+0x104>
 800b00c:	4629      	mov	r1, r5
 800b00e:	4630      	mov	r0, r6
 800b010:	f7ff fbd4 	bl	800a7bc <ECCpointFromMonty>
 800b014:	68b2      	ldr	r2, [r6, #8]
 800b016:	6811      	ldr	r1, [r2, #0]
 800b018:	2301      	movs	r3, #1
 800b01a:	4604      	mov	r4, r0
 800b01c:	2000      	movs	r0, #0
 800b01e:	600b      	str	r3, [r1, #0]
 800b020:	6048      	str	r0, [r1, #4]
 800b022:	8093      	strh	r3, [r2, #4]
 800b024:	7333      	strb	r3, [r6, #12]
 800b026:	4620      	mov	r0, r4
 800b028:	b003      	add	sp, #12
 800b02a:	bdf0      	pop	{r4, r5, r6, r7, pc}

0800b02c <MontyJacProjAddPoints>:
 800b02c:	e92d 43f0 	stmdb	sp!, {r4, r5, r6, r7, r8, r9, lr}
 800b030:	b087      	sub	sp, #28
 800b032:	4699      	mov	r9, r3
 800b034:	9c0e      	ldr	r4, [sp, #56]	; 0x38
 800b036:	6823      	ldr	r3, [r4, #0]
 800b038:	4688      	mov	r8, r1
 800b03a:	2100      	movs	r1, #0
 800b03c:	9103      	str	r1, [sp, #12]
 800b03e:	9104      	str	r1, [sp, #16]
 800b040:	9105      	str	r1, [sp, #20]
 800b042:	7999      	ldrb	r1, [r3, #6]
 800b044:	4607      	mov	r7, r0
 800b046:	4616      	mov	r6, r2
 800b048:	a803      	add	r0, sp, #12
 800b04a:	3101      	adds	r1, #1
 800b04c:	68e2      	ldr	r2, [r4, #12]
 800b04e:	f7fd fc7f 	bl	8008950 <StAllocBig>
 800b052:	4605      	mov	r5, r0
 800b054:	2800      	cmp	r0, #0
 800b056:	f040 8118 	bne.w	800b28a <MontyJacProjAddPoints+0x25e>
 800b05a:	6823      	ldr	r3, [r4, #0]
 800b05c:	68e2      	ldr	r2, [r4, #12]
 800b05e:	7999      	ldrb	r1, [r3, #6]
 800b060:	a804      	add	r0, sp, #16
 800b062:	3101      	adds	r1, #1
 800b064:	f7fd fc74 	bl	8008950 <StAllocBig>
 800b068:	4605      	mov	r5, r0
 800b06a:	2800      	cmp	r0, #0
 800b06c:	f040 8109 	bne.w	800b282 <MontyJacProjAddPoints+0x256>
 800b070:	6823      	ldr	r3, [r4, #0]
 800b072:	68e2      	ldr	r2, [r4, #12]
 800b074:	7999      	ldrb	r1, [r3, #6]
 800b076:	a805      	add	r0, sp, #20
 800b078:	3101      	adds	r1, #1
 800b07a:	f7fd fc69 	bl	8008950 <StAllocBig>
 800b07e:	4605      	mov	r5, r0
 800b080:	2800      	cmp	r0, #0
 800b082:	f040 80fa 	bne.w	800b27a <MontyJacProjAddPoints+0x24e>
 800b086:	7b3b      	ldrb	r3, [r7, #12]
 800b088:	f898 100c 	ldrb.w	r1, [r8, #12]
 800b08c:	f013 0f02 	tst.w	r3, #2
 800b090:	d003      	beq.n	800b09a <MontyJacProjAddPoints+0x6e>
 800b092:	078f      	lsls	r7, r1, #30
 800b094:	d479      	bmi.n	800b18a <MontyJacProjAddPoints+0x15e>
 800b096:	4640      	mov	r0, r8
 800b098:	e002      	b.n	800b0a0 <MontyJacProjAddPoints+0x74>
 800b09a:	0788      	lsls	r0, r1, #30
 800b09c:	d504      	bpl.n	800b0a8 <MontyJacProjAddPoints+0x7c>
 800b09e:	4638      	mov	r0, r7
 800b0a0:	4631      	mov	r1, r6
 800b0a2:	f7ff ff06 	bl	800aeb2 <ECCcopyPoint>
 800b0a6:	e0e4      	b.n	800b272 <MontyJacProjAddPoints+0x246>
 800b0a8:	07ca      	lsls	r2, r1, #31
 800b0aa:	d41e      	bmi.n	800b0ea <MontyJacProjAddPoints+0xbe>
 800b0ac:	f8d8 0008 	ldr.w	r0, [r8, #8]
 800b0b0:	9a03      	ldr	r2, [sp, #12]
 800b0b2:	4601      	mov	r1, r0
 800b0b4:	4623      	mov	r3, r4
 800b0b6:	f7fe f9c9 	bl	800944c <MontyMul>
 800b0ba:	4605      	mov	r5, r0
 800b0bc:	2800      	cmp	r0, #0
 800b0be:	f040 80d8 	bne.w	800b272 <MontyJacProjAddPoints+0x246>
 800b0c2:	9903      	ldr	r1, [sp, #12]
 800b0c4:	6832      	ldr	r2, [r6, #0]
 800b0c6:	6838      	ldr	r0, [r7, #0]
 800b0c8:	4623      	mov	r3, r4
 800b0ca:	f7fe f9bf 	bl	800944c <MontyMul>
 800b0ce:	9903      	ldr	r1, [sp, #12]
 800b0d0:	9a05      	ldr	r2, [sp, #20]
 800b0d2:	f8d8 0008 	ldr.w	r0, [r8, #8]
 800b0d6:	4623      	mov	r3, r4
 800b0d8:	f7fe f9b8 	bl	800944c <MontyMul>
 800b0dc:	6878      	ldr	r0, [r7, #4]
 800b0de:	9905      	ldr	r1, [sp, #20]
 800b0e0:	6872      	ldr	r2, [r6, #4]
 800b0e2:	4623      	mov	r3, r4
 800b0e4:	f7fe f9b2 	bl	800944c <MontyMul>
 800b0e8:	e00b      	b.n	800b102 <MontyJacProjAddPoints+0xd6>
 800b0ea:	6838      	ldr	r0, [r7, #0]
 800b0ec:	6831      	ldr	r1, [r6, #0]
 800b0ee:	f7fd fc6e 	bl	80089ce <CopyBig>
 800b0f2:	4605      	mov	r5, r0
 800b0f4:	2800      	cmp	r0, #0
 800b0f6:	f040 80bc 	bne.w	800b272 <MontyJacProjAddPoints+0x246>
 800b0fa:	6878      	ldr	r0, [r7, #4]
 800b0fc:	6871      	ldr	r1, [r6, #4]
 800b0fe:	f7fd fc66 	bl	80089ce <CopyBig>
 800b102:	68b8      	ldr	r0, [r7, #8]
 800b104:	9a03      	ldr	r2, [sp, #12]
 800b106:	4601      	mov	r1, r0
 800b108:	4623      	mov	r3, r4
 800b10a:	f7fe f99f 	bl	800944c <MontyMul>
 800b10e:	4605      	mov	r5, r0
 800b110:	2800      	cmp	r0, #0
 800b112:	f040 80ae 	bne.w	800b272 <MontyJacProjAddPoints+0x246>
 800b116:	9903      	ldr	r1, [sp, #12]
 800b118:	9a04      	ldr	r2, [sp, #16]
 800b11a:	f8d8 0000 	ldr.w	r0, [r8]
 800b11e:	4623      	mov	r3, r4
 800b120:	f7fe f994 	bl	800944c <MontyMul>
 800b124:	68e3      	ldr	r3, [r4, #12]
 800b126:	9804      	ldr	r0, [sp, #16]
 800b128:	9300      	str	r3, [sp, #0]
 800b12a:	6831      	ldr	r1, [r6, #0]
 800b12c:	6823      	ldr	r3, [r4, #0]
 800b12e:	4602      	mov	r2, r0
 800b130:	f7fe fabc 	bl	80096ac <ModularSubBig>
 800b134:	4605      	mov	r5, r0
 800b136:	2800      	cmp	r0, #0
 800b138:	f040 809b 	bne.w	800b272 <MontyJacProjAddPoints+0x246>
 800b13c:	9903      	ldr	r1, [sp, #12]
 800b13e:	68b8      	ldr	r0, [r7, #8]
 800b140:	460a      	mov	r2, r1
 800b142:	4623      	mov	r3, r4
 800b144:	f7fe f982 	bl	800944c <MontyMul>
 800b148:	9903      	ldr	r1, [sp, #12]
 800b14a:	f8d8 0004 	ldr.w	r0, [r8, #4]
 800b14e:	460a      	mov	r2, r1
 800b150:	4623      	mov	r3, r4
 800b152:	f7fe f97b 	bl	800944c <MontyMul>
 800b156:	68e3      	ldr	r3, [r4, #12]
 800b158:	9300      	str	r3, [sp, #0]
 800b15a:	6871      	ldr	r1, [r6, #4]
 800b15c:	9a05      	ldr	r2, [sp, #20]
 800b15e:	6823      	ldr	r3, [r4, #0]
 800b160:	9803      	ldr	r0, [sp, #12]
 800b162:	f7fe faa3 	bl	80096ac <ModularSubBig>
 800b166:	9804      	ldr	r0, [sp, #16]
 800b168:	f7fd fcc5 	bl	8008af6 <IsZeroBig>
 800b16c:	2801      	cmp	r0, #1
 800b16e:	d10e      	bne.n	800b18e <MontyJacProjAddPoints+0x162>
 800b170:	9805      	ldr	r0, [sp, #20]
 800b172:	f7fd fcc0 	bl	8008af6 <IsZeroBig>
 800b176:	2801      	cmp	r0, #1
 800b178:	d107      	bne.n	800b18a <MontyJacProjAddPoints+0x15e>
 800b17a:	4638      	mov	r0, r7
 800b17c:	4631      	mov	r1, r6
 800b17e:	464a      	mov	r2, r9
 800b180:	4623      	mov	r3, r4
 800b182:	f7ff fb3a 	bl	800a7fa <MontyJacProjDoublePoint>
 800b186:	4605      	mov	r5, r0
 800b188:	e073      	b.n	800b272 <MontyJacProjAddPoints+0x246>
 800b18a:	2302      	movs	r3, #2
 800b18c:	e070      	b.n	800b270 <MontyJacProjAddPoints+0x244>
 800b18e:	f898 300c 	ldrb.w	r3, [r8, #12]
 800b192:	68b8      	ldr	r0, [r7, #8]
 800b194:	07db      	lsls	r3, r3, #31
 800b196:	d412      	bmi.n	800b1be <MontyJacProjAddPoints+0x192>
 800b198:	f8d8 1008 	ldr.w	r1, [r8, #8]
 800b19c:	68b2      	ldr	r2, [r6, #8]
 800b19e:	4623      	mov	r3, r4
 800b1a0:	f7fe f954 	bl	800944c <MontyMul>
 800b1a4:	4605      	mov	r5, r0
 800b1a6:	2800      	cmp	r0, #0
 800b1a8:	d163      	bne.n	800b272 <MontyJacProjAddPoints+0x246>
 800b1aa:	68b0      	ldr	r0, [r6, #8]
 800b1ac:	9904      	ldr	r1, [sp, #16]
 800b1ae:	4602      	mov	r2, r0
 800b1b0:	4623      	mov	r3, r4
 800b1b2:	f7fe f94b 	bl	800944c <MontyMul>
 800b1b6:	4605      	mov	r5, r0
 800b1b8:	2800      	cmp	r0, #0
 800b1ba:	d15a      	bne.n	800b272 <MontyJacProjAddPoints+0x246>
 800b1bc:	e003      	b.n	800b1c6 <MontyJacProjAddPoints+0x19a>
 800b1be:	68b1      	ldr	r1, [r6, #8]
 800b1c0:	f7fd fc05 	bl	80089ce <CopyBig>
 800b1c4:	e7ee      	b.n	800b1a4 <MontyJacProjAddPoints+0x178>
 800b1c6:	9804      	ldr	r0, [sp, #16]
 800b1c8:	9a03      	ldr	r2, [sp, #12]
 800b1ca:	4601      	mov	r1, r0
 800b1cc:	4623      	mov	r3, r4
 800b1ce:	f7fe f93d 	bl	800944c <MontyMul>
 800b1d2:	9804      	ldr	r0, [sp, #16]
 800b1d4:	9903      	ldr	r1, [sp, #12]
 800b1d6:	4602      	mov	r2, r0
 800b1d8:	4623      	mov	r3, r4
 800b1da:	f7fe f937 	bl	800944c <MontyMul>
 800b1de:	9803      	ldr	r0, [sp, #12]
 800b1e0:	6831      	ldr	r1, [r6, #0]
 800b1e2:	4602      	mov	r2, r0
 800b1e4:	4623      	mov	r3, r4
 800b1e6:	f7fe f931 	bl	800944c <MontyMul>
 800b1ea:	6870      	ldr	r0, [r6, #4]
 800b1ec:	9904      	ldr	r1, [sp, #16]
 800b1ee:	4602      	mov	r2, r0
 800b1f0:	4623      	mov	r3, r4
 800b1f2:	f7fe f92b 	bl	800944c <MontyMul>
 800b1f6:	9805      	ldr	r0, [sp, #20]
 800b1f8:	6832      	ldr	r2, [r6, #0]
 800b1fa:	4601      	mov	r1, r0
 800b1fc:	4623      	mov	r3, r4
 800b1fe:	f7fe f925 	bl	800944c <MontyMul>
 800b202:	68e3      	ldr	r3, [r4, #12]
 800b204:	6830      	ldr	r0, [r6, #0]
 800b206:	9300      	str	r3, [sp, #0]
 800b208:	9904      	ldr	r1, [sp, #16]
 800b20a:	6823      	ldr	r3, [r4, #0]
 800b20c:	4602      	mov	r2, r0
 800b20e:	f7fe fa4d 	bl	80096ac <ModularSubBig>
 800b212:	4605      	mov	r5, r0
 800b214:	2800      	cmp	r0, #0
 800b216:	d12c      	bne.n	800b272 <MontyJacProjAddPoints+0x246>
 800b218:	9904      	ldr	r1, [sp, #16]
 800b21a:	9803      	ldr	r0, [sp, #12]
 800b21c:	f7fd fbd7 	bl	80089ce <CopyBig>
 800b220:	9804      	ldr	r0, [sp, #16]
 800b222:	6821      	ldr	r1, [r4, #0]
 800b224:	68e2      	ldr	r2, [r4, #12]
 800b226:	f7fe fa57 	bl	80096d8 <ModularFastMul2>
 800b22a:	4605      	mov	r5, r0
 800b22c:	bb08      	cbnz	r0, 800b272 <MontyJacProjAddPoints+0x246>
 800b22e:	68e3      	ldr	r3, [r4, #12]
 800b230:	6830      	ldr	r0, [r6, #0]
 800b232:	9300      	str	r3, [sp, #0]
 800b234:	9904      	ldr	r1, [sp, #16]
 800b236:	6823      	ldr	r3, [r4, #0]
 800b238:	4602      	mov	r2, r0
 800b23a:	f7fe fa37 	bl	80096ac <ModularSubBig>
 800b23e:	68e3      	ldr	r3, [r4, #12]
 800b240:	9300      	str	r3, [sp, #0]
 800b242:	6831      	ldr	r1, [r6, #0]
 800b244:	9a04      	ldr	r2, [sp, #16]
 800b246:	6823      	ldr	r3, [r4, #0]
 800b248:	9803      	ldr	r0, [sp, #12]
 800b24a:	f7fe fa2f 	bl	80096ac <ModularSubBig>
 800b24e:	9804      	ldr	r0, [sp, #16]
 800b250:	9905      	ldr	r1, [sp, #20]
 800b252:	4602      	mov	r2, r0
 800b254:	4623      	mov	r3, r4
 800b256:	f7fe f8f9 	bl	800944c <MontyMul>
 800b25a:	4605      	mov	r5, r0
 800b25c:	b948      	cbnz	r0, 800b272 <MontyJacProjAddPoints+0x246>
 800b25e:	68e3      	ldr	r3, [r4, #12]
 800b260:	6871      	ldr	r1, [r6, #4]
 800b262:	9300      	str	r3, [sp, #0]
 800b264:	6823      	ldr	r3, [r4, #0]
 800b266:	9804      	ldr	r0, [sp, #16]
 800b268:	460a      	mov	r2, r1
 800b26a:	f7fe fa1f 	bl	80096ac <ModularSubBig>
 800b26e:	2304      	movs	r3, #4
 800b270:	7333      	strb	r3, [r6, #12]
 800b272:	a805      	add	r0, sp, #20
 800b274:	68e1      	ldr	r1, [r4, #12]
 800b276:	f7fd fb86 	bl	8008986 <StFreeBig>
 800b27a:	a804      	add	r0, sp, #16
 800b27c:	68e1      	ldr	r1, [r4, #12]
 800b27e:	f7fd fb82 	bl	8008986 <StFreeBig>
 800b282:	a803      	add	r0, sp, #12
 800b284:	68e1      	ldr	r1, [r4, #12]
 800b286:	f7fd fb7e 	bl	8008986 <StFreeBig>
 800b28a:	4628      	mov	r0, r5
 800b28c:	b007      	add	sp, #28
 800b28e:	e8bd 83f0 	ldmia.w	sp!, {r4, r5, r6, r7, r8, r9, pc}
	...

0800b294 <NAF_Binary_PointMul>:
 800b294:	e92d 4ff0 	stmdb	sp!, {r4, r5, r6, r7, r8, r9, sl, fp, lr}
 800b298:	b09b      	sub	sp, #108	; 0x6c
 800b29a:	4699      	mov	r9, r3
 800b29c:	9d24      	ldr	r5, [sp, #144]	; 0x90
 800b29e:	2300      	movs	r3, #0
 800b2a0:	4607      	mov	r7, r0
 800b2a2:	460e      	mov	r6, r1
 800b2a4:	4690      	mov	r8, r2
 800b2a6:	a805      	add	r0, sp, #20
 800b2a8:	4649      	mov	r1, r9
 800b2aa:	68ea      	ldr	r2, [r5, #12]
 800b2ac:	9305      	str	r3, [sp, #20]
 800b2ae:	9306      	str	r3, [sp, #24]
 800b2b0:	9307      	str	r3, [sp, #28]
 800b2b2:	9308      	str	r3, [sp, #32]
 800b2b4:	9309      	str	r3, [sp, #36]	; 0x24
 800b2b6:	f7ff fce7 	bl	800ac88 <ECCinitPoint>
 800b2ba:	4604      	mov	r4, r0
 800b2bc:	2800      	cmp	r0, #0
 800b2be:	f040 8127 	bne.w	800b510 <NAF_Binary_PointMul+0x27c>
 800b2c2:	9905      	ldr	r1, [sp, #20]
 800b2c4:	4630      	mov	r0, r6
 800b2c6:	f7ff fdf4 	bl	800aeb2 <ECCcopyPoint>
 800b2ca:	9805      	ldr	r0, [sp, #20]
 800b2cc:	4629      	mov	r1, r5
 800b2ce:	f7ff fa55 	bl	800a77c <ECCpoint2Monty>
 800b2d2:	4604      	mov	r4, r0
 800b2d4:	2800      	cmp	r0, #0
 800b2d6:	f040 8117 	bne.w	800b508 <NAF_Binary_PointMul+0x274>
 800b2da:	79b9      	ldrb	r1, [r7, #6]
 800b2dc:	68ea      	ldr	r2, [r5, #12]
 800b2de:	a808      	add	r0, sp, #32
 800b2e0:	3101      	adds	r1, #1
 800b2e2:	f7fd fb35 	bl	8008950 <StAllocBig>
 800b2e6:	4604      	mov	r4, r0
 800b2e8:	2800      	cmp	r0, #0
 800b2ea:	f040 810d 	bne.w	800b508 <NAF_Binary_PointMul+0x274>
 800b2ee:	79b9      	ldrb	r1, [r7, #6]
 800b2f0:	68ea      	ldr	r2, [r5, #12]
 800b2f2:	a809      	add	r0, sp, #36	; 0x24
 800b2f4:	3101      	adds	r1, #1
 800b2f6:	f7fd fb2b 	bl	8008950 <StAllocBig>
 800b2fa:	4604      	mov	r4, r0
 800b2fc:	2800      	cmp	r0, #0
 800b2fe:	f040 80ff 	bne.w	800b500 <NAF_Binary_PointMul+0x26c>
 800b302:	9808      	ldr	r0, [sp, #32]
 800b304:	4e84      	ldr	r6, [pc, #528]	; (800b518 <NAF_Binary_PointMul+0x284>)
 800b306:	4621      	mov	r1, r4
 800b308:	f7fd fb4a 	bl	80089a0 <InitBig>
 800b30c:	9809      	ldr	r0, [sp, #36]	; 0x24
 800b30e:	4621      	mov	r1, r4
 800b310:	f7fd fb46 	bl	80089a0 <InitBig>
 800b314:	ce0f      	ldmia	r6!, {r0, r1, r2, r3}
 800b316:	f10d 0e28 	add.w	lr, sp, #40	; 0x28
 800b31a:	e8ae 000f 	stmia.w	lr!, {r0, r1, r2, r3}
 800b31e:	e896 000f 	ldmia.w	r6, {r0, r1, r2, r3}
 800b322:	3610      	adds	r6, #16
 800b324:	e88e 000f 	stmia.w	lr, {r0, r1, r2, r3}
 800b328:	ce0f      	ldmia	r6!, {r0, r1, r2, r3}
 800b32a:	f10d 0e48 	add.w	lr, sp, #72	; 0x48
 800b32e:	e8ae 000f 	stmia.w	lr!, {r0, r1, r2, r3}
 800b332:	e896 000f 	ldmia.w	r6, {r0, r1, r2, r3}
 800b336:	f8dd a020 	ldr.w	sl, [sp, #32]
 800b33a:	f8dd b024 	ldr.w	fp, [sp, #36]	; 0x24
 800b33e:	e88e 000f 	stmia.w	lr, {r0, r1, r2, r3}
 800b342:	4626      	mov	r6, r4
 800b344:	88bb      	ldrh	r3, [r7, #4]
 800b346:	ebb4 1f43 	cmp.w	r4, r3, lsl #5
 800b34a:	d23f      	bcs.n	800b3cc <NAF_Binary_PointMul+0x138>
 800b34c:	4621      	mov	r1, r4
 800b34e:	4638      	mov	r0, r7
 800b350:	f7fd fc7b 	bl	8008c4a <GiveBit>
 800b354:	1c62      	adds	r2, r4, #1
 800b356:	4603      	mov	r3, r0
 800b358:	4611      	mov	r1, r2
 800b35a:	4638      	mov	r0, r7
 800b35c:	9203      	str	r2, [sp, #12]
 800b35e:	9302      	str	r3, [sp, #8]
 800b360:	f7fd fc73 	bl	8008c4a <GiveBit>
 800b364:	9b02      	ldr	r3, [sp, #8]
 800b366:	9a03      	ldr	r2, [sp, #12]
 800b368:	ea40 0046 	orr.w	r0, r0, r6, lsl #1
 800b36c:	ea40 0083 	orr.w	r0, r0, r3, lsl #2
 800b370:	ab1a      	add	r3, sp, #104	; 0x68
 800b372:	eb03 0080 	add.w	r0, r3, r0, lsl #2
 800b376:	f850 3c40 	ldr.w	r3, [r0, #-64]
 800b37a:	f850 6c20 	ldr.w	r6, [r0, #-32]
 800b37e:	1c58      	adds	r0, r3, #1
 800b380:	d00e      	beq.n	800b3a0 <NAF_Binary_PointMul+0x10c>
 800b382:	2b01      	cmp	r3, #1
 800b384:	d120      	bne.n	800b3c8 <NAF_Binary_PointMul+0x134>
 800b386:	ea4f 1e54 	mov.w	lr, r4, lsr #5
 800b38a:	f8da 1000 	ldr.w	r1, [sl]
 800b38e:	f004 041f 	and.w	r4, r4, #31
 800b392:	f851 002e 	ldr.w	r0, [r1, lr, lsl #2]
 800b396:	40a3      	lsls	r3, r4
 800b398:	4318      	orrs	r0, r3
 800b39a:	f841 002e 	str.w	r0, [r1, lr, lsl #2]
 800b39e:	e013      	b.n	800b3c8 <NAF_Binary_PointMul+0x134>
 800b3a0:	0963      	lsrs	r3, r4, #5
 800b3a2:	f8da 1000 	ldr.w	r1, [sl]
 800b3a6:	2001      	movs	r0, #1
 800b3a8:	f004 041f 	and.w	r4, r4, #31
 800b3ac:	fa00 f404 	lsl.w	r4, r0, r4
 800b3b0:	f851 0023 	ldr.w	r0, [r1, r3, lsl #2]
 800b3b4:	4320      	orrs	r0, r4
 800b3b6:	f841 0023 	str.w	r0, [r1, r3, lsl #2]
 800b3ba:	f8db 0000 	ldr.w	r0, [fp]
 800b3be:	f850 1023 	ldr.w	r1, [r0, r3, lsl #2]
 800b3c2:	430c      	orrs	r4, r1
 800b3c4:	f840 4023 	str.w	r4, [r0, r3, lsl #2]
 800b3c8:	4614      	mov	r4, r2
 800b3ca:	e7bb      	b.n	800b344 <NAF_Binary_PointMul+0xb0>
 800b3cc:	aa1a      	add	r2, sp, #104	; 0x68
 800b3ce:	eb02 06c6 	add.w	r6, r2, r6, lsl #3
 800b3d2:	f856 2c40 	ldr.w	r2, [r6, #-64]
 800b3d6:	1c51      	adds	r1, r2, #1
 800b3d8:	d014      	beq.n	800b404 <NAF_Binary_PointMul+0x170>
 800b3da:	2a01      	cmp	r2, #1
 800b3dc:	d12e      	bne.n	800b43c <NAF_Binary_PointMul+0x1a8>
 800b3de:	3301      	adds	r3, #1
 800b3e0:	f8aa 3004 	strh.w	r3, [sl, #4]
 800b3e4:	88bb      	ldrh	r3, [r7, #4]
 800b3e6:	3301      	adds	r3, #1
 800b3e8:	0961      	lsrs	r1, r4, #5
 800b3ea:	f8ab 3004 	strh.w	r3, [fp, #4]
 800b3ee:	f8da 3000 	ldr.w	r3, [sl]
 800b3f2:	f004 041f 	and.w	r4, r4, #31
 800b3f6:	f853 0021 	ldr.w	r0, [r3, r1, lsl #2]
 800b3fa:	40a2      	lsls	r2, r4
 800b3fc:	4310      	orrs	r0, r2
 800b3fe:	f843 0021 	str.w	r0, [r3, r1, lsl #2]
 800b402:	e020      	b.n	800b446 <NAF_Binary_PointMul+0x1b2>
 800b404:	3301      	adds	r3, #1
 800b406:	f8aa 3004 	strh.w	r3, [sl, #4]
 800b40a:	88bb      	ldrh	r3, [r7, #4]
 800b40c:	f8da 2000 	ldr.w	r2, [sl]
 800b410:	3301      	adds	r3, #1
 800b412:	f8ab 3004 	strh.w	r3, [fp, #4]
 800b416:	0963      	lsrs	r3, r4, #5
 800b418:	2101      	movs	r1, #1
 800b41a:	f004 041f 	and.w	r4, r4, #31
 800b41e:	fa01 f404 	lsl.w	r4, r1, r4
 800b422:	f852 1023 	ldr.w	r1, [r2, r3, lsl #2]
 800b426:	4321      	orrs	r1, r4
 800b428:	f842 1023 	str.w	r1, [r2, r3, lsl #2]
 800b42c:	f8db 2000 	ldr.w	r2, [fp]
 800b430:	f852 1023 	ldr.w	r1, [r2, r3, lsl #2]
 800b434:	430c      	orrs	r4, r1
 800b436:	f842 4023 	str.w	r4, [r2, r3, lsl #2]
 800b43a:	e004      	b.n	800b446 <NAF_Binary_PointMul+0x1b2>
 800b43c:	f8aa 3004 	strh.w	r3, [sl, #4]
 800b440:	88bb      	ldrh	r3, [r7, #4]
 800b442:	f8ab 3004 	strh.w	r3, [fp, #4]
 800b446:	a806      	add	r0, sp, #24
 800b448:	4649      	mov	r1, r9
 800b44a:	68ea      	ldr	r2, [r5, #12]
 800b44c:	f7ff fc1c 	bl	800ac88 <ECCinitPoint>
 800b450:	4604      	mov	r4, r0
 800b452:	2800      	cmp	r0, #0
 800b454:	d150      	bne.n	800b4f8 <NAF_Binary_PointMul+0x264>
 800b456:	9b06      	ldr	r3, [sp, #24]
 800b458:	2202      	movs	r2, #2
 800b45a:	731a      	strb	r2, [r3, #12]
 800b45c:	a807      	add	r0, sp, #28
 800b45e:	4649      	mov	r1, r9
 800b460:	68ea      	ldr	r2, [r5, #12]
 800b462:	f7ff fc11 	bl	800ac88 <ECCinitPoint>
 800b466:	4604      	mov	r4, r0
 800b468:	2800      	cmp	r0, #0
 800b46a:	d141      	bne.n	800b4f0 <NAF_Binary_PointMul+0x25c>
 800b46c:	9805      	ldr	r0, [sp, #20]
 800b46e:	9907      	ldr	r1, [sp, #28]
 800b470:	68eb      	ldr	r3, [r5, #12]
 800b472:	464a      	mov	r2, r9
 800b474:	f7ff fd45 	bl	800af02 <ECCsymmetricPoint>
 800b478:	4604      	mov	r4, r0
 800b47a:	2800      	cmp	r0, #0
 800b47c:	d134      	bne.n	800b4e8 <NAF_Binary_PointMul+0x254>
 800b47e:	9b08      	ldr	r3, [sp, #32]
 800b480:	889e      	ldrh	r6, [r3, #4]
 800b482:	0176      	lsls	r6, r6, #5
 800b484:	3e01      	subs	r6, #1
 800b486:	1c73      	adds	r3, r6, #1
 800b488:	9806      	ldr	r0, [sp, #24]
 800b48a:	4641      	mov	r1, r8
 800b48c:	d029      	beq.n	800b4e2 <NAF_Binary_PointMul+0x24e>
 800b48e:	464a      	mov	r2, r9
 800b490:	462b      	mov	r3, r5
 800b492:	f7ff f9b2 	bl	800a7fa <MontyJacProjDoublePoint>
 800b496:	4604      	mov	r4, r0
 800b498:	bb30      	cbnz	r0, 800b4e8 <NAF_Binary_PointMul+0x254>
 800b49a:	9906      	ldr	r1, [sp, #24]
 800b49c:	4640      	mov	r0, r8
 800b49e:	f7ff fd08 	bl	800aeb2 <ECCcopyPoint>
 800b4a2:	4631      	mov	r1, r6
 800b4a4:	9808      	ldr	r0, [sp, #32]
 800b4a6:	f7fd fbd0 	bl	8008c4a <GiveBit>
 800b4aa:	4631      	mov	r1, r6
 800b4ac:	4604      	mov	r4, r0
 800b4ae:	9809      	ldr	r0, [sp, #36]	; 0x24
 800b4b0:	f7fd fbcb 	bl	8008c4a <GiveBit>
 800b4b4:	2c01      	cmp	r4, #1
 800b4b6:	d1e5      	bne.n	800b484 <NAF_Binary_PointMul+0x1f0>
 800b4b8:	b918      	cbnz	r0, 800b4c2 <NAF_Binary_PointMul+0x22e>
 800b4ba:	9500      	str	r5, [sp, #0]
 800b4bc:	9806      	ldr	r0, [sp, #24]
 800b4be:	9905      	ldr	r1, [sp, #20]
 800b4c0:	e004      	b.n	800b4cc <NAF_Binary_PointMul+0x238>
 800b4c2:	2801      	cmp	r0, #1
 800b4c4:	d1de      	bne.n	800b484 <NAF_Binary_PointMul+0x1f0>
 800b4c6:	9806      	ldr	r0, [sp, #24]
 800b4c8:	9907      	ldr	r1, [sp, #28]
 800b4ca:	9500      	str	r5, [sp, #0]
 800b4cc:	4642      	mov	r2, r8
 800b4ce:	464b      	mov	r3, r9
 800b4d0:	f7ff fdac 	bl	800b02c <MontyJacProjAddPoints>
 800b4d4:	4604      	mov	r4, r0
 800b4d6:	b938      	cbnz	r0, 800b4e8 <NAF_Binary_PointMul+0x254>
 800b4d8:	4640      	mov	r0, r8
 800b4da:	9906      	ldr	r1, [sp, #24]
 800b4dc:	f7ff fce9 	bl	800aeb2 <ECCcopyPoint>
 800b4e0:	e7d0      	b.n	800b484 <NAF_Binary_PointMul+0x1f0>
 800b4e2:	f7ff fce6 	bl	800aeb2 <ECCcopyPoint>
 800b4e6:	4604      	mov	r4, r0
 800b4e8:	a807      	add	r0, sp, #28
 800b4ea:	68e9      	ldr	r1, [r5, #12]
 800b4ec:	f7ff fc35 	bl	800ad5a <ECCfreePoint>
 800b4f0:	a806      	add	r0, sp, #24
 800b4f2:	68e9      	ldr	r1, [r5, #12]
 800b4f4:	f7ff fc31 	bl	800ad5a <ECCfreePoint>
 800b4f8:	a809      	add	r0, sp, #36	; 0x24
 800b4fa:	68e9      	ldr	r1, [r5, #12]
 800b4fc:	f7fd fa43 	bl	8008986 <StFreeBig>
 800b500:	a808      	add	r0, sp, #32
 800b502:	68e9      	ldr	r1, [r5, #12]
 800b504:	f7fd fa3f 	bl	8008986 <StFreeBig>
 800b508:	a805      	add	r0, sp, #20
 800b50a:	68e9      	ldr	r1, [r5, #12]
 800b50c:	f7ff fc25 	bl	800ad5a <ECCfreePoint>
 800b510:	4620      	mov	r0, r4
 800b512:	b01b      	add	sp, #108	; 0x6c
 800b514:	e8bd 8ff0 	ldmia.w	sp!, {r4, r5, r6, r7, r8, r9, sl, fp, pc}
 800b518:	0800ecec 	.word	0x0800ecec

0800b51c <Binary_DoublePointMul>:
 800b51c:	e92d 4ff0 	stmdb	sp!, {r4, r5, r6, r7, r8, r9, sl, fp, lr}
 800b520:	b087      	sub	sp, #28
 800b522:	4682      	mov	sl, r0
 800b524:	9d12      	ldr	r5, [sp, #72]	; 0x48
 800b526:	9e10      	ldr	r6, [sp, #64]	; 0x40
 800b528:	9f11      	ldr	r7, [sp, #68]	; 0x44
 800b52a:	4608      	mov	r0, r1
 800b52c:	4689      	mov	r9, r1
 800b52e:	4698      	mov	r8, r3
 800b530:	4629      	mov	r1, r5
 800b532:	2300      	movs	r3, #0
 800b534:	4693      	mov	fp, r2
 800b536:	9303      	str	r3, [sp, #12]
 800b538:	9304      	str	r3, [sp, #16]
 800b53a:	9305      	str	r3, [sp, #20]
 800b53c:	f7ff f91e 	bl	800a77c <ECCpoint2Monty>
 800b540:	4604      	mov	r4, r0
 800b542:	2800      	cmp	r0, #0
 800b544:	f040 8086 	bne.w	800b654 <Binary_DoublePointMul+0x138>
 800b548:	a803      	add	r0, sp, #12
 800b54a:	4639      	mov	r1, r7
 800b54c:	68ea      	ldr	r2, [r5, #12]
 800b54e:	f7ff fb9b 	bl	800ac88 <ECCinitPoint>
 800b552:	4604      	mov	r4, r0
 800b554:	2800      	cmp	r0, #0
 800b556:	d17d      	bne.n	800b654 <Binary_DoublePointMul+0x138>
 800b558:	9903      	ldr	r1, [sp, #12]
 800b55a:	4640      	mov	r0, r8
 800b55c:	f7ff fca9 	bl	800aeb2 <ECCcopyPoint>
 800b560:	9803      	ldr	r0, [sp, #12]
 800b562:	4629      	mov	r1, r5
 800b564:	f7ff f90a 	bl	800a77c <ECCpoint2Monty>
 800b568:	4604      	mov	r4, r0
 800b56a:	2800      	cmp	r0, #0
 800b56c:	d16e      	bne.n	800b64c <Binary_DoublePointMul+0x130>
 800b56e:	a805      	add	r0, sp, #20
 800b570:	4639      	mov	r1, r7
 800b572:	68ea      	ldr	r2, [r5, #12]
 800b574:	f7ff fb88 	bl	800ac88 <ECCinitPoint>
 800b578:	4604      	mov	r4, r0
 800b57a:	2800      	cmp	r0, #0
 800b57c:	d166      	bne.n	800b64c <Binary_DoublePointMul+0x130>
 800b57e:	9b05      	ldr	r3, [sp, #20]
 800b580:	68ea      	ldr	r2, [r5, #12]
 800b582:	f04f 0802 	mov.w	r8, #2
 800b586:	f883 800c 	strb.w	r8, [r3, #12]
 800b58a:	a804      	add	r0, sp, #16
 800b58c:	4639      	mov	r1, r7
 800b58e:	f7ff fb7b 	bl	800ac88 <ECCinitPoint>
 800b592:	4604      	mov	r4, r0
 800b594:	2800      	cmp	r0, #0
 800b596:	d155      	bne.n	800b644 <Binary_DoublePointMul+0x128>
 800b598:	9a04      	ldr	r2, [sp, #16]
 800b59a:	9903      	ldr	r1, [sp, #12]
 800b59c:	f882 800c 	strb.w	r8, [r2, #12]
 800b5a0:	4648      	mov	r0, r9
 800b5a2:	9500      	str	r5, [sp, #0]
 800b5a4:	463b      	mov	r3, r7
 800b5a6:	f7ff fd41 	bl	800b02c <MontyJacProjAddPoints>
 800b5aa:	4604      	mov	r4, r0
 800b5ac:	2800      	cmp	r0, #0
 800b5ae:	d145      	bne.n	800b63c <Binary_DoublePointMul+0x120>
 800b5b0:	f8ba 8004 	ldrh.w	r8, [sl, #4]
 800b5b4:	f8bb 3004 	ldrh.w	r3, [fp, #4]
 800b5b8:	4598      	cmp	r8, r3
 800b5ba:	bf38      	it	cc
 800b5bc:	4698      	movcc	r8, r3
 800b5be:	ea4f 1848 	mov.w	r8, r8, lsl #5
 800b5c2:	f108 38ff 	add.w	r8, r8, #4294967295
 800b5c6:	f1b8 3fff 	cmp.w	r8, #4294967295
 800b5ca:	9805      	ldr	r0, [sp, #20]
 800b5cc:	4631      	mov	r1, r6
 800b5ce:	d032      	beq.n	800b636 <Binary_DoublePointMul+0x11a>
 800b5d0:	463a      	mov	r2, r7
 800b5d2:	462b      	mov	r3, r5
 800b5d4:	f7ff f911 	bl	800a7fa <MontyJacProjDoublePoint>
 800b5d8:	4604      	mov	r4, r0
 800b5da:	2800      	cmp	r0, #0
 800b5dc:	d12e      	bne.n	800b63c <Binary_DoublePointMul+0x120>
 800b5de:	9905      	ldr	r1, [sp, #20]
 800b5e0:	4630      	mov	r0, r6
 800b5e2:	f7ff fc66 	bl	800aeb2 <ECCcopyPoint>
 800b5e6:	4641      	mov	r1, r8
 800b5e8:	4650      	mov	r0, sl
 800b5ea:	f7fd fb2e 	bl	8008c4a <GiveBit>
 800b5ee:	4641      	mov	r1, r8
 800b5f0:	4604      	mov	r4, r0
 800b5f2:	4658      	mov	r0, fp
 800b5f4:	f7fd fb29 	bl	8008c4a <GiveBit>
 800b5f8:	2c01      	cmp	r4, #1
 800b5fa:	d104      	bne.n	800b606 <Binary_DoublePointMul+0xea>
 800b5fc:	b9a8      	cbnz	r0, 800b62a <Binary_DoublePointMul+0x10e>
 800b5fe:	9500      	str	r5, [sp, #0]
 800b600:	9805      	ldr	r0, [sp, #20]
 800b602:	4649      	mov	r1, r9
 800b604:	e006      	b.n	800b614 <Binary_DoublePointMul+0xf8>
 800b606:	2c00      	cmp	r4, #0
 800b608:	d1db      	bne.n	800b5c2 <Binary_DoublePointMul+0xa6>
 800b60a:	2801      	cmp	r0, #1
 800b60c:	d1d9      	bne.n	800b5c2 <Binary_DoublePointMul+0xa6>
 800b60e:	9805      	ldr	r0, [sp, #20]
 800b610:	9903      	ldr	r1, [sp, #12]
 800b612:	9500      	str	r5, [sp, #0]
 800b614:	4632      	mov	r2, r6
 800b616:	463b      	mov	r3, r7
 800b618:	f7ff fd08 	bl	800b02c <MontyJacProjAddPoints>
 800b61c:	4604      	mov	r4, r0
 800b61e:	b968      	cbnz	r0, 800b63c <Binary_DoublePointMul+0x120>
 800b620:	4630      	mov	r0, r6
 800b622:	9905      	ldr	r1, [sp, #20]
 800b624:	f7ff fc45 	bl	800aeb2 <ECCcopyPoint>
 800b628:	e7cb      	b.n	800b5c2 <Binary_DoublePointMul+0xa6>
 800b62a:	2801      	cmp	r0, #1
 800b62c:	d1c9      	bne.n	800b5c2 <Binary_DoublePointMul+0xa6>
 800b62e:	9500      	str	r5, [sp, #0]
 800b630:	9805      	ldr	r0, [sp, #20]
 800b632:	9904      	ldr	r1, [sp, #16]
 800b634:	e7ee      	b.n	800b614 <Binary_DoublePointMul+0xf8>
 800b636:	f7ff fc3c 	bl	800aeb2 <ECCcopyPoint>
 800b63a:	4604      	mov	r4, r0
 800b63c:	a804      	add	r0, sp, #16
 800b63e:	68e9      	ldr	r1, [r5, #12]
 800b640:	f7ff fb8b 	bl	800ad5a <ECCfreePoint>
 800b644:	a805      	add	r0, sp, #20
 800b646:	68e9      	ldr	r1, [r5, #12]
 800b648:	f7ff fb87 	bl	800ad5a <ECCfreePoint>
 800b64c:	a803      	add	r0, sp, #12
 800b64e:	68e9      	ldr	r1, [r5, #12]
 800b650:	f7ff fb83 	bl	800ad5a <ECCfreePoint>
 800b654:	4620      	mov	r0, r4
 800b656:	b007      	add	sp, #28
 800b658:	e8bd 8ff0 	ldmia.w	sp!, {r4, r5, r6, r7, r8, r9, sl, fp, pc}

0800b65c <ECCinitPrivKey>:
 800b65c:	b5f8      	push	{r3, r4, r5, r6, r7, lr}
 800b65e:	4605      	mov	r5, r0
 800b660:	b341      	cbz	r1, 800b6b4 <ECCinitPrivKey+0x58>
 800b662:	b33a      	cbz	r2, 800b6b4 <ECCinitPrivKey+0x58>
 800b664:	b330      	cbz	r0, 800b6b4 <ECCinitPrivKey+0x58>
 800b666:	6b0c      	ldr	r4, [r1, #48]	; 0x30
 800b668:	b33c      	cbz	r4, 800b6ba <ECCinitPrivKey+0x5e>
 800b66a:	6810      	ldr	r0, [r2, #0]
 800b66c:	b328      	cbz	r0, 800b6ba <ECCinitPrivKey+0x5e>
 800b66e:	68e6      	ldr	r6, [r4, #12]
 800b670:	b31e      	cbz	r6, 800b6ba <ECCinitPrivKey+0x5e>
 800b672:	88d4      	ldrh	r4, [r2, #6]
 800b674:	f896 c006 	ldrb.w	ip, [r6, #6]
 800b678:	8897      	ldrh	r7, [r2, #4]
 800b67a:	f104 0610 	add.w	r6, r4, #16
 800b67e:	eb06 068c 	add.w	r6, r6, ip, lsl #2
 800b682:	42b7      	cmp	r7, r6
 800b684:	d202      	bcs.n	800b68c <ECCinitPrivKey+0x30>
 800b686:	f240 34ed 	movw	r4, #1005	; 0x3ed
 800b68a:	e018      	b.n	800b6be <ECCinitPrivKey+0x62>
 800b68c:	4420      	add	r0, r4
 800b68e:	6028      	str	r0, [r5, #0]
 800b690:	2800      	cmp	r0, #0
 800b692:	d0f8      	beq.n	800b686 <ECCinitPrivKey+0x2a>
 800b694:	6b0b      	ldr	r3, [r1, #48]	; 0x30
 800b696:	3404      	adds	r4, #4
 800b698:	68db      	ldr	r3, [r3, #12]
 800b69a:	80d4      	strh	r4, [r2, #6]
 800b69c:	7999      	ldrb	r1, [r3, #6]
 800b69e:	f7fd f957 	bl	8008950 <StAllocBig>
 800b6a2:	4604      	mov	r4, r0
 800b6a4:	2800      	cmp	r0, #0
 800b6a6:	d1ee      	bne.n	800b686 <ECCinitPrivKey+0x2a>
 800b6a8:	682b      	ldr	r3, [r5, #0]
 800b6aa:	4621      	mov	r1, r4
 800b6ac:	6818      	ldr	r0, [r3, #0]
 800b6ae:	f7fd f977 	bl	80089a0 <InitBig>
 800b6b2:	e004      	b.n	800b6be <ECCinitPrivKey+0x62>
 800b6b4:	f241 4454 	movw	r4, #5204	; 0x1454
 800b6b8:	e001      	b.n	800b6be <ECCinitPrivKey+0x62>
 800b6ba:	f241 4453 	movw	r4, #5203	; 0x1453
 800b6be:	4620      	mov	r0, r4
 800b6c0:	bdf8      	pop	{r3, r4, r5, r6, r7, pc}

0800b6c2 <ECCfreePrivKey>:
 800b6c2:	b538      	push	{r3, r4, r5, lr}
 800b6c4:	460d      	mov	r5, r1
 800b6c6:	4604      	mov	r4, r0
 800b6c8:	b150      	cbz	r0, 800b6e0 <ECCfreePrivKey+0x1e>
 800b6ca:	b149      	cbz	r1, 800b6e0 <ECCfreePrivKey+0x1e>
 800b6cc:	6800      	ldr	r0, [r0, #0]
 800b6ce:	b150      	cbz	r0, 800b6e6 <ECCfreePrivKey+0x24>
 800b6d0:	f7fd f959 	bl	8008986 <StFreeBig>
 800b6d4:	88eb      	ldrh	r3, [r5, #6]
 800b6d6:	2000      	movs	r0, #0
 800b6d8:	3b04      	subs	r3, #4
 800b6da:	80eb      	strh	r3, [r5, #6]
 800b6dc:	6020      	str	r0, [r4, #0]
 800b6de:	bd38      	pop	{r3, r4, r5, pc}
 800b6e0:	f241 4054 	movw	r0, #5204	; 0x1454
 800b6e4:	bd38      	pop	{r3, r4, r5, pc}
 800b6e6:	f241 4056 	movw	r0, #5206	; 0x1456
 800b6ea:	bd38      	pop	{r3, r4, r5, pc}

0800b6ec <ECCsetPrivKeyValue>:
 800b6ec:	b508      	push	{r3, lr}
 800b6ee:	b140      	cbz	r0, 800b702 <ECCsetPrivKeyValue+0x16>
 800b6f0:	b139      	cbz	r1, 800b702 <ECCsetPrivKeyValue+0x16>
 800b6f2:	6803      	ldr	r3, [r0, #0]
 800b6f4:	b143      	cbz	r3, 800b708 <ECCsetPrivKeyValue+0x1c>
 800b6f6:	4608      	mov	r0, r1
 800b6f8:	4611      	mov	r1, r2
 800b6fa:	461a      	mov	r2, r3
 800b6fc:	f7fd fada 	bl	8008cb4 <W8_to_Big>
 800b700:	bd08      	pop	{r3, pc}
 800b702:	f241 4054 	movw	r0, #5204	; 0x1454
 800b706:	bd08      	pop	{r3, pc}
 800b708:	f241 4056 	movw	r0, #5206	; 0x1456
 800b70c:	bd08      	pop	{r3, pc}
	...

0800b710 <ECCgetPrivKeyValue>:
 800b710:	b537      	push	{r0, r1, r2, r4, r5, lr}
 800b712:	2300      	movs	r3, #0
 800b714:	460c      	mov	r4, r1
 800b716:	4615      	mov	r5, r2
 800b718:	9301      	str	r3, [sp, #4]
 800b71a:	2800      	cmp	r0, #0
 800b71c:	d035      	beq.n	800b78a <ECCgetPrivKeyValue+0x7a>
 800b71e:	2900      	cmp	r1, #0
 800b720:	d033      	beq.n	800b78a <ECCgetPrivKeyValue+0x7a>
 800b722:	2a00      	cmp	r2, #0
 800b724:	d031      	beq.n	800b78a <ECCgetPrivKeyValue+0x7a>
 800b726:	6800      	ldr	r0, [r0, #0]
 800b728:	7982      	ldrb	r2, [r0, #6]
 800b72a:	0092      	lsls	r2, r2, #2
 800b72c:	602a      	str	r2, [r5, #0]
 800b72e:	f7fd fb45 	bl	8008dbc <Big_to_fixedW8>
 800b732:	4b18      	ldr	r3, [pc, #96]	; (800b794 <ECCgetPrivKeyValue+0x84>)
 800b734:	2201      	movs	r2, #1
 800b736:	601a      	str	r2, [r3, #0]
 800b738:	681b      	ldr	r3, [r3, #0]
 800b73a:	9301      	str	r3, [sp, #4]
 800b73c:	4b16      	ldr	r3, [pc, #88]	; (800b798 <ECCgetPrivKeyValue+0x88>)
 800b73e:	681a      	ldr	r2, [r3, #0]
 800b740:	9201      	str	r2, [sp, #4]
 800b742:	9a01      	ldr	r2, [sp, #4]
 800b744:	3201      	adds	r2, #1
 800b746:	d105      	bne.n	800b754 <ECCgetPrivKeyValue+0x44>
 800b748:	9a01      	ldr	r2, [sp, #4]
 800b74a:	601a      	str	r2, [r3, #0]
 800b74c:	681b      	ldr	r3, [r3, #0]
 800b74e:	9301      	str	r3, [sp, #4]
 800b750:	9b01      	ldr	r3, [sp, #4]
 800b752:	b1a3      	cbz	r3, 800b77e <ECCgetPrivKeyValue+0x6e>
 800b754:	7823      	ldrb	r3, [r4, #0]
 800b756:	f003 035f 	and.w	r3, r3, #95	; 0x5f
 800b75a:	7023      	strb	r3, [r4, #0]
 800b75c:	682a      	ldr	r2, [r5, #0]
 800b75e:	3a01      	subs	r2, #1
 800b760:	1052      	asrs	r2, r2, #1
 800b762:	f083 0355 	eor.w	r3, r3, #85	; 0x55
 800b766:	54a3      	strb	r3, [r4, r2]
 800b768:	682b      	ldr	r3, [r5, #0]
 800b76a:	7822      	ldrb	r2, [r4, #0]
 800b76c:	3b01      	subs	r3, #1
 800b76e:	f062 0255 	orn	r2, r2, #85	; 0x55
 800b772:	5ce1      	ldrb	r1, [r4, r3]
 800b774:	404a      	eors	r2, r1
 800b776:	54e2      	strb	r2, [r4, r3]
 800b778:	682b      	ldr	r3, [r5, #0]
 800b77a:	105b      	asrs	r3, r3, #1
 800b77c:	602b      	str	r3, [r5, #0]
 800b77e:	2800      	cmp	r0, #0
 800b780:	f241 40bf 	movw	r0, #5311	; 0x14bf
 800b784:	bf08      	it	eq
 800b786:	2000      	moveq	r0, #0
 800b788:	e001      	b.n	800b78e <ECCgetPrivKeyValue+0x7e>
 800b78a:	f241 4054 	movw	r0, #5204	; 0x1454
 800b78e:	b003      	add	sp, #12
 800b790:	bd30      	pop	{r4, r5, pc}
 800b792:	bf00      	nop
 800b794:	40023008 	.word	0x40023008
 800b798:	40023000 	.word	0x40023000

0800b79c <ECCscalarMul>:
 800b79c:	e92d 41f0 	stmdb	sp!, {r4, r5, r6, r7, r8, lr}
 800b7a0:	b086      	sub	sp, #24
 800b7a2:	4614      	mov	r4, r2
 800b7a4:	460e      	mov	r6, r1
 800b7a6:	461f      	mov	r7, r3
 800b7a8:	9a0c      	ldr	r2, [sp, #48]	; 0x30
 800b7aa:	4680      	mov	r8, r0
 800b7ac:	2800      	cmp	r0, #0
 800b7ae:	d04b      	beq.n	800b848 <ECCscalarMul+0xac>
 800b7b0:	2900      	cmp	r1, #0
 800b7b2:	d049      	beq.n	800b848 <ECCscalarMul+0xac>
 800b7b4:	2c00      	cmp	r4, #0
 800b7b6:	d047      	beq.n	800b848 <ECCscalarMul+0xac>
 800b7b8:	2b00      	cmp	r3, #0
 800b7ba:	d045      	beq.n	800b848 <ECCscalarMul+0xac>
 800b7bc:	2a00      	cmp	r2, #0
 800b7be:	d043      	beq.n	800b848 <ECCscalarMul+0xac>
 800b7c0:	6b1b      	ldr	r3, [r3, #48]	; 0x30
 800b7c2:	2b00      	cmp	r3, #0
 800b7c4:	d043      	beq.n	800b84e <ECCscalarMul+0xb2>
 800b7c6:	6898      	ldr	r0, [r3, #8]
 800b7c8:	2800      	cmp	r0, #0
 800b7ca:	d043      	beq.n	800b854 <ECCscalarMul+0xb8>
 800b7cc:	681b      	ldr	r3, [r3, #0]
 800b7ce:	2b00      	cmp	r3, #0
 800b7d0:	d040      	beq.n	800b854 <ECCscalarMul+0xb8>
 800b7d2:	680b      	ldr	r3, [r1, #0]
 800b7d4:	2b00      	cmp	r3, #0
 800b7d6:	d040      	beq.n	800b85a <ECCscalarMul+0xbe>
 800b7d8:	681b      	ldr	r3, [r3, #0]
 800b7da:	2b00      	cmp	r3, #0
 800b7dc:	d03d      	beq.n	800b85a <ECCscalarMul+0xbe>
 800b7de:	ad02      	add	r5, sp, #8
 800b7e0:	4629      	mov	r1, r5
 800b7e2:	f7fd fd80 	bl	80092e6 <MontyInit>
 800b7e6:	2800      	cmp	r0, #0
 800b7e8:	d141      	bne.n	800b86e <ECCscalarMul+0xd2>
 800b7ea:	9500      	str	r5, [sp, #0]
 800b7ec:	6830      	ldr	r0, [r6, #0]
 800b7ee:	4641      	mov	r1, r8
 800b7f0:	4622      	mov	r2, r4
 800b7f2:	463b      	mov	r3, r7
 800b7f4:	f7ff fd4e 	bl	800b294 <NAF_Binary_PointMul>
 800b7f8:	b118      	cbz	r0, 800b802 <ECCscalarMul+0x66>
 800b7fa:	4628      	mov	r0, r5
 800b7fc:	f7fd fe1a 	bl	8009434 <MontyKillAll>
 800b800:	e02e      	b.n	800b860 <ECCscalarMul+0xc4>
 800b802:	4620      	mov	r0, r4
 800b804:	4621      	mov	r1, r4
 800b806:	462a      	mov	r2, r5
 800b808:	f7ff fb8b 	bl	800af22 <Normalize>
 800b80c:	4606      	mov	r6, r0
 800b80e:	4628      	mov	r0, r5
 800b810:	f7fd fe10 	bl	8009434 <MontyKillAll>
 800b814:	bb26      	cbnz	r6, 800b860 <ECCscalarMul+0xc4>
 800b816:	7b23      	ldrb	r3, [r4, #12]
 800b818:	f003 0302 	and.w	r3, r3, #2
 800b81c:	f003 00ff 	and.w	r0, r3, #255	; 0xff
 800b820:	bb0b      	cbnz	r3, 800b866 <ECCscalarMul+0xca>
 800b822:	4b14      	ldr	r3, [pc, #80]	; (800b874 <ECCscalarMul+0xd8>)
 800b824:	2201      	movs	r2, #1
 800b826:	7322      	strb	r2, [r4, #12]
 800b828:	601a      	str	r2, [r3, #0]
 800b82a:	681b      	ldr	r3, [r3, #0]
 800b82c:	4b12      	ldr	r3, [pc, #72]	; (800b878 <ECCscalarMul+0xdc>)
 800b82e:	681a      	ldr	r2, [r3, #0]
 800b830:	1c51      	adds	r1, r2, #1
 800b832:	d102      	bne.n	800b83a <ECCscalarMul+0x9e>
 800b834:	601a      	str	r2, [r3, #0]
 800b836:	681b      	ldr	r3, [r3, #0]
 800b838:	b1c3      	cbz	r3, 800b86c <ECCscalarMul+0xd0>
 800b83a:	e894 000c 	ldmia.w	r4, {r2, r3}
 800b83e:	6023      	str	r3, [r4, #0]
 800b840:	68a3      	ldr	r3, [r4, #8]
 800b842:	6063      	str	r3, [r4, #4]
 800b844:	60a2      	str	r2, [r4, #8]
 800b846:	e012      	b.n	800b86e <ECCscalarMul+0xd2>
 800b848:	f241 4054 	movw	r0, #5204	; 0x1454
 800b84c:	e00f      	b.n	800b86e <ECCscalarMul+0xd2>
 800b84e:	f241 4053 	movw	r0, #5203	; 0x1453
 800b852:	e00c      	b.n	800b86e <ECCscalarMul+0xd2>
 800b854:	f241 4057 	movw	r0, #5207	; 0x1457
 800b858:	e009      	b.n	800b86e <ECCscalarMul+0xd2>
 800b85a:	f241 4056 	movw	r0, #5206	; 0x1456
 800b85e:	e006      	b.n	800b86e <ECCscalarMul+0xd2>
 800b860:	f241 40bf 	movw	r0, #5311	; 0x14bf
 800b864:	e003      	b.n	800b86e <ECCscalarMul+0xd2>
 800b866:	f241 4058 	movw	r0, #5208	; 0x1458
 800b86a:	e000      	b.n	800b86e <ECCscalarMul+0xd2>
 800b86c:	4618      	mov	r0, r3
 800b86e:	b006      	add	sp, #24
 800b870:	e8bd 81f0 	ldmia.w	sp!, {r4, r5, r6, r7, r8, pc}
 800b874:	40023008 	.word	0x40023008
 800b878:	40023000 	.word	0x40023000

0800b87c <ECCsetPointGenerator>:
 800b87c:	b573      	push	{r0, r1, r4, r5, r6, lr}
 800b87e:	2300      	movs	r3, #0
 800b880:	460e      	mov	r6, r1
 800b882:	9301      	str	r3, [sp, #4]
 800b884:	4604      	mov	r4, r0
 800b886:	2800      	cmp	r0, #0
 800b888:	d035      	beq.n	800b8f6 <ECCsetPointGenerator+0x7a>
 800b88a:	2900      	cmp	r1, #0
 800b88c:	d033      	beq.n	800b8f6 <ECCsetPointGenerator+0x7a>
 800b88e:	6b0b      	ldr	r3, [r1, #48]	; 0x30
 800b890:	2b00      	cmp	r3, #0
 800b892:	d033      	beq.n	800b8fc <ECCsetPointGenerator+0x80>
 800b894:	6918      	ldr	r0, [r3, #16]
 800b896:	2800      	cmp	r0, #0
 800b898:	d030      	beq.n	800b8fc <ECCsetPointGenerator+0x80>
 800b89a:	695b      	ldr	r3, [r3, #20]
 800b89c:	2b00      	cmp	r3, #0
 800b89e:	d02d      	beq.n	800b8fc <ECCsetPointGenerator+0x80>
 800b8a0:	6821      	ldr	r1, [r4, #0]
 800b8a2:	f7fd f894 	bl	80089ce <CopyBig>
 800b8a6:	4605      	mov	r5, r0
 800b8a8:	2800      	cmp	r0, #0
 800b8aa:	d129      	bne.n	800b900 <ECCsetPointGenerator+0x84>
 800b8ac:	6b33      	ldr	r3, [r6, #48]	; 0x30
 800b8ae:	6861      	ldr	r1, [r4, #4]
 800b8b0:	6958      	ldr	r0, [r3, #20]
 800b8b2:	f7fd f88c 	bl	80089ce <CopyBig>
 800b8b6:	4605      	mov	r5, r0
 800b8b8:	bb10      	cbnz	r0, 800b900 <ECCsetPointGenerator+0x84>
 800b8ba:	68a0      	ldr	r0, [r4, #8]
 800b8bc:	2101      	movs	r1, #1
 800b8be:	f7fd f86f 	bl	80089a0 <InitBig>
 800b8c2:	4b11      	ldr	r3, [pc, #68]	; (800b908 <ECCsetPointGenerator+0x8c>)
 800b8c4:	2201      	movs	r2, #1
 800b8c6:	601a      	str	r2, [r3, #0]
 800b8c8:	681b      	ldr	r3, [r3, #0]
 800b8ca:	9301      	str	r3, [sp, #4]
 800b8cc:	4b0f      	ldr	r3, [pc, #60]	; (800b90c <ECCsetPointGenerator+0x90>)
 800b8ce:	681a      	ldr	r2, [r3, #0]
 800b8d0:	9201      	str	r2, [sp, #4]
 800b8d2:	9a01      	ldr	r2, [sp, #4]
 800b8d4:	3201      	adds	r2, #1
 800b8d6:	d105      	bne.n	800b8e4 <ECCsetPointGenerator+0x68>
 800b8d8:	9a01      	ldr	r2, [sp, #4]
 800b8da:	601a      	str	r2, [r3, #0]
 800b8dc:	681b      	ldr	r3, [r3, #0]
 800b8de:	9301      	str	r3, [sp, #4]
 800b8e0:	9b01      	ldr	r3, [sp, #4]
 800b8e2:	b12b      	cbz	r3, 800b8f0 <ECCsetPointGenerator+0x74>
 800b8e4:	e894 000c 	ldmia.w	r4, {r2, r3}
 800b8e8:	6023      	str	r3, [r4, #0]
 800b8ea:	68a3      	ldr	r3, [r4, #8]
 800b8ec:	6063      	str	r3, [r4, #4]
 800b8ee:	60a2      	str	r2, [r4, #8]
 800b8f0:	2301      	movs	r3, #1
 800b8f2:	7323      	strb	r3, [r4, #12]
 800b8f4:	e004      	b.n	800b900 <ECCsetPointGenerator+0x84>
 800b8f6:	f241 4554 	movw	r5, #5204	; 0x1454
 800b8fa:	e001      	b.n	800b900 <ECCsetPointGenerator+0x84>
 800b8fc:	f241 4553 	movw	r5, #5203	; 0x1453
 800b900:	4628      	mov	r0, r5
 800b902:	b002      	add	sp, #8
 800b904:	bd70      	pop	{r4, r5, r6, pc}
 800b906:	bf00      	nop
 800b908:	40023008 	.word	0x40023008
 800b90c:	40023000 	.word	0x40023000

0800b910 <ECDSAinitSign>:
 800b910:	b5f8      	push	{r3, r4, r5, r6, r7, lr}
 800b912:	4605      	mov	r5, r0
 800b914:	4614      	mov	r4, r2
 800b916:	460e      	mov	r6, r1
 800b918:	b359      	cbz	r1, 800b972 <ECDSAinitSign+0x62>
 800b91a:	b352      	cbz	r2, 800b972 <ECDSAinitSign+0x62>
 800b91c:	b348      	cbz	r0, 800b972 <ECDSAinitSign+0x62>
 800b91e:	6b0b      	ldr	r3, [r1, #48]	; 0x30
 800b920:	b353      	cbz	r3, 800b978 <ECDSAinitSign+0x68>
 800b922:	6810      	ldr	r0, [r2, #0]
 800b924:	b340      	cbz	r0, 800b978 <ECDSAinitSign+0x68>
 800b926:	68df      	ldr	r7, [r3, #12]
 800b928:	b337      	cbz	r7, 800b978 <ECDSAinitSign+0x68>
 800b92a:	88d1      	ldrh	r1, [r2, #6]
 800b92c:	79bf      	ldrb	r7, [r7, #6]
 800b92e:	f8b2 c004 	ldrh.w	ip, [r2, #4]
 800b932:	f101 0308 	add.w	r3, r1, #8
 800b936:	3703      	adds	r7, #3
 800b938:	eb03 07c7 	add.w	r7, r3, r7, lsl #3
 800b93c:	45bc      	cmp	ip, r7
 800b93e:	d315      	bcc.n	800b96c <ECDSAinitSign+0x5c>
 800b940:	4408      	add	r0, r1
 800b942:	6028      	str	r0, [r5, #0]
 800b944:	80d3      	strh	r3, [r2, #6]
 800b946:	6b33      	ldr	r3, [r6, #48]	; 0x30
 800b948:	68db      	ldr	r3, [r3, #12]
 800b94a:	7999      	ldrb	r1, [r3, #6]
 800b94c:	f7fd f800 	bl	8008950 <StAllocBig>
 800b950:	b960      	cbnz	r0, 800b96c <ECDSAinitSign+0x5c>
 800b952:	6b33      	ldr	r3, [r6, #48]	; 0x30
 800b954:	6828      	ldr	r0, [r5, #0]
 800b956:	68db      	ldr	r3, [r3, #12]
 800b958:	3004      	adds	r0, #4
 800b95a:	7999      	ldrb	r1, [r3, #6]
 800b95c:	4622      	mov	r2, r4
 800b95e:	f7fc fff7 	bl	8008950 <StAllocBig>
 800b962:	b158      	cbz	r0, 800b97c <ECDSAinitSign+0x6c>
 800b964:	6828      	ldr	r0, [r5, #0]
 800b966:	4621      	mov	r1, r4
 800b968:	f7fd f80d 	bl	8008986 <StFreeBig>
 800b96c:	f240 30ed 	movw	r0, #1005	; 0x3ed
 800b970:	bdf8      	pop	{r3, r4, r5, r6, r7, pc}
 800b972:	f241 4054 	movw	r0, #5204	; 0x1454
 800b976:	bdf8      	pop	{r3, r4, r5, r6, r7, pc}
 800b978:	f241 4053 	movw	r0, #5203	; 0x1453
 800b97c:	bdf8      	pop	{r3, r4, r5, r6, r7, pc}

0800b97e <ECDSAfreeSign>:
 800b97e:	b538      	push	{r3, r4, r5, lr}
 800b980:	460d      	mov	r5, r1
 800b982:	4604      	mov	r4, r0
 800b984:	b178      	cbz	r0, 800b9a6 <ECDSAfreeSign+0x28>
 800b986:	b171      	cbz	r1, 800b9a6 <ECDSAfreeSign+0x28>
 800b988:	6800      	ldr	r0, [r0, #0]
 800b98a:	b160      	cbz	r0, 800b9a6 <ECDSAfreeSign+0x28>
 800b98c:	f7fc fffb 	bl	8008986 <StFreeBig>
 800b990:	6820      	ldr	r0, [r4, #0]
 800b992:	4629      	mov	r1, r5
 800b994:	3004      	adds	r0, #4
 800b996:	f7fc fff6 	bl	8008986 <StFreeBig>
 800b99a:	88eb      	ldrh	r3, [r5, #6]
 800b99c:	2000      	movs	r0, #0
 800b99e:	3b08      	subs	r3, #8
 800b9a0:	80eb      	strh	r3, [r5, #6]
 800b9a2:	6020      	str	r0, [r4, #0]
 800b9a4:	bd38      	pop	{r3, r4, r5, pc}
 800b9a6:	f241 4054 	movw	r0, #5204	; 0x1454
 800b9aa:	bd38      	pop	{r3, r4, r5, pc}

0800b9ac <ECDSAsetSignature>:
 800b9ac:	b570      	push	{r4, r5, r6, lr}
 800b9ae:	460d      	mov	r5, r1
 800b9b0:	4614      	mov	r4, r2
 800b9b2:	4619      	mov	r1, r3
 800b9b4:	b170      	cbz	r0, 800b9d4 <ECDSAsetSignature+0x28>
 800b9b6:	b16a      	cbz	r2, 800b9d4 <ECDSAsetSignature+0x28>
 800b9b8:	6806      	ldr	r6, [r0, #0]
 800b9ba:	b15e      	cbz	r6, 800b9d4 <ECDSAsetSignature+0x28>
 800b9bc:	6842      	ldr	r2, [r0, #4]
 800b9be:	b14a      	cbz	r2, 800b9d4 <ECDSAsetSignature+0x28>
 800b9c0:	b11d      	cbz	r5, 800b9ca <ECDSAsetSignature+0x1e>
 800b9c2:	2d01      	cmp	r5, #1
 800b9c4:	d106      	bne.n	800b9d4 <ECDSAsetSignature+0x28>
 800b9c6:	4620      	mov	r0, r4
 800b9c8:	e001      	b.n	800b9ce <ECDSAsetSignature+0x22>
 800b9ca:	4620      	mov	r0, r4
 800b9cc:	4632      	mov	r2, r6
 800b9ce:	f7fd f971 	bl	8008cb4 <W8_to_Big>
 800b9d2:	bd70      	pop	{r4, r5, r6, pc}
 800b9d4:	f241 4054 	movw	r0, #5204	; 0x1454
 800b9d8:	bd70      	pop	{r4, r5, r6, pc}
	...

0800b9dc <ECDSAgetSignature>:
 800b9dc:	b537      	push	{r0, r1, r2, r4, r5, lr}
 800b9de:	461d      	mov	r5, r3
 800b9e0:	2300      	movs	r3, #0
 800b9e2:	4614      	mov	r4, r2
 800b9e4:	9301      	str	r3, [sp, #4]
 800b9e6:	2800      	cmp	r0, #0
 800b9e8:	d046      	beq.n	800ba78 <ECDSAgetSignature+0x9c>
 800b9ea:	2a00      	cmp	r2, #0
 800b9ec:	d044      	beq.n	800ba78 <ECDSAgetSignature+0x9c>
 800b9ee:	2d00      	cmp	r5, #0
 800b9f0:	d042      	beq.n	800ba78 <ECDSAgetSignature+0x9c>
 800b9f2:	6803      	ldr	r3, [r0, #0]
 800b9f4:	2b00      	cmp	r3, #0
 800b9f6:	d03f      	beq.n	800ba78 <ECDSAgetSignature+0x9c>
 800b9f8:	6840      	ldr	r0, [r0, #4]
 800b9fa:	2800      	cmp	r0, #0
 800b9fc:	d03c      	beq.n	800ba78 <ECDSAgetSignature+0x9c>
 800b9fe:	799a      	ldrb	r2, [r3, #6]
 800ba00:	0092      	lsls	r2, r2, #2
 800ba02:	602a      	str	r2, [r5, #0]
 800ba04:	b111      	cbz	r1, 800ba0c <ECDSAgetSignature+0x30>
 800ba06:	2901      	cmp	r1, #1
 800ba08:	d001      	beq.n	800ba0e <ECDSAgetSignature+0x32>
 800ba0a:	e004      	b.n	800ba16 <ECDSAgetSignature+0x3a>
 800ba0c:	4618      	mov	r0, r3
 800ba0e:	4621      	mov	r1, r4
 800ba10:	f7fd f9d4 	bl	8008dbc <Big_to_fixedW8>
 800ba14:	e001      	b.n	800ba1a <ECDSAgetSignature+0x3e>
 800ba16:	f241 4054 	movw	r0, #5204	; 0x1454
 800ba1a:	4b19      	ldr	r3, [pc, #100]	; (800ba80 <ECDSAgetSignature+0xa4>)
 800ba1c:	2201      	movs	r2, #1
 800ba1e:	601a      	str	r2, [r3, #0]
 800ba20:	681b      	ldr	r3, [r3, #0]
 800ba22:	9301      	str	r3, [sp, #4]
 800ba24:	4b17      	ldr	r3, [pc, #92]	; (800ba84 <ECDSAgetSignature+0xa8>)
 800ba26:	681a      	ldr	r2, [r3, #0]
 800ba28:	9201      	str	r2, [sp, #4]
 800ba2a:	9a01      	ldr	r2, [sp, #4]
 800ba2c:	3201      	adds	r2, #1
 800ba2e:	d105      	bne.n	800ba3c <ECDSAgetSignature+0x60>
 800ba30:	9a01      	ldr	r2, [sp, #4]
 800ba32:	601a      	str	r2, [r3, #0]
 800ba34:	681b      	ldr	r3, [r3, #0]
 800ba36:	9301      	str	r3, [sp, #4]
 800ba38:	9b01      	ldr	r3, [sp, #4]
 800ba3a:	b1ab      	cbz	r3, 800ba68 <ECDSAgetSignature+0x8c>
 800ba3c:	7823      	ldrb	r3, [r4, #0]
 800ba3e:	f003 035f 	and.w	r3, r3, #95	; 0x5f
 800ba42:	7023      	strb	r3, [r4, #0]
 800ba44:	682a      	ldr	r2, [r5, #0]
 800ba46:	3a01      	subs	r2, #1
 800ba48:	1052      	asrs	r2, r2, #1
 800ba4a:	f083 0355 	eor.w	r3, r3, #85	; 0x55
 800ba4e:	54a3      	strb	r3, [r4, r2]
 800ba50:	682b      	ldr	r3, [r5, #0]
 800ba52:	7822      	ldrb	r2, [r4, #0]
 800ba54:	3b01      	subs	r3, #1
 800ba56:	f062 0255 	orn	r2, r2, #85	; 0x55
 800ba5a:	5ce1      	ldrb	r1, [r4, r3]
 800ba5c:	404a      	eors	r2, r1
 800ba5e:	54e2      	strb	r2, [r4, r3]
 800ba60:	682b      	ldr	r3, [r5, #0]
 800ba62:	105b      	asrs	r3, r3, #1
 800ba64:	602b      	str	r3, [r5, #0]
 800ba66:	e007      	b.n	800ba78 <ECDSAgetSignature+0x9c>
 800ba68:	b140      	cbz	r0, 800ba7c <ECDSAgetSignature+0xa0>
 800ba6a:	f241 4354 	movw	r3, #5204	; 0x1454
 800ba6e:	4298      	cmp	r0, r3
 800ba70:	bf18      	it	ne
 800ba72:	f241 40bf 	movwne	r0, #5311	; 0x14bf
 800ba76:	d101      	bne.n	800ba7c <ECDSAgetSignature+0xa0>
 800ba78:	f241 4054 	movw	r0, #5204	; 0x1454
 800ba7c:	b003      	add	sp, #12
 800ba7e:	bd30      	pop	{r4, r5, pc}
 800ba80:	40023008 	.word	0x40023008
 800ba84:	40023000 	.word	0x40023000

0800ba88 <ECDSAverify>:
 800ba88:	e92d 47f0 	stmdb	sp!, {r4, r5, r6, r7, r8, r9, sl, lr}
 800ba8c:	b08c      	sub	sp, #48	; 0x30
 800ba8e:	461d      	mov	r5, r3
 800ba90:	2300      	movs	r3, #0
 800ba92:	4689      	mov	r9, r1
 800ba94:	4690      	mov	r8, r2
 800ba96:	9e14      	ldr	r6, [sp, #80]	; 0x50
 800ba98:	9304      	str	r3, [sp, #16]
 800ba9a:	9305      	str	r3, [sp, #20]
 800ba9c:	9306      	str	r3, [sp, #24]
 800ba9e:	9307      	str	r3, [sp, #28]
 800baa0:	4607      	mov	r7, r0
 800baa2:	2800      	cmp	r0, #0
 800baa4:	f000 8160 	beq.w	800bd68 <ECDSAverify+0x2e0>
 800baa8:	2a00      	cmp	r2, #0
 800baaa:	f000 815d 	beq.w	800bd68 <ECDSAverify+0x2e0>
 800baae:	2d00      	cmp	r5, #0
 800bab0:	f000 815a 	beq.w	800bd68 <ECDSAverify+0x2e0>
 800bab4:	2e00      	cmp	r6, #0
 800bab6:	f000 8157 	beq.w	800bd68 <ECDSAverify+0x2e0>
 800baba:	686b      	ldr	r3, [r5, #4]
 800babc:	2b00      	cmp	r3, #0
 800babe:	f000 8156 	beq.w	800bd6e <ECDSAverify+0x2e6>
 800bac2:	682a      	ldr	r2, [r5, #0]
 800bac4:	2a00      	cmp	r2, #0
 800bac6:	f000 8152 	beq.w	800bd6e <ECDSAverify+0x2e6>
 800baca:	6b1b      	ldr	r3, [r3, #48]	; 0x30
 800bacc:	2b00      	cmp	r3, #0
 800bace:	f000 814e 	beq.w	800bd6e <ECDSAverify+0x2e6>
 800bad2:	6832      	ldr	r2, [r6, #0]
 800bad4:	2a00      	cmp	r2, #0
 800bad6:	f000 814a 	beq.w	800bd6e <ECDSAverify+0x2e6>
 800bada:	f8d8 0000 	ldr.w	r0, [r8]
 800bade:	2800      	cmp	r0, #0
 800bae0:	f000 8145 	beq.w	800bd6e <ECDSAverify+0x2e6>
 800bae4:	f8d8 2004 	ldr.w	r2, [r8, #4]
 800bae8:	2a00      	cmp	r2, #0
 800baea:	f000 8140 	beq.w	800bd6e <ECDSAverify+0x2e6>
 800baee:	68da      	ldr	r2, [r3, #12]
 800baf0:	2a00      	cmp	r2, #0
 800baf2:	f000 813f 	beq.w	800bd74 <ECDSAverify+0x2ec>
 800baf6:	6919      	ldr	r1, [r3, #16]
 800baf8:	2900      	cmp	r1, #0
 800bafa:	f000 813b 	beq.w	800bd74 <ECDSAverify+0x2ec>
 800bafe:	6959      	ldr	r1, [r3, #20]
 800bb00:	2900      	cmp	r1, #0
 800bb02:	f000 8137 	beq.w	800bd74 <ECDSAverify+0x2ec>
 800bb06:	6899      	ldr	r1, [r3, #8]
 800bb08:	2900      	cmp	r1, #0
 800bb0a:	f000 8133 	beq.w	800bd74 <ECDSAverify+0x2ec>
 800bb0e:	681b      	ldr	r3, [r3, #0]
 800bb10:	2b00      	cmp	r3, #0
 800bb12:	f000 812f 	beq.w	800bd74 <ECDSAverify+0x2ec>
 800bb16:	f8b6 c006 	ldrh.w	ip, [r6, #6]
 800bb1a:	f891 a006 	ldrb.w	sl, [r1, #6]
 800bb1e:	7994      	ldrb	r4, [r2, #6]
 800bb20:	88b2      	ldrh	r2, [r6, #4]
 800bb22:	f50c 7ca0 	add.w	ip, ip, #320	; 0x140
 800bb26:	213c      	movs	r1, #60	; 0x3c
 800bb28:	fb11 c10a 	smlabb	r1, r1, sl, ip
 800bb2c:	2314      	movs	r3, #20
 800bb2e:	fb13 1304 	smlabb	r3, r3, r4, r1
 800bb32:	429a      	cmp	r2, r3
 800bb34:	f0c0 8121 	bcc.w	800bd7a <ECDSAverify+0x2f2>
 800bb38:	f7fc ffdd 	bl	8008af6 <IsZeroBig>
 800bb3c:	b110      	cbz	r0, 800bb44 <ECDSAverify+0xbc>
 800bb3e:	f44f 747b 	mov.w	r4, #1004	; 0x3ec
 800bb42:	e11c      	b.n	800bd7e <ECDSAverify+0x2f6>
 800bb44:	686b      	ldr	r3, [r5, #4]
 800bb46:	f8d8 0000 	ldr.w	r0, [r8]
 800bb4a:	6b1b      	ldr	r3, [r3, #48]	; 0x30
 800bb4c:	68d9      	ldr	r1, [r3, #12]
 800bb4e:	f7fc fffd 	bl	8008b4c <CompareBig>
 800bb52:	3001      	adds	r0, #1
 800bb54:	d1f3      	bne.n	800bb3e <ECDSAverify+0xb6>
 800bb56:	f8d8 0004 	ldr.w	r0, [r8, #4]
 800bb5a:	f7fc ffcc 	bl	8008af6 <IsZeroBig>
 800bb5e:	2800      	cmp	r0, #0
 800bb60:	d1ed      	bne.n	800bb3e <ECDSAverify+0xb6>
 800bb62:	686b      	ldr	r3, [r5, #4]
 800bb64:	f8d8 0004 	ldr.w	r0, [r8, #4]
 800bb68:	6b1b      	ldr	r3, [r3, #48]	; 0x30
 800bb6a:	68d9      	ldr	r1, [r3, #12]
 800bb6c:	f7fc ffee 	bl	8008b4c <CompareBig>
 800bb70:	3001      	adds	r0, #1
 800bb72:	d1e4      	bne.n	800bb3e <ECDSAverify+0xb6>
 800bb74:	686b      	ldr	r3, [r5, #4]
 800bb76:	6b1b      	ldr	r3, [r3, #48]	; 0x30
 800bb78:	68db      	ldr	r3, [r3, #12]
 800bb7a:	a804      	add	r0, sp, #16
 800bb7c:	7999      	ldrb	r1, [r3, #6]
 800bb7e:	4632      	mov	r2, r6
 800bb80:	f7fc fee6 	bl	8008950 <StAllocBig>
 800bb84:	4604      	mov	r4, r0
 800bb86:	2800      	cmp	r0, #0
 800bb88:	f040 80f9 	bne.w	800bd7e <ECDSAverify+0x2f6>
 800bb8c:	686b      	ldr	r3, [r5, #4]
 800bb8e:	6b1b      	ldr	r3, [r3, #48]	; 0x30
 800bb90:	68d8      	ldr	r0, [r3, #12]
 800bb92:	f7fd f824 	bl	8008bde <CountBits>
 800bb96:	ebb0 0fc9 	cmp.w	r0, r9, lsl #3
 800bb9a:	da1b      	bge.n	800bbd4 <ECDSAverify+0x14c>
 800bb9c:	686b      	ldr	r3, [r5, #4]
 800bb9e:	6b1b      	ldr	r3, [r3, #48]	; 0x30
 800bba0:	68d8      	ldr	r0, [r3, #12]
 800bba2:	f7fd f81c 	bl	8008bde <CountBits>
 800bba6:	2308      	movs	r3, #8
 800bba8:	3007      	adds	r0, #7
 800bbaa:	fb90 f4f3 	sdiv	r4, r0, r3
 800bbae:	4621      	mov	r1, r4
 800bbb0:	9a04      	ldr	r2, [sp, #16]
 800bbb2:	4638      	mov	r0, r7
 800bbb4:	f7fd f87e 	bl	8008cb4 <W8_to_Big>
 800bbb8:	686b      	ldr	r3, [r5, #4]
 800bbba:	f8dd 9010 	ldr.w	r9, [sp, #16]
 800bbbe:	6b1b      	ldr	r3, [r3, #48]	; 0x30
 800bbc0:	4607      	mov	r7, r0
 800bbc2:	68d8      	ldr	r0, [r3, #12]
 800bbc4:	f7fd f80b 	bl	8008bde <CountBits>
 800bbc8:	ebc0 01c4 	rsb	r1, r0, r4, lsl #3
 800bbcc:	4648      	mov	r0, r9
 800bbce:	f7fd f9e8 	bl	8008fa2 <RightShift>
 800bbd2:	e005      	b.n	800bbe0 <ECDSAverify+0x158>
 800bbd4:	4638      	mov	r0, r7
 800bbd6:	4649      	mov	r1, r9
 800bbd8:	9a04      	ldr	r2, [sp, #16]
 800bbda:	f7fd f86b 	bl	8008cb4 <W8_to_Big>
 800bbde:	4607      	mov	r7, r0
 800bbe0:	2f00      	cmp	r7, #0
 800bbe2:	f040 80ba 	bne.w	800bd5a <ECDSAverify+0x2d2>
 800bbe6:	686b      	ldr	r3, [r5, #4]
 800bbe8:	6b1b      	ldr	r3, [r3, #48]	; 0x30
 800bbea:	68db      	ldr	r3, [r3, #12]
 800bbec:	a805      	add	r0, sp, #20
 800bbee:	7999      	ldrb	r1, [r3, #6]
 800bbf0:	4632      	mov	r2, r6
 800bbf2:	f7fc fead 	bl	8008950 <StAllocBig>
 800bbf6:	4604      	mov	r4, r0
 800bbf8:	2800      	cmp	r0, #0
 800bbfa:	f040 80b0 	bne.w	800bd5e <ECDSAverify+0x2d6>
 800bbfe:	686b      	ldr	r3, [r5, #4]
 800bc00:	f8d8 0004 	ldr.w	r0, [r8, #4]
 800bc04:	6b1b      	ldr	r3, [r3, #48]	; 0x30
 800bc06:	9905      	ldr	r1, [sp, #20]
 800bc08:	68da      	ldr	r2, [r3, #12]
 800bc0a:	4633      	mov	r3, r6
 800bc0c:	f7fd fd80 	bl	8009710 <ModularInvBig>
 800bc10:	2800      	cmp	r0, #0
 800bc12:	f040 809b 	bne.w	800bd4c <ECDSAverify+0x2c4>
 800bc16:	686b      	ldr	r3, [r5, #4]
 800bc18:	6b1b      	ldr	r3, [r3, #48]	; 0x30
 800bc1a:	af08      	add	r7, sp, #32
 800bc1c:	68d8      	ldr	r0, [r3, #12]
 800bc1e:	4639      	mov	r1, r7
 800bc20:	4632      	mov	r2, r6
 800bc22:	f7fd fb60 	bl	80092e6 <MontyInit>
 800bc26:	4604      	mov	r4, r0
 800bc28:	2800      	cmp	r0, #0
 800bc2a:	f040 8091 	bne.w	800bd50 <ECDSAverify+0x2c8>
 800bc2e:	9805      	ldr	r0, [sp, #20]
 800bc30:	9909      	ldr	r1, [sp, #36]	; 0x24
 800bc32:	4602      	mov	r2, r0
 800bc34:	463b      	mov	r3, r7
 800bc36:	f7fd fc09 	bl	800944c <MontyMul>
 800bc3a:	4604      	mov	r4, r0
 800bc3c:	4638      	mov	r0, r7
 800bc3e:	2c00      	cmp	r4, #0
 800bc40:	f040 8081 	bne.w	800bd46 <ECDSAverify+0x2be>
 800bc44:	f7fd fbef 	bl	8009426 <MontyKillR2>
 800bc48:	9804      	ldr	r0, [sp, #16]
 800bc4a:	9905      	ldr	r1, [sp, #20]
 800bc4c:	4602      	mov	r2, r0
 800bc4e:	463b      	mov	r3, r7
 800bc50:	f7fd fbfc 	bl	800944c <MontyMul>
 800bc54:	4604      	mov	r4, r0
 800bc56:	2800      	cmp	r0, #0
 800bc58:	d17a      	bne.n	800bd50 <ECDSAverify+0x2c8>
 800bc5a:	9905      	ldr	r1, [sp, #20]
 800bc5c:	f8d8 0000 	ldr.w	r0, [r8]
 800bc60:	460a      	mov	r2, r1
 800bc62:	463b      	mov	r3, r7
 800bc64:	f7fd fbf2 	bl	800944c <MontyMul>
 800bc68:	4604      	mov	r4, r0
 800bc6a:	2800      	cmp	r0, #0
 800bc6c:	d170      	bne.n	800bd50 <ECDSAverify+0x2c8>
 800bc6e:	4638      	mov	r0, r7
 800bc70:	f7fd fbe0 	bl	8009434 <MontyKillAll>
 800bc74:	686b      	ldr	r3, [r5, #4]
 800bc76:	6b1b      	ldr	r3, [r3, #48]	; 0x30
 800bc78:	4639      	mov	r1, r7
 800bc7a:	6898      	ldr	r0, [r3, #8]
 800bc7c:	4632      	mov	r2, r6
 800bc7e:	f7fd fb32 	bl	80092e6 <MontyInit>
 800bc82:	4604      	mov	r4, r0
 800bc84:	2800      	cmp	r0, #0
 800bc86:	d163      	bne.n	800bd50 <ECDSAverify+0x2c8>
 800bc88:	a806      	add	r0, sp, #24
 800bc8a:	6869      	ldr	r1, [r5, #4]
 800bc8c:	4632      	mov	r2, r6
 800bc8e:	f7fe fffb 	bl	800ac88 <ECCinitPoint>
 800bc92:	4604      	mov	r4, r0
 800bc94:	2800      	cmp	r0, #0
 800bc96:	d155      	bne.n	800bd44 <ECDSAverify+0x2bc>
 800bc98:	9806      	ldr	r0, [sp, #24]
 800bc9a:	6869      	ldr	r1, [r5, #4]
 800bc9c:	f7ff fdee 	bl	800b87c <ECCsetPointGenerator>
 800bca0:	4604      	mov	r4, r0
 800bca2:	2800      	cmp	r0, #0
 800bca4:	d14a      	bne.n	800bd3c <ECDSAverify+0x2b4>
 800bca6:	a807      	add	r0, sp, #28
 800bca8:	6869      	ldr	r1, [r5, #4]
 800bcaa:	4632      	mov	r2, r6
 800bcac:	f7fe ffec 	bl	800ac88 <ECCinitPoint>
 800bcb0:	4604      	mov	r4, r0
 800bcb2:	2800      	cmp	r0, #0
 800bcb4:	d13e      	bne.n	800bd34 <ECDSAverify+0x2ac>
 800bcb6:	9b07      	ldr	r3, [sp, #28]
 800bcb8:	9300      	str	r3, [sp, #0]
 800bcba:	686b      	ldr	r3, [r5, #4]
 800bcbc:	9301      	str	r3, [sp, #4]
 800bcbe:	9702      	str	r7, [sp, #8]
 800bcc0:	9804      	ldr	r0, [sp, #16]
 800bcc2:	9906      	ldr	r1, [sp, #24]
 800bcc4:	9a05      	ldr	r2, [sp, #20]
 800bcc6:	682b      	ldr	r3, [r5, #0]
 800bcc8:	f7ff fc28 	bl	800b51c <Binary_DoublePointMul>
 800bccc:	4604      	mov	r4, r0
 800bcce:	2800      	cmp	r0, #0
 800bcd0:	d130      	bne.n	800bd34 <ECDSAverify+0x2ac>
 800bcd2:	9807      	ldr	r0, [sp, #28]
 800bcd4:	463a      	mov	r2, r7
 800bcd6:	4601      	mov	r1, r0
 800bcd8:	f7ff f923 	bl	800af22 <Normalize>
 800bcdc:	bb28      	cbnz	r0, 800bd2a <ECDSAverify+0x2a2>
 800bcde:	9b07      	ldr	r3, [sp, #28]
 800bce0:	7b1b      	ldrb	r3, [r3, #12]
 800bce2:	2b02      	cmp	r3, #2
 800bce4:	d024      	beq.n	800bd30 <ECDSAverify+0x2a8>
 800bce6:	686b      	ldr	r3, [r5, #4]
 800bce8:	6b1a      	ldr	r2, [r3, #48]	; 0x30
 800bcea:	9b07      	ldr	r3, [sp, #28]
 800bcec:	68d1      	ldr	r1, [r2, #12]
 800bcee:	6818      	ldr	r0, [r3, #0]
 800bcf0:	f7fc ff2c 	bl	8008b4c <CompareBig>
 800bcf4:	2800      	cmp	r0, #0
 800bcf6:	9b07      	ldr	r3, [sp, #28]
 800bcf8:	db0b      	blt.n	800bd12 <ECDSAverify+0x28a>
 800bcfa:	6818      	ldr	r0, [r3, #0]
 800bcfc:	686b      	ldr	r3, [r5, #4]
 800bcfe:	6b1b      	ldr	r3, [r3, #48]	; 0x30
 800bd00:	4602      	mov	r2, r0
 800bd02:	68d9      	ldr	r1, [r3, #12]
 800bd04:	4633      	mov	r3, r6
 800bd06:	f7fd fa90 	bl	800922a <SubBig>
 800bd0a:	4604      	mov	r4, r0
 800bd0c:	2800      	cmp	r0, #0
 800bd0e:	d0ea      	beq.n	800bce6 <ECDSAverify+0x25e>
 800bd10:	e010      	b.n	800bd34 <ECDSAverify+0x2ac>
 800bd12:	f8d8 0000 	ldr.w	r0, [r8]
 800bd16:	6819      	ldr	r1, [r3, #0]
 800bd18:	f7fc ff18 	bl	8008b4c <CompareBig>
 800bd1c:	f240 34eb 	movw	r4, #1003	; 0x3eb
 800bd20:	2800      	cmp	r0, #0
 800bd22:	bf18      	it	ne
 800bd24:	f44f 747b 	movne.w	r4, #1004	; 0x3ec
 800bd28:	e004      	b.n	800bd34 <ECDSAverify+0x2ac>
 800bd2a:	f241 44bf 	movw	r4, #5311	; 0x14bf
 800bd2e:	e001      	b.n	800bd34 <ECDSAverify+0x2ac>
 800bd30:	f44f 747b 	mov.w	r4, #1004	; 0x3ec
 800bd34:	a807      	add	r0, sp, #28
 800bd36:	4631      	mov	r1, r6
 800bd38:	f7ff f80f 	bl	800ad5a <ECCfreePoint>
 800bd3c:	a806      	add	r0, sp, #24
 800bd3e:	4631      	mov	r1, r6
 800bd40:	f7ff f80b 	bl	800ad5a <ECCfreePoint>
 800bd44:	4638      	mov	r0, r7
 800bd46:	f7fd fb75 	bl	8009434 <MontyKillAll>
 800bd4a:	e001      	b.n	800bd50 <ECDSAverify+0x2c8>
 800bd4c:	f241 44bf 	movw	r4, #5311	; 0x14bf
 800bd50:	a805      	add	r0, sp, #20
 800bd52:	4631      	mov	r1, r6
 800bd54:	f7fc fe17 	bl	8008986 <StFreeBig>
 800bd58:	e001      	b.n	800bd5e <ECDSAverify+0x2d6>
 800bd5a:	f241 44bf 	movw	r4, #5311	; 0x14bf
 800bd5e:	a804      	add	r0, sp, #16
 800bd60:	4631      	mov	r1, r6
 800bd62:	f7fc fe10 	bl	8008986 <StFreeBig>
 800bd66:	e00a      	b.n	800bd7e <ECDSAverify+0x2f6>
 800bd68:	f241 4454 	movw	r4, #5204	; 0x1454
 800bd6c:	e007      	b.n	800bd7e <ECDSAverify+0x2f6>
 800bd6e:	f241 4453 	movw	r4, #5203	; 0x1453
 800bd72:	e004      	b.n	800bd7e <ECDSAverify+0x2f6>
 800bd74:	f241 4457 	movw	r4, #5207	; 0x1457
 800bd78:	e001      	b.n	800bd7e <ECDSAverify+0x2f6>
 800bd7a:	f240 34ed 	movw	r4, #1005	; 0x3ed
 800bd7e:	4620      	mov	r0, r4
 800bd80:	b00c      	add	sp, #48	; 0x30
 800bd82:	e8bd 87f0 	ldmia.w	sp!, {r4, r5, r6, r7, r8, r9, sl, pc}

0800bd86 <ECCkeyGen>:
 800bd86:	e92d 41ff 	stmdb	sp!, {r0, r1, r2, r3, r4, r5, r6, r7, r8, lr}
 800bd8a:	461d      	mov	r5, r3
 800bd8c:	2300      	movs	r3, #0
 800bd8e:	4688      	mov	r8, r1
 800bd90:	4617      	mov	r7, r2
 800bd92:	9c0a      	ldr	r4, [sp, #40]	; 0x28
 800bd94:	9303      	str	r3, [sp, #12]
 800bd96:	4606      	mov	r6, r0
 800bd98:	2800      	cmp	r0, #0
 800bd9a:	d054      	beq.n	800be46 <ECCkeyGen+0xc0>
 800bd9c:	2900      	cmp	r1, #0
 800bd9e:	d052      	beq.n	800be46 <ECCkeyGen+0xc0>
 800bda0:	2a00      	cmp	r2, #0
 800bda2:	d050      	beq.n	800be46 <ECCkeyGen+0xc0>
 800bda4:	2d00      	cmp	r5, #0
 800bda6:	d04e      	beq.n	800be46 <ECCkeyGen+0xc0>
 800bda8:	2c00      	cmp	r4, #0
 800bdaa:	d04c      	beq.n	800be46 <ECCkeyGen+0xc0>
 800bdac:	6b2b      	ldr	r3, [r5, #48]	; 0x30
 800bdae:	2b00      	cmp	r3, #0
 800bdb0:	d04c      	beq.n	800be4c <ECCkeyGen+0xc6>
 800bdb2:	68da      	ldr	r2, [r3, #12]
 800bdb4:	2a00      	cmp	r2, #0
 800bdb6:	d04c      	beq.n	800be52 <ECCkeyGen+0xcc>
 800bdb8:	691a      	ldr	r2, [r3, #16]
 800bdba:	2a00      	cmp	r2, #0
 800bdbc:	d049      	beq.n	800be52 <ECCkeyGen+0xcc>
 800bdbe:	695a      	ldr	r2, [r3, #20]
 800bdc0:	2a00      	cmp	r2, #0
 800bdc2:	d046      	beq.n	800be52 <ECCkeyGen+0xcc>
 800bdc4:	689a      	ldr	r2, [r3, #8]
 800bdc6:	2a00      	cmp	r2, #0
 800bdc8:	d043      	beq.n	800be52 <ECCkeyGen+0xcc>
 800bdca:	681b      	ldr	r3, [r3, #0]
 800bdcc:	2b00      	cmp	r3, #0
 800bdce:	d040      	beq.n	800be52 <ECCkeyGen+0xcc>
 800bdd0:	6823      	ldr	r3, [r4, #0]
 800bdd2:	2b00      	cmp	r3, #0
 800bdd4:	d040      	beq.n	800be58 <ECCkeyGen+0xd2>
 800bdd6:	88e1      	ldrh	r1, [r4, #6]
 800bdd8:	7990      	ldrb	r0, [r2, #6]
 800bdda:	88a2      	ldrh	r2, [r4, #4]
 800bddc:	3134      	adds	r1, #52	; 0x34
 800bdde:	230c      	movs	r3, #12
 800bde0:	fb13 1300 	smlabb	r3, r3, r0, r1
 800bde4:	429a      	cmp	r2, r3
 800bde6:	d337      	bcc.n	800be58 <ECCkeyGen+0xd2>
 800bde8:	6b2b      	ldr	r3, [r5, #48]	; 0x30
 800bdea:	6830      	ldr	r0, [r6, #0]
 800bdec:	68d9      	ldr	r1, [r3, #12]
 800bdee:	463a      	mov	r2, r7
 800bdf0:	f7fe fcab 	bl	800a74a <GenRndBNmodN>
 800bdf4:	b140      	cbz	r0, 800be08 <ECCkeyGen+0x82>
 800bdf6:	f241 7371 	movw	r3, #6001	; 0x1771
 800bdfa:	f241 727b 	movw	r2, #6011	; 0x177b
 800bdfe:	4298      	cmp	r0, r3
 800be00:	bf0c      	ite	eq
 800be02:	4618      	moveq	r0, r3
 800be04:	4610      	movne	r0, r2
 800be06:	e029      	b.n	800be5c <ECCkeyGen+0xd6>
 800be08:	6830      	ldr	r0, [r6, #0]
 800be0a:	f7fc fe74 	bl	8008af6 <IsZeroBig>
 800be0e:	2800      	cmp	r0, #0
 800be10:	d1ea      	bne.n	800bde8 <ECCkeyGen+0x62>
 800be12:	a803      	add	r0, sp, #12
 800be14:	4629      	mov	r1, r5
 800be16:	4622      	mov	r2, r4
 800be18:	f7fe ff36 	bl	800ac88 <ECCinitPoint>
 800be1c:	b9f0      	cbnz	r0, 800be5c <ECCkeyGen+0xd6>
 800be1e:	9803      	ldr	r0, [sp, #12]
 800be20:	4629      	mov	r1, r5
 800be22:	f7ff fd2b 	bl	800b87c <ECCsetPointGenerator>
 800be26:	4607      	mov	r7, r0
 800be28:	b938      	cbnz	r0, 800be3a <ECCkeyGen+0xb4>
 800be2a:	9400      	str	r4, [sp, #0]
 800be2c:	9803      	ldr	r0, [sp, #12]
 800be2e:	4631      	mov	r1, r6
 800be30:	4642      	mov	r2, r8
 800be32:	462b      	mov	r3, r5
 800be34:	f7ff fcb2 	bl	800b79c <ECCscalarMul>
 800be38:	4607      	mov	r7, r0
 800be3a:	a803      	add	r0, sp, #12
 800be3c:	4621      	mov	r1, r4
 800be3e:	f7fe ff8c 	bl	800ad5a <ECCfreePoint>
 800be42:	4638      	mov	r0, r7
 800be44:	e00a      	b.n	800be5c <ECCkeyGen+0xd6>
 800be46:	f241 4054 	movw	r0, #5204	; 0x1454
 800be4a:	e007      	b.n	800be5c <ECCkeyGen+0xd6>
 800be4c:	f241 4053 	movw	r0, #5203	; 0x1453
 800be50:	e004      	b.n	800be5c <ECCkeyGen+0xd6>
 800be52:	f241 4057 	movw	r0, #5207	; 0x1457
 800be56:	e001      	b.n	800be5c <ECCkeyGen+0xd6>
 800be58:	f240 30ed 	movw	r0, #1005	; 0x3ed
 800be5c:	b004      	add	sp, #16
 800be5e:	e8bd 81f0 	ldmia.w	sp!, {r4, r5, r6, r7, r8, pc}

0800be62 <ECDSAsign>:
 800be62:	e92d 4ff0 	stmdb	sp!, {r4, r5, r6, r7, r8, r9, sl, fp, lr}
 800be66:	b08d      	sub	sp, #52	; 0x34
 800be68:	461e      	mov	r6, r3
 800be6a:	2300      	movs	r3, #0
 800be6c:	4688      	mov	r8, r1
 800be6e:	4691      	mov	r9, r2
 800be70:	9d16      	ldr	r5, [sp, #88]	; 0x58
 800be72:	9302      	str	r3, [sp, #8]
 800be74:	9303      	str	r3, [sp, #12]
 800be76:	9304      	str	r3, [sp, #16]
 800be78:	9305      	str	r3, [sp, #20]
 800be7a:	9306      	str	r3, [sp, #24]
 800be7c:	9307      	str	r3, [sp, #28]
 800be7e:	4682      	mov	sl, r0
 800be80:	2800      	cmp	r0, #0
 800be82:	f000 81ad 	beq.w	800c1e0 <ECDSAsign+0x37e>
 800be86:	2a00      	cmp	r2, #0
 800be88:	f000 81aa 	beq.w	800c1e0 <ECDSAsign+0x37e>
 800be8c:	2e00      	cmp	r6, #0
 800be8e:	f000 81a7 	beq.w	800c1e0 <ECDSAsign+0x37e>
 800be92:	2d00      	cmp	r5, #0
 800be94:	f000 81a4 	beq.w	800c1e0 <ECDSAsign+0x37e>
 800be98:	6873      	ldr	r3, [r6, #4]
 800be9a:	2b00      	cmp	r3, #0
 800be9c:	f000 81a3 	beq.w	800c1e6 <ECDSAsign+0x384>
 800bea0:	6832      	ldr	r2, [r6, #0]
 800bea2:	2a00      	cmp	r2, #0
 800bea4:	f000 819f 	beq.w	800c1e6 <ECDSAsign+0x384>
 800bea8:	68b2      	ldr	r2, [r6, #8]
 800beaa:	2a00      	cmp	r2, #0
 800beac:	f000 819b 	beq.w	800c1e6 <ECDSAsign+0x384>
 800beb0:	682a      	ldr	r2, [r5, #0]
 800beb2:	2a00      	cmp	r2, #0
 800beb4:	f000 8197 	beq.w	800c1e6 <ECDSAsign+0x384>
 800beb8:	6b1b      	ldr	r3, [r3, #48]	; 0x30
 800beba:	2b00      	cmp	r3, #0
 800bebc:	f000 8193 	beq.w	800c1e6 <ECDSAsign+0x384>
 800bec0:	68da      	ldr	r2, [r3, #12]
 800bec2:	2a00      	cmp	r2, #0
 800bec4:	f000 8192 	beq.w	800c1ec <ECDSAsign+0x38a>
 800bec8:	6919      	ldr	r1, [r3, #16]
 800beca:	2900      	cmp	r1, #0
 800becc:	f000 818e 	beq.w	800c1ec <ECDSAsign+0x38a>
 800bed0:	6959      	ldr	r1, [r3, #20]
 800bed2:	2900      	cmp	r1, #0
 800bed4:	f000 818a 	beq.w	800c1ec <ECDSAsign+0x38a>
 800bed8:	6899      	ldr	r1, [r3, #8]
 800beda:	2900      	cmp	r1, #0
 800bedc:	f000 8186 	beq.w	800c1ec <ECDSAsign+0x38a>
 800bee0:	681b      	ldr	r3, [r3, #0]
 800bee2:	2b00      	cmp	r3, #0
 800bee4:	f000 8182 	beq.w	800c1ec <ECDSAsign+0x38a>
 800bee8:	88e8      	ldrh	r0, [r5, #6]
 800beea:	798c      	ldrb	r4, [r1, #6]
 800beec:	7991      	ldrb	r1, [r2, #6]
 800beee:	88aa      	ldrh	r2, [r5, #4]
 800bef0:	309c      	adds	r0, #156	; 0x9c
 800bef2:	2318      	movs	r3, #24
 800bef4:	fb13 0304 	smlabb	r3, r3, r4, r0
 800bef8:	eb03 1301 	add.w	r3, r3, r1, lsl #4
 800befc:	429a      	cmp	r2, r3
 800befe:	f0c0 8178 	bcc.w	800c1f2 <ECDSAsign+0x390>
 800bf02:	a802      	add	r0, sp, #8
 800bf04:	3101      	adds	r1, #1
 800bf06:	462a      	mov	r2, r5
 800bf08:	f7fc fd22 	bl	8008950 <StAllocBig>
 800bf0c:	4604      	mov	r4, r0
 800bf0e:	2800      	cmp	r0, #0
 800bf10:	f040 8171 	bne.w	800c1f6 <ECDSAsign+0x394>
 800bf14:	6873      	ldr	r3, [r6, #4]
 800bf16:	6b1b      	ldr	r3, [r3, #48]	; 0x30
 800bf18:	68db      	ldr	r3, [r3, #12]
 800bf1a:	a803      	add	r0, sp, #12
 800bf1c:	7999      	ldrb	r1, [r3, #6]
 800bf1e:	462a      	mov	r2, r5
 800bf20:	f7fc fd16 	bl	8008950 <StAllocBig>
 800bf24:	4604      	mov	r4, r0
 800bf26:	2800      	cmp	r0, #0
 800bf28:	f040 8151 	bne.w	800c1ce <ECDSAsign+0x36c>
 800bf2c:	a807      	add	r0, sp, #28
 800bf2e:	6871      	ldr	r1, [r6, #4]
 800bf30:	462a      	mov	r2, r5
 800bf32:	f7fe fea9 	bl	800ac88 <ECCinitPoint>
 800bf36:	4604      	mov	r4, r0
 800bf38:	2800      	cmp	r0, #0
 800bf3a:	f040 814c 	bne.w	800c1d6 <ECDSAsign+0x374>
 800bf3e:	a806      	add	r0, sp, #24
 800bf40:	6871      	ldr	r1, [r6, #4]
 800bf42:	462a      	mov	r2, r5
 800bf44:	f7fe fea0 	bl	800ac88 <ECCinitPoint>
 800bf48:	4604      	mov	r4, r0
 800bf4a:	2800      	cmp	r0, #0
 800bf4c:	f040 813f 	bne.w	800c1ce <ECDSAsign+0x36c>
 800bf50:	6871      	ldr	r1, [r6, #4]
 800bf52:	9806      	ldr	r0, [sp, #24]
 800bf54:	f7ff fc92 	bl	800b87c <ECCsetPointGenerator>
 800bf58:	6873      	ldr	r3, [r6, #4]
 800bf5a:	6b1b      	ldr	r3, [r3, #48]	; 0x30
 800bf5c:	a908      	add	r1, sp, #32
 800bf5e:	6898      	ldr	r0, [r3, #8]
 800bf60:	462a      	mov	r2, r5
 800bf62:	f7fd f9c0 	bl	80092e6 <MontyInit>
 800bf66:	4604      	mov	r4, r0
 800bf68:	2800      	cmp	r0, #0
 800bf6a:	f040 812c 	bne.w	800c1c6 <ECDSAsign+0x364>
 800bf6e:	6873      	ldr	r3, [r6, #4]
 800bf70:	9802      	ldr	r0, [sp, #8]
 800bf72:	6b1b      	ldr	r3, [r3, #48]	; 0x30
 800bf74:	68b2      	ldr	r2, [r6, #8]
 800bf76:	68d9      	ldr	r1, [r3, #12]
 800bf78:	f7fe fbe7 	bl	800a74a <GenRndBNmodN>
 800bf7c:	b140      	cbz	r0, 800bf90 <ECDSAsign+0x12e>
 800bf7e:	f241 7371 	movw	r3, #6001	; 0x1771
 800bf82:	f241 727b 	movw	r2, #6011	; 0x177b
 800bf86:	4298      	cmp	r0, r3
 800bf88:	bf0c      	ite	eq
 800bf8a:	461c      	moveq	r4, r3
 800bf8c:	4614      	movne	r4, r2
 800bf8e:	e117      	b.n	800c1c0 <ECDSAsign+0x35e>
 800bf90:	9802      	ldr	r0, [sp, #8]
 800bf92:	f7fc fdb0 	bl	8008af6 <IsZeroBig>
 800bf96:	2801      	cmp	r0, #1
 800bf98:	d0e9      	beq.n	800bf6e <ECDSAsign+0x10c>
 800bf9a:	af08      	add	r7, sp, #32
 800bf9c:	9700      	str	r7, [sp, #0]
 800bf9e:	9802      	ldr	r0, [sp, #8]
 800bfa0:	9906      	ldr	r1, [sp, #24]
 800bfa2:	9a07      	ldr	r2, [sp, #28]
 800bfa4:	6873      	ldr	r3, [r6, #4]
 800bfa6:	f7ff f975 	bl	800b294 <NAF_Binary_PointMul>
 800bfaa:	4604      	mov	r4, r0
 800bfac:	2800      	cmp	r0, #0
 800bfae:	f040 8107 	bne.w	800c1c0 <ECDSAsign+0x35e>
 800bfb2:	9807      	ldr	r0, [sp, #28]
 800bfb4:	463a      	mov	r2, r7
 800bfb6:	4601      	mov	r1, r0
 800bfb8:	f7fe ffb3 	bl	800af22 <Normalize>
 800bfbc:	4604      	mov	r4, r0
 800bfbe:	2800      	cmp	r0, #0
 800bfc0:	f040 80fe 	bne.w	800c1c0 <ECDSAsign+0x35e>
 800bfc4:	9b07      	ldr	r3, [sp, #28]
 800bfc6:	6818      	ldr	r0, [r3, #0]
 800bfc8:	f990 3007 	ldrsb.w	r3, [r0, #7]
 800bfcc:	2b01      	cmp	r3, #1
 800bfce:	d112      	bne.n	800bff6 <ECDSAsign+0x194>
 800bfd0:	6873      	ldr	r3, [r6, #4]
 800bfd2:	6b1b      	ldr	r3, [r3, #48]	; 0x30
 800bfd4:	4602      	mov	r2, r0
 800bfd6:	68d9      	ldr	r1, [r3, #12]
 800bfd8:	462b      	mov	r3, r5
 800bfda:	f7fd f89d 	bl	8009118 <AddBig>
 800bfde:	e7ed      	b.n	800bfbc <ECDSAsign+0x15a>
 800bfe0:	6873      	ldr	r3, [r6, #4]
 800bfe2:	6b1b      	ldr	r3, [r3, #48]	; 0x30
 800bfe4:	4602      	mov	r2, r0
 800bfe6:	68d9      	ldr	r1, [r3, #12]
 800bfe8:	462b      	mov	r3, r5
 800bfea:	f7fd f91e 	bl	800922a <SubBig>
 800bfee:	4604      	mov	r4, r0
 800bff0:	2800      	cmp	r0, #0
 800bff2:	f040 80e5 	bne.w	800c1c0 <ECDSAsign+0x35e>
 800bff6:	6873      	ldr	r3, [r6, #4]
 800bff8:	6b1a      	ldr	r2, [r3, #48]	; 0x30
 800bffa:	9b07      	ldr	r3, [sp, #28]
 800bffc:	68d1      	ldr	r1, [r2, #12]
 800bffe:	6818      	ldr	r0, [r3, #0]
 800c000:	f7fc fda4 	bl	8008b4c <CompareBig>
 800c004:	9b07      	ldr	r3, [sp, #28]
 800c006:	2800      	cmp	r0, #0
 800c008:	6818      	ldr	r0, [r3, #0]
 800c00a:	dae9      	bge.n	800bfe0 <ECDSAsign+0x17e>
 800c00c:	f7fc fd73 	bl	8008af6 <IsZeroBig>
 800c010:	2801      	cmp	r0, #1
 800c012:	d0ac      	beq.n	800bf6e <ECDSAsign+0x10c>
 800c014:	4638      	mov	r0, r7
 800c016:	f7fd fa0d 	bl	8009434 <MontyKillAll>
 800c01a:	4629      	mov	r1, r5
 800c01c:	a806      	add	r0, sp, #24
 800c01e:	f7fe fe9c 	bl	800ad5a <ECCfreePoint>
 800c022:	6873      	ldr	r3, [r6, #4]
 800c024:	9802      	ldr	r0, [sp, #8]
 800c026:	6b1b      	ldr	r3, [r3, #48]	; 0x30
 800c028:	4601      	mov	r1, r0
 800c02a:	68da      	ldr	r2, [r3, #12]
 800c02c:	462b      	mov	r3, r5
 800c02e:	f7fd fb6f 	bl	8009710 <ModularInvBig>
 800c032:	4604      	mov	r4, r0
 800c034:	2800      	cmp	r0, #0
 800c036:	f040 80ca 	bne.w	800c1ce <ECDSAsign+0x36c>
 800c03a:	9b07      	ldr	r3, [sp, #28]
 800c03c:	9903      	ldr	r1, [sp, #12]
 800c03e:	6818      	ldr	r0, [r3, #0]
 800c040:	f7fc fcc5 	bl	80089ce <CopyBig>
 800c044:	4629      	mov	r1, r5
 800c046:	a807      	add	r0, sp, #28
 800c048:	f7fe fe87 	bl	800ad5a <ECCfreePoint>
 800c04c:	6873      	ldr	r3, [r6, #4]
 800c04e:	6b1b      	ldr	r3, [r3, #48]	; 0x30
 800c050:	68db      	ldr	r3, [r3, #12]
 800c052:	a804      	add	r0, sp, #16
 800c054:	7999      	ldrb	r1, [r3, #6]
 800c056:	462a      	mov	r2, r5
 800c058:	f7fc fc7a 	bl	8008950 <StAllocBig>
 800c05c:	4604      	mov	r4, r0
 800c05e:	2800      	cmp	r0, #0
 800c060:	f040 80a9 	bne.w	800c1b6 <ECDSAsign+0x354>
 800c064:	6873      	ldr	r3, [r6, #4]
 800c066:	6b1b      	ldr	r3, [r3, #48]	; 0x30
 800c068:	68db      	ldr	r3, [r3, #12]
 800c06a:	a805      	add	r0, sp, #20
 800c06c:	7999      	ldrb	r1, [r3, #6]
 800c06e:	462a      	mov	r2, r5
 800c070:	f7fc fc6e 	bl	8008950 <StAllocBig>
 800c074:	4604      	mov	r4, r0
 800c076:	2800      	cmp	r0, #0
 800c078:	f040 8099 	bne.w	800c1ae <ECDSAsign+0x34c>
 800c07c:	6873      	ldr	r3, [r6, #4]
 800c07e:	6b1b      	ldr	r3, [r3, #48]	; 0x30
 800c080:	4639      	mov	r1, r7
 800c082:	68d8      	ldr	r0, [r3, #12]
 800c084:	462a      	mov	r2, r5
 800c086:	f7fd f92e 	bl	80092e6 <MontyInit>
 800c08a:	4604      	mov	r4, r0
 800c08c:	2800      	cmp	r0, #0
 800c08e:	f040 808a 	bne.w	800c1a6 <ECDSAsign+0x344>
 800c092:	9803      	ldr	r0, [sp, #12]
 800c094:	9909      	ldr	r1, [sp, #36]	; 0x24
 800c096:	4602      	mov	r2, r0
 800c098:	463b      	mov	r3, r7
 800c09a:	f7fd f9d7 	bl	800944c <MontyMul>
 800c09e:	6833      	ldr	r3, [r6, #0]
 800c0a0:	9909      	ldr	r1, [sp, #36]	; 0x24
 800c0a2:	9a04      	ldr	r2, [sp, #16]
 800c0a4:	4604      	mov	r4, r0
 800c0a6:	6818      	ldr	r0, [r3, #0]
 800c0a8:	463b      	mov	r3, r7
 800c0aa:	f7fd f9cf 	bl	800944c <MontyMul>
 800c0ae:	4304      	orrs	r4, r0
 800c0b0:	9802      	ldr	r0, [sp, #8]
 800c0b2:	9909      	ldr	r1, [sp, #36]	; 0x24
 800c0b4:	4602      	mov	r2, r0
 800c0b6:	463b      	mov	r3, r7
 800c0b8:	f7fd f9c8 	bl	800944c <MontyMul>
 800c0bc:	9903      	ldr	r1, [sp, #12]
 800c0be:	9a05      	ldr	r2, [sp, #20]
 800c0c0:	4304      	orrs	r4, r0
 800c0c2:	463b      	mov	r3, r7
 800c0c4:	9804      	ldr	r0, [sp, #16]
 800c0c6:	f7fd f9c1 	bl	800944c <MontyMul>
 800c0ca:	4304      	orrs	r4, r0
 800c0cc:	d002      	beq.n	800c0d4 <ECDSAsign+0x272>
 800c0ce:	f241 44bf 	movw	r4, #5311	; 0x14bf
 800c0d2:	e065      	b.n	800c1a0 <ECDSAsign+0x33e>
 800c0d4:	6873      	ldr	r3, [r6, #4]
 800c0d6:	6b1b      	ldr	r3, [r3, #48]	; 0x30
 800c0d8:	68d8      	ldr	r0, [r3, #12]
 800c0da:	f7fc fd80 	bl	8008bde <CountBits>
 800c0de:	ebb0 0fc8 	cmp.w	r0, r8, lsl #3
 800c0e2:	da1a      	bge.n	800c11a <ECDSAsign+0x2b8>
 800c0e4:	6873      	ldr	r3, [r6, #4]
 800c0e6:	6b1b      	ldr	r3, [r3, #48]	; 0x30
 800c0e8:	68d8      	ldr	r0, [r3, #12]
 800c0ea:	f7fc fd78 	bl	8008bde <CountBits>
 800c0ee:	2308      	movs	r3, #8
 800c0f0:	3007      	adds	r0, #7
 800c0f2:	fb90 f8f3 	sdiv	r8, r0, r3
 800c0f6:	4641      	mov	r1, r8
 800c0f8:	9a04      	ldr	r2, [sp, #16]
 800c0fa:	4650      	mov	r0, sl
 800c0fc:	f7fc fdda 	bl	8008cb4 <W8_to_Big>
 800c100:	6873      	ldr	r3, [r6, #4]
 800c102:	9f04      	ldr	r7, [sp, #16]
 800c104:	6b1b      	ldr	r3, [r3, #48]	; 0x30
 800c106:	4604      	mov	r4, r0
 800c108:	68d8      	ldr	r0, [r3, #12]
 800c10a:	f7fc fd68 	bl	8008bde <CountBits>
 800c10e:	ebc0 01c8 	rsb	r1, r0, r8, lsl #3
 800c112:	4638      	mov	r0, r7
 800c114:	f7fc ff45 	bl	8008fa2 <RightShift>
 800c118:	e005      	b.n	800c126 <ECDSAsign+0x2c4>
 800c11a:	4650      	mov	r0, sl
 800c11c:	4641      	mov	r1, r8
 800c11e:	9a04      	ldr	r2, [sp, #16]
 800c120:	f7fc fdc8 	bl	8008cb4 <W8_to_Big>
 800c124:	4604      	mov	r4, r0
 800c126:	9804      	ldr	r0, [sp, #16]
 800c128:	9909      	ldr	r1, [sp, #36]	; 0x24
 800c12a:	4602      	mov	r2, r0
 800c12c:	ab08      	add	r3, sp, #32
 800c12e:	f7fd f98d 	bl	800944c <MontyMul>
 800c132:	4304      	orrs	r4, r0
 800c134:	d1cb      	bne.n	800c0ce <ECDSAsign+0x26c>
 800c136:	6873      	ldr	r3, [r6, #4]
 800c138:	9804      	ldr	r0, [sp, #16]
 800c13a:	6b1b      	ldr	r3, [r3, #48]	; 0x30
 800c13c:	9500      	str	r5, [sp, #0]
 800c13e:	9905      	ldr	r1, [sp, #20]
 800c140:	68db      	ldr	r3, [r3, #12]
 800c142:	4602      	mov	r2, r0
 800c144:	f7fd fa90 	bl	8009668 <ModularAddBig>
 800c148:	4604      	mov	r4, r0
 800c14a:	bb48      	cbnz	r0, 800c1a0 <ECDSAsign+0x33e>
 800c14c:	9802      	ldr	r0, [sp, #8]
 800c14e:	9904      	ldr	r1, [sp, #16]
 800c150:	ab08      	add	r3, sp, #32
 800c152:	4602      	mov	r2, r0
 800c154:	f7fd f97a 	bl	800944c <MontyMul>
 800c158:	4607      	mov	r7, r0
 800c15a:	9802      	ldr	r0, [sp, #8]
 800c15c:	aa08      	add	r2, sp, #32
 800c15e:	4601      	mov	r1, r0
 800c160:	f7fd fa5f 	bl	8009622 <MontyExit>
 800c164:	4683      	mov	fp, r0
 800c166:	9803      	ldr	r0, [sp, #12]
 800c168:	aa08      	add	r2, sp, #32
 800c16a:	4601      	mov	r1, r0
 800c16c:	f7fd fa59 	bl	8009622 <MontyExit>
 800c170:	4604      	mov	r4, r0
 800c172:	9802      	ldr	r0, [sp, #8]
 800c174:	f7fc fcbf 	bl	8008af6 <IsZeroBig>
 800c178:	2801      	cmp	r0, #1
 800c17a:	f43f aef8 	beq.w	800bf6e <ECDSAsign+0x10c>
 800c17e:	f8d9 1000 	ldr.w	r1, [r9]
 800c182:	9803      	ldr	r0, [sp, #12]
 800c184:	f7fc fc23 	bl	80089ce <CopyBig>
 800c188:	f8d9 1004 	ldr.w	r1, [r9, #4]
 800c18c:	4606      	mov	r6, r0
 800c18e:	9802      	ldr	r0, [sp, #8]
 800c190:	f7fc fc1d 	bl	80089ce <CopyBig>
 800c194:	4334      	orrs	r4, r6
 800c196:	4320      	orrs	r0, r4
 800c198:	ea40 040b 	orr.w	r4, r0, fp
 800c19c:	433c      	orrs	r4, r7
 800c19e:	d196      	bne.n	800c0ce <ECDSAsign+0x26c>
 800c1a0:	a808      	add	r0, sp, #32
 800c1a2:	f7fd f947 	bl	8009434 <MontyKillAll>
 800c1a6:	a803      	add	r0, sp, #12
 800c1a8:	4629      	mov	r1, r5
 800c1aa:	f7fc fbec 	bl	8008986 <StFreeBig>
 800c1ae:	a804      	add	r0, sp, #16
 800c1b0:	4629      	mov	r1, r5
 800c1b2:	f7fc fbe8 	bl	8008986 <StFreeBig>
 800c1b6:	a805      	add	r0, sp, #20
 800c1b8:	4629      	mov	r1, r5
 800c1ba:	f7fc fbe4 	bl	8008986 <StFreeBig>
 800c1be:	e00a      	b.n	800c1d6 <ECDSAsign+0x374>
 800c1c0:	a808      	add	r0, sp, #32
 800c1c2:	f7fd f937 	bl	8009434 <MontyKillAll>
 800c1c6:	a806      	add	r0, sp, #24
 800c1c8:	4629      	mov	r1, r5
 800c1ca:	f7fe fdc6 	bl	800ad5a <ECCfreePoint>
 800c1ce:	a807      	add	r0, sp, #28
 800c1d0:	4629      	mov	r1, r5
 800c1d2:	f7fe fdc2 	bl	800ad5a <ECCfreePoint>
 800c1d6:	a802      	add	r0, sp, #8
 800c1d8:	4629      	mov	r1, r5
 800c1da:	f7fc fbd4 	bl	8008986 <StFreeBig>
 800c1de:	e00a      	b.n	800c1f6 <ECDSAsign+0x394>
 800c1e0:	f241 4454 	movw	r4, #5204	; 0x1454
 800c1e4:	e007      	b.n	800c1f6 <ECDSAsign+0x394>
 800c1e6:	f241 4453 	movw	r4, #5203	; 0x1453
 800c1ea:	e004      	b.n	800c1f6 <ECDSAsign+0x394>
 800c1ec:	f241 4457 	movw	r4, #5207	; 0x1457
 800c1f0:	e001      	b.n	800c1f6 <ECDSAsign+0x394>
 800c1f2:	f240 34ed 	movw	r4, #1005	; 0x3ed
 800c1f6:	4620      	mov	r0, r4
 800c1f8:	b00d      	add	sp, #52	; 0x34
 800c1fa:	e8bd 8ff0 	ldmia.w	sp!, {r4, r5, r6, r7, r8, r9, sl, fp, pc}
	...

0800c200 <ECCvalidatePubKey>:
 800c200:	b5f0      	push	{r4, r5, r6, r7, lr}
 800c202:	b08b      	sub	sp, #44	; 0x2c
 800c204:	2300      	movs	r3, #0
 800c206:	460e      	mov	r6, r1
 800c208:	4615      	mov	r5, r2
 800c20a:	9302      	str	r3, [sp, #8]
 800c20c:	9303      	str	r3, [sp, #12]
 800c20e:	9304      	str	r3, [sp, #16]
 800c210:	9305      	str	r3, [sp, #20]
 800c212:	4607      	mov	r7, r0
 800c214:	2800      	cmp	r0, #0
 800c216:	f000 8106 	beq.w	800c426 <ECCvalidatePubKey+0x226>
 800c21a:	2900      	cmp	r1, #0
 800c21c:	f000 8103 	beq.w	800c426 <ECCvalidatePubKey+0x226>
 800c220:	2a00      	cmp	r2, #0
 800c222:	f000 8100 	beq.w	800c426 <ECCvalidatePubKey+0x226>
 800c226:	6b0b      	ldr	r3, [r1, #48]	; 0x30
 800c228:	2b00      	cmp	r3, #0
 800c22a:	f000 80ff 	beq.w	800c42c <ECCvalidatePubKey+0x22c>
 800c22e:	689a      	ldr	r2, [r3, #8]
 800c230:	2a00      	cmp	r2, #0
 800c232:	f000 80fe 	beq.w	800c432 <ECCvalidatePubKey+0x232>
 800c236:	68d9      	ldr	r1, [r3, #12]
 800c238:	2900      	cmp	r1, #0
 800c23a:	f000 80fa 	beq.w	800c432 <ECCvalidatePubKey+0x232>
 800c23e:	6859      	ldr	r1, [r3, #4]
 800c240:	2900      	cmp	r1, #0
 800c242:	f000 80f6 	beq.w	800c432 <ECCvalidatePubKey+0x232>
 800c246:	681b      	ldr	r3, [r3, #0]
 800c248:	2b00      	cmp	r3, #0
 800c24a:	f000 80f2 	beq.w	800c432 <ECCvalidatePubKey+0x232>
 800c24e:	7b03      	ldrb	r3, [r0, #12]
 800c250:	2b02      	cmp	r3, #2
 800c252:	f000 80f1 	beq.w	800c438 <ECCvalidatePubKey+0x238>
 800c256:	682b      	ldr	r3, [r5, #0]
 800c258:	2b00      	cmp	r3, #0
 800c25a:	f000 80f0 	beq.w	800c43e <ECCvalidatePubKey+0x23e>
 800c25e:	88e9      	ldrh	r1, [r5, #6]
 800c260:	7993      	ldrb	r3, [r2, #6]
 800c262:	88aa      	ldrh	r2, [r5, #4]
 800c264:	3134      	adds	r1, #52	; 0x34
 800c266:	200c      	movs	r0, #12
 800c268:	fb10 1103 	smlabb	r1, r0, r3, r1
 800c26c:	3303      	adds	r3, #3
 800c26e:	eb01 03c3 	add.w	r3, r1, r3, lsl #3
 800c272:	429a      	cmp	r2, r3
 800c274:	f0c0 80e3 	bcc.w	800c43e <ECCvalidatePubKey+0x23e>
 800c278:	a802      	add	r0, sp, #8
 800c27a:	4631      	mov	r1, r6
 800c27c:	462a      	mov	r2, r5
 800c27e:	f7fe fd03 	bl	800ac88 <ECCinitPoint>
 800c282:	2800      	cmp	r0, #0
 800c284:	f040 80dd 	bne.w	800c442 <ECCvalidatePubKey+0x242>
 800c288:	6b33      	ldr	r3, [r6, #48]	; 0x30
 800c28a:	6838      	ldr	r0, [r7, #0]
 800c28c:	6899      	ldr	r1, [r3, #8]
 800c28e:	f7fc fc5d 	bl	8008b4c <CompareBig>
 800c292:	2800      	cmp	r0, #0
 800c294:	db02      	blt.n	800c29c <ECCvalidatePubKey+0x9c>
 800c296:	f241 4455 	movw	r4, #5205	; 0x1455
 800c29a:	e0be      	b.n	800c41a <ECCvalidatePubKey+0x21a>
 800c29c:	6b33      	ldr	r3, [r6, #48]	; 0x30
 800c29e:	6878      	ldr	r0, [r7, #4]
 800c2a0:	6899      	ldr	r1, [r3, #8]
 800c2a2:	f7fc fc53 	bl	8008b4c <CompareBig>
 800c2a6:	2800      	cmp	r0, #0
 800c2a8:	daf5      	bge.n	800c296 <ECCvalidatePubKey+0x96>
 800c2aa:	4638      	mov	r0, r7
 800c2ac:	9902      	ldr	r1, [sp, #8]
 800c2ae:	f7fe fe00 	bl	800aeb2 <ECCcopyPoint>
 800c2b2:	4604      	mov	r4, r0
 800c2b4:	2800      	cmp	r0, #0
 800c2b6:	f040 80b0 	bne.w	800c41a <ECCvalidatePubKey+0x21a>
 800c2ba:	6b33      	ldr	r3, [r6, #48]	; 0x30
 800c2bc:	a906      	add	r1, sp, #24
 800c2be:	6898      	ldr	r0, [r3, #8]
 800c2c0:	462a      	mov	r2, r5
 800c2c2:	f7fd f810 	bl	80092e6 <MontyInit>
 800c2c6:	4604      	mov	r4, r0
 800c2c8:	2800      	cmp	r0, #0
 800c2ca:	f040 80a6 	bne.w	800c41a <ECCvalidatePubKey+0x21a>
 800c2ce:	6b33      	ldr	r3, [r6, #48]	; 0x30
 800c2d0:	689b      	ldr	r3, [r3, #8]
 800c2d2:	a804      	add	r0, sp, #16
 800c2d4:	7999      	ldrb	r1, [r3, #6]
 800c2d6:	462a      	mov	r2, r5
 800c2d8:	f7fc fb3a 	bl	8008950 <StAllocBig>
 800c2dc:	4604      	mov	r4, r0
 800c2de:	2800      	cmp	r0, #0
 800c2e0:	f040 8098 	bne.w	800c414 <ECCvalidatePubKey+0x214>
 800c2e4:	6b33      	ldr	r3, [r6, #48]	; 0x30
 800c2e6:	689b      	ldr	r3, [r3, #8]
 800c2e8:	a803      	add	r0, sp, #12
 800c2ea:	7999      	ldrb	r1, [r3, #6]
 800c2ec:	462a      	mov	r2, r5
 800c2ee:	f7fc fb2f 	bl	8008950 <StAllocBig>
 800c2f2:	4604      	mov	r4, r0
 800c2f4:	2800      	cmp	r0, #0
 800c2f6:	f040 8089 	bne.w	800c40c <ECCvalidatePubKey+0x20c>
 800c2fa:	9b02      	ldr	r3, [sp, #8]
 800c2fc:	9907      	ldr	r1, [sp, #28]
 800c2fe:	6818      	ldr	r0, [r3, #0]
 800c300:	ab06      	add	r3, sp, #24
 800c302:	4602      	mov	r2, r0
 800c304:	f7fd f8a2 	bl	800944c <MontyMul>
 800c308:	4604      	mov	r4, r0
 800c30a:	2800      	cmp	r0, #0
 800c30c:	d17a      	bne.n	800c404 <ECCvalidatePubKey+0x204>
 800c30e:	9b02      	ldr	r3, [sp, #8]
 800c310:	9907      	ldr	r1, [sp, #28]
 800c312:	6858      	ldr	r0, [r3, #4]
 800c314:	ab06      	add	r3, sp, #24
 800c316:	4602      	mov	r2, r0
 800c318:	f7fd f898 	bl	800944c <MontyMul>
 800c31c:	4604      	mov	r4, r0
 800c31e:	2800      	cmp	r0, #0
 800c320:	d170      	bne.n	800c404 <ECCvalidatePubKey+0x204>
 800c322:	9b02      	ldr	r3, [sp, #8]
 800c324:	6818      	ldr	r0, [r3, #0]
 800c326:	689a      	ldr	r2, [r3, #8]
 800c328:	4601      	mov	r1, r0
 800c32a:	ab06      	add	r3, sp, #24
 800c32c:	f7fd f88e 	bl	800944c <MontyMul>
 800c330:	4604      	mov	r4, r0
 800c332:	2800      	cmp	r0, #0
 800c334:	d166      	bne.n	800c404 <ECCvalidatePubKey+0x204>
 800c336:	6b33      	ldr	r3, [r6, #48]	; 0x30
 800c338:	9904      	ldr	r1, [sp, #16]
 800c33a:	6818      	ldr	r0, [r3, #0]
 800c33c:	f7fc fb47 	bl	80089ce <CopyBig>
 800c340:	9804      	ldr	r0, [sp, #16]
 800c342:	9907      	ldr	r1, [sp, #28]
 800c344:	9a03      	ldr	r2, [sp, #12]
 800c346:	ab06      	add	r3, sp, #24
 800c348:	f7fd f880 	bl	800944c <MontyMul>
 800c34c:	4604      	mov	r4, r0
 800c34e:	2800      	cmp	r0, #0
 800c350:	d158      	bne.n	800c404 <ECCvalidatePubKey+0x204>
 800c352:	9b02      	ldr	r3, [sp, #8]
 800c354:	9903      	ldr	r1, [sp, #12]
 800c356:	6898      	ldr	r0, [r3, #8]
 800c358:	9500      	str	r5, [sp, #0]
 800c35a:	4602      	mov	r2, r0
 800c35c:	9b06      	ldr	r3, [sp, #24]
 800c35e:	f7fd f983 	bl	8009668 <ModularAddBig>
 800c362:	4604      	mov	r4, r0
 800c364:	2800      	cmp	r0, #0
 800c366:	d14d      	bne.n	800c404 <ECCvalidatePubKey+0x204>
 800c368:	9b02      	ldr	r3, [sp, #8]
 800c36a:	6899      	ldr	r1, [r3, #8]
 800c36c:	6818      	ldr	r0, [r3, #0]
 800c36e:	460a      	mov	r2, r1
 800c370:	ab06      	add	r3, sp, #24
 800c372:	f7fd f86b 	bl	800944c <MontyMul>
 800c376:	4604      	mov	r4, r0
 800c378:	2800      	cmp	r0, #0
 800c37a:	d143      	bne.n	800c404 <ECCvalidatePubKey+0x204>
 800c37c:	6b33      	ldr	r3, [r6, #48]	; 0x30
 800c37e:	9904      	ldr	r1, [sp, #16]
 800c380:	6858      	ldr	r0, [r3, #4]
 800c382:	f7fc fb24 	bl	80089ce <CopyBig>
 800c386:	9804      	ldr	r0, [sp, #16]
 800c388:	9907      	ldr	r1, [sp, #28]
 800c38a:	9a03      	ldr	r2, [sp, #12]
 800c38c:	ab06      	add	r3, sp, #24
 800c38e:	f7fd f85d 	bl	800944c <MontyMul>
 800c392:	4604      	mov	r4, r0
 800c394:	2800      	cmp	r0, #0
 800c396:	d135      	bne.n	800c404 <ECCvalidatePubKey+0x204>
 800c398:	9b02      	ldr	r3, [sp, #8]
 800c39a:	9903      	ldr	r1, [sp, #12]
 800c39c:	6898      	ldr	r0, [r3, #8]
 800c39e:	9500      	str	r5, [sp, #0]
 800c3a0:	4602      	mov	r2, r0
 800c3a2:	9b06      	ldr	r3, [sp, #24]
 800c3a4:	f7fd f960 	bl	8009668 <ModularAddBig>
 800c3a8:	4604      	mov	r4, r0
 800c3aa:	2800      	cmp	r0, #0
 800c3ac:	d12a      	bne.n	800c404 <ECCvalidatePubKey+0x204>
 800c3ae:	9b02      	ldr	r3, [sp, #8]
 800c3b0:	6858      	ldr	r0, [r3, #4]
 800c3b2:	681a      	ldr	r2, [r3, #0]
 800c3b4:	4601      	mov	r1, r0
 800c3b6:	ab06      	add	r3, sp, #24
 800c3b8:	f7fd f848 	bl	800944c <MontyMul>
 800c3bc:	4604      	mov	r4, r0
 800c3be:	bb08      	cbnz	r0, 800c404 <ECCvalidatePubKey+0x204>
 800c3c0:	4b21      	ldr	r3, [pc, #132]	; (800c448 <ECCvalidatePubKey+0x248>)
 800c3c2:	2201      	movs	r2, #1
 800c3c4:	601a      	str	r2, [r3, #0]
 800c3c6:	681b      	ldr	r3, [r3, #0]
 800c3c8:	4a20      	ldr	r2, [pc, #128]	; (800c44c <ECCvalidatePubKey+0x24c>)
 800c3ca:	9305      	str	r3, [sp, #20]
 800c3cc:	6813      	ldr	r3, [r2, #0]
 800c3ce:	9305      	str	r3, [sp, #20]
 800c3d0:	9b05      	ldr	r3, [sp, #20]
 800c3d2:	3301      	adds	r3, #1
 800c3d4:	9b02      	ldr	r3, [sp, #8]
 800c3d6:	d10d      	bne.n	800c3f4 <ECCvalidatePubKey+0x1f4>
 800c3d8:	9905      	ldr	r1, [sp, #20]
 800c3da:	6011      	str	r1, [r2, #0]
 800c3dc:	6812      	ldr	r2, [r2, #0]
 800c3de:	9205      	str	r2, [sp, #20]
 800c3e0:	9a05      	ldr	r2, [sp, #20]
 800c3e2:	6818      	ldr	r0, [r3, #0]
 800c3e4:	b93a      	cbnz	r2, 800c3f6 <ECCvalidatePubKey+0x1f6>
 800c3e6:	6899      	ldr	r1, [r3, #8]
 800c3e8:	f7fc fbb0 	bl	8008b4c <CompareBig>
 800c3ec:	b150      	cbz	r0, 800c404 <ECCvalidatePubKey+0x204>
 800c3ee:	f241 4455 	movw	r4, #5205	; 0x1455
 800c3f2:	e007      	b.n	800c404 <ECCvalidatePubKey+0x204>
 800c3f4:	6818      	ldr	r0, [r3, #0]
 800c3f6:	4601      	mov	r1, r0
 800c3f8:	f7fc fba8 	bl	8008b4c <CompareBig>
 800c3fc:	2800      	cmp	r0, #0
 800c3fe:	d1f6      	bne.n	800c3ee <ECCvalidatePubKey+0x1ee>
 800c400:	f241 4452 	movw	r4, #5202	; 0x1452
 800c404:	a803      	add	r0, sp, #12
 800c406:	4629      	mov	r1, r5
 800c408:	f7fc fabd 	bl	8008986 <StFreeBig>
 800c40c:	a804      	add	r0, sp, #16
 800c40e:	4629      	mov	r1, r5
 800c410:	f7fc fab9 	bl	8008986 <StFreeBig>
 800c414:	a806      	add	r0, sp, #24
 800c416:	f7fd f80d 	bl	8009434 <MontyKillAll>
 800c41a:	a802      	add	r0, sp, #8
 800c41c:	4629      	mov	r1, r5
 800c41e:	f7fe fc9c 	bl	800ad5a <ECCfreePoint>
 800c422:	4620      	mov	r0, r4
 800c424:	e00d      	b.n	800c442 <ECCvalidatePubKey+0x242>
 800c426:	f241 4054 	movw	r0, #5204	; 0x1454
 800c42a:	e00a      	b.n	800c442 <ECCvalidatePubKey+0x242>
 800c42c:	f241 4053 	movw	r0, #5203	; 0x1453
 800c430:	e007      	b.n	800c442 <ECCvalidatePubKey+0x242>
 800c432:	f241 4057 	movw	r0, #5207	; 0x1457
 800c436:	e004      	b.n	800c442 <ECCvalidatePubKey+0x242>
 800c438:	f241 4055 	movw	r0, #5205	; 0x1455
 800c43c:	e001      	b.n	800c442 <ECCvalidatePubKey+0x242>
 800c43e:	f240 30ed 	movw	r0, #1005	; 0x3ed
 800c442:	b00b      	add	sp, #44	; 0x2c
 800c444:	bdf0      	pop	{r4, r5, r6, r7, pc}
 800c446:	bf00      	nop
 800c448:	40023008 	.word	0x40023008
 800c44c:	40023000 	.word	0x40023000

0800c450 <salsa20_wordtobyte>:
 800c450:	e92d 4ff0 	stmdb	sp!, {r4, r5, r6, r7, r8, r9, sl, fp, lr}
 800c454:	b099      	sub	sp, #100	; 0x64
 800c456:	2300      	movs	r3, #0
 800c458:	9005      	str	r0, [sp, #20]
 800c45a:	9307      	str	r3, [sp, #28]
 800c45c:	a808      	add	r0, sp, #32
 800c45e:	58ca      	ldr	r2, [r1, r3]
 800c460:	501a      	str	r2, [r3, r0]
 800c462:	3304      	adds	r3, #4
 800c464:	2b40      	cmp	r3, #64	; 0x40
 800c466:	d1f9      	bne.n	800c45c <salsa20_wordtobyte+0xc>
 800c468:	200a      	movs	r0, #10
 800c46a:	9000      	str	r0, [sp, #0]
 800c46c:	4bcb      	ldr	r3, [pc, #812]	; (800c79c <salsa20_wordtobyte+0x34c>)
 800c46e:	2201      	movs	r2, #1
 800c470:	601a      	str	r2, [r3, #0]
 800c472:	681b      	ldr	r3, [r3, #0]
 800c474:	9307      	str	r3, [sp, #28]
 800c476:	4bca      	ldr	r3, [pc, #808]	; (800c7a0 <salsa20_wordtobyte+0x350>)
 800c478:	681a      	ldr	r2, [r3, #0]
 800c47a:	9207      	str	r2, [sp, #28]
 800c47c:	9a07      	ldr	r2, [sp, #28]
 800c47e:	3201      	adds	r2, #1
 800c480:	f040 80c9 	bne.w	800c616 <salsa20_wordtobyte+0x1c6>
 800c484:	9a07      	ldr	r2, [sp, #28]
 800c486:	601a      	str	r2, [r3, #0]
 800c488:	681b      	ldr	r3, [r3, #0]
 800c48a:	9307      	str	r3, [sp, #28]
 800c48c:	9b07      	ldr	r3, [sp, #28]
 800c48e:	2b00      	cmp	r3, #0
 800c490:	f040 80c1 	bne.w	800c616 <salsa20_wordtobyte+0x1c6>
 800c494:	9a08      	ldr	r2, [sp, #32]
 800c496:	9b0c      	ldr	r3, [sp, #48]	; 0x30
 800c498:	9c14      	ldr	r4, [sp, #80]	; 0x50
 800c49a:	9e0d      	ldr	r6, [sp, #52]	; 0x34
 800c49c:	9d09      	ldr	r5, [sp, #36]	; 0x24
 800c49e:	980e      	ldr	r0, [sp, #56]	; 0x38
 800c4a0:	9f12      	ldr	r7, [sp, #72]	; 0x48
 800c4a2:	f8dd 903c 	ldr.w	r9, [sp, #60]	; 0x3c
 800c4a6:	eb03 0802 	add.w	r8, r3, r2
 800c4aa:	ea88 0404 	eor.w	r4, r8, r4
 800c4ae:	9a10      	ldr	r2, [sp, #64]	; 0x40
 800c4b0:	ea4f 4434 	mov.w	r4, r4, ror #16
 800c4b4:	4422      	add	r2, r4
 800c4b6:	4053      	eors	r3, r2
 800c4b8:	ea4f 5333 	mov.w	r3, r3, ror #20
 800c4bc:	4498      	add	r8, r3
 800c4be:	ea88 0404 	eor.w	r4, r8, r4
 800c4c2:	ea4f 6434 	mov.w	r4, r4, ror #24
 800c4c6:	18a2      	adds	r2, r4, r2
 800c4c8:	9201      	str	r2, [sp, #4]
 800c4ca:	4053      	eors	r3, r2
 800c4cc:	9a15      	ldr	r2, [sp, #84]	; 0x54
 800c4ce:	4435      	add	r5, r6
 800c4d0:	ea4f 6373 	mov.w	r3, r3, ror #25
 800c4d4:	9303      	str	r3, [sp, #12]
 800c4d6:	406a      	eors	r2, r5
 800c4d8:	9b11      	ldr	r3, [sp, #68]	; 0x44
 800c4da:	ea4f 4232 	mov.w	r2, r2, ror #16
 800c4de:	4413      	add	r3, r2
 800c4e0:	405e      	eors	r6, r3
 800c4e2:	ea4f 5636 	mov.w	r6, r6, ror #20
 800c4e6:	4435      	add	r5, r6
 800c4e8:	406a      	eors	r2, r5
 800c4ea:	ea4f 6232 	mov.w	r2, r2, ror #24
 800c4ee:	9204      	str	r2, [sp, #16]
 800c4f0:	441a      	add	r2, r3
 800c4f2:	9202      	str	r2, [sp, #8]
 800c4f4:	4056      	eors	r6, r2
 800c4f6:	9a0a      	ldr	r2, [sp, #40]	; 0x28
 800c4f8:	9b16      	ldr	r3, [sp, #88]	; 0x58
 800c4fa:	4402      	add	r2, r0
 800c4fc:	4053      	eors	r3, r2
 800c4fe:	ea4f 4333 	mov.w	r3, r3, ror #16
 800c502:	eb03 0c07 	add.w	ip, r3, r7
 800c506:	9f0b      	ldr	r7, [sp, #44]	; 0x2c
 800c508:	eb09 0a07 	add.w	sl, r9, r7
 800c50c:	9f17      	ldr	r7, [sp, #92]	; 0x5c
 800c50e:	ea8c 0000 	eor.w	r0, ip, r0
 800c512:	ea8a 0707 	eor.w	r7, sl, r7
 800c516:	ea4f 5030 	mov.w	r0, r0, ror #20
 800c51a:	4402      	add	r2, r0
 800c51c:	ea4f 4b37 	mov.w	fp, r7, ror #16
 800c520:	9f13      	ldr	r7, [sp, #76]	; 0x4c
 800c522:	4053      	eors	r3, r2
 800c524:	445f      	add	r7, fp
 800c526:	ea4f 6333 	mov.w	r3, r3, ror #24
 800c52a:	449c      	add	ip, r3
 800c52c:	ea87 0909 	eor.w	r9, r7, r9
 800c530:	ea8c 0000 	eor.w	r0, ip, r0
 800c534:	ea4f 5939 	mov.w	r9, r9, ror #20
 800c538:	44ca      	add	sl, r9
 800c53a:	ea4f 6070 	mov.w	r0, r0, ror #25
 800c53e:	4405      	add	r5, r0
 800c540:	ea8a 0b0b 	eor.w	fp, sl, fp
 800c544:	ea4f 6b3b 	mov.w	fp, fp, ror #24
 800c548:	406c      	eors	r4, r5
 800c54a:	445f      	add	r7, fp
 800c54c:	ea4f 4434 	mov.w	r4, r4, ror #16
 800c550:	ea87 0909 	eor.w	r9, r7, r9
 800c554:	4427      	add	r7, r4
 800c556:	4078      	eors	r0, r7
 800c558:	ea4f 5030 	mov.w	r0, r0, ror #20
 800c55c:	4405      	add	r5, r0
 800c55e:	9509      	str	r5, [sp, #36]	; 0x24
 800c560:	4065      	eors	r5, r4
 800c562:	ea4f 6535 	mov.w	r5, r5, ror #24
 800c566:	442f      	add	r7, r5
 800c568:	ea4f 6676 	mov.w	r6, r6, ror #25
 800c56c:	ea4f 6979 	mov.w	r9, r9, ror #25
 800c570:	9713      	str	r7, [sp, #76]	; 0x4c
 800c572:	4047      	eors	r7, r0
 800c574:	9804      	ldr	r0, [sp, #16]
 800c576:	9514      	str	r5, [sp, #80]	; 0x50
 800c578:	44b0      	add	r8, r6
 800c57a:	444a      	add	r2, r9
 800c57c:	ea82 0400 	eor.w	r4, r2, r0
 800c580:	ea88 0b0b 	eor.w	fp, r8, fp
 800c584:	9801      	ldr	r0, [sp, #4]
 800c586:	ea4f 4b3b 	mov.w	fp, fp, ror #16
 800c58a:	ea4f 4434 	mov.w	r4, r4, ror #16
 800c58e:	4420      	add	r0, r4
 800c590:	44dc      	add	ip, fp
 800c592:	ea8c 0606 	eor.w	r6, ip, r6
 800c596:	ea80 0909 	eor.w	r9, r0, r9
 800c59a:	ea4f 5636 	mov.w	r6, r6, ror #20
 800c59e:	ea4f 5939 	mov.w	r9, r9, ror #20
 800c5a2:	44b0      	add	r8, r6
 800c5a4:	444a      	add	r2, r9
 800c5a6:	f8cd 8020 	str.w	r8, [sp, #32]
 800c5aa:	920a      	str	r2, [sp, #40]	; 0x28
 800c5ac:	ea88 080b 	eor.w	r8, r8, fp
 800c5b0:	4062      	eors	r2, r4
 800c5b2:	ea4f 6838 	mov.w	r8, r8, ror #24
 800c5b6:	ea4f 6232 	mov.w	r2, r2, ror #24
 800c5ba:	44c4      	add	ip, r8
 800c5bc:	9215      	str	r2, [sp, #84]	; 0x54
 800c5be:	4402      	add	r2, r0
 800c5c0:	9210      	str	r2, [sp, #64]	; 0x40
 800c5c2:	ea8c 0606 	eor.w	r6, ip, r6
 800c5c6:	ea82 0209 	eor.w	r2, r2, r9
 800c5ca:	ea4f 6777 	mov.w	r7, r7, ror #25
 800c5ce:	ea4f 6272 	mov.w	r2, r2, ror #25
 800c5d2:	ea4f 6676 	mov.w	r6, r6, ror #25
 800c5d6:	970e      	str	r7, [sp, #56]	; 0x38
 800c5d8:	f8cd 805c 	str.w	r8, [sp, #92]	; 0x5c
 800c5dc:	f8cd c048 	str.w	ip, [sp, #72]	; 0x48
 800c5e0:	960d      	str	r6, [sp, #52]	; 0x34
 800c5e2:	920f      	str	r2, [sp, #60]	; 0x3c
 800c5e4:	9a03      	ldr	r2, [sp, #12]
 800c5e6:	9802      	ldr	r0, [sp, #8]
 800c5e8:	4492      	add	sl, r2
 800c5ea:	ea8a 0303 	eor.w	r3, sl, r3
 800c5ee:	ea4f 4333 	mov.w	r3, r3, ror #16
 800c5f2:	4418      	add	r0, r3
 800c5f4:	4042      	eors	r2, r0
 800c5f6:	ea4f 5232 	mov.w	r2, r2, ror #20
 800c5fa:	eb02 070a 	add.w	r7, r2, sl
 800c5fe:	407b      	eors	r3, r7
 800c600:	ea4f 6333 	mov.w	r3, r3, ror #24
 800c604:	9316      	str	r3, [sp, #88]	; 0x58
 800c606:	4403      	add	r3, r0
 800c608:	9311      	str	r3, [sp, #68]	; 0x44
 800c60a:	4053      	eors	r3, r2
 800c60c:	ea4f 6373 	mov.w	r3, r3, ror #25
 800c610:	970b      	str	r7, [sp, #44]	; 0x2c
 800c612:	930c      	str	r3, [sp, #48]	; 0x30
 800c614:	e0b1      	b.n	800c77a <salsa20_wordtobyte+0x32a>
 800c616:	9a0d      	ldr	r2, [sp, #52]	; 0x34
 800c618:	9e09      	ldr	r6, [sp, #36]	; 0x24
 800c61a:	9b12      	ldr	r3, [sp, #72]	; 0x48
 800c61c:	9d10      	ldr	r5, [sp, #64]	; 0x40
 800c61e:	9c0a      	ldr	r4, [sp, #40]	; 0x28
 800c620:	9815      	ldr	r0, [sp, #84]	; 0x54
 800c622:	9f11      	ldr	r7, [sp, #68]	; 0x44
 800c624:	f8dd 803c 	ldr.w	r8, [sp, #60]	; 0x3c
 800c628:	4416      	add	r6, r2
 800c62a:	4073      	eors	r3, r6
 800c62c:	ea4f 4333 	mov.w	r3, r3, ror #16
 800c630:	441d      	add	r5, r3
 800c632:	ea85 0c02 	eor.w	ip, r5, r2
 800c636:	9a0c      	ldr	r2, [sp, #48]	; 0x30
 800c638:	4414      	add	r4, r2
 800c63a:	4060      	eors	r0, r4
 800c63c:	ea4f 4030 	mov.w	r0, r0, ror #16
 800c640:	4407      	add	r7, r0
 800c642:	407a      	eors	r2, r7
 800c644:	ea4f 5232 	mov.w	r2, r2, ror #20
 800c648:	4414      	add	r4, r2
 800c64a:	4060      	eors	r0, r4
 800c64c:	ea4f 6030 	mov.w	r0, r0, ror #24
 800c650:	4407      	add	r7, r0
 800c652:	ea4f 5c3c 	mov.w	ip, ip, ror #20
 800c656:	4466      	add	r6, ip
 800c658:	443c      	add	r4, r7
 800c65a:	4073      	eors	r3, r6
 800c65c:	4060      	eors	r0, r4
 800c65e:	ea4f 6333 	mov.w	r3, r3, ror #24
 800c662:	ea4f 4030 	mov.w	r0, r0, ror #16
 800c666:	441d      	add	r5, r3
 800c668:	4403      	add	r3, r0
 800c66a:	407a      	eors	r2, r7
 800c66c:	405f      	eors	r7, r3
 800c66e:	ea4f 5737 	mov.w	r7, r7, ror #20
 800c672:	443c      	add	r4, r7
 800c674:	4060      	eors	r0, r4
 800c676:	ea4f 6030 	mov.w	r0, r0, ror #24
 800c67a:	4403      	add	r3, r0
 800c67c:	405f      	eors	r7, r3
 800c67e:	ea4f 6777 	mov.w	r7, r7, ror #25
 800c682:	9711      	str	r7, [sp, #68]	; 0x44
 800c684:	9f0b      	ldr	r7, [sp, #44]	; 0x2c
 800c686:	eb08 0907 	add.w	r9, r8, r7
 800c68a:	9f17      	ldr	r7, [sp, #92]	; 0x5c
 800c68c:	ea89 0707 	eor.w	r7, r9, r7
 800c690:	ea4f 4a37 	mov.w	sl, r7, ror #16
 800c694:	9f14      	ldr	r7, [sp, #80]	; 0x50
 800c696:	4457      	add	r7, sl
 800c698:	ea87 0808 	eor.w	r8, r7, r8
 800c69c:	ea4f 5838 	mov.w	r8, r8, ror #20
 800c6a0:	44c1      	add	r9, r8
 800c6a2:	ea89 0a0a 	eor.w	sl, r9, sl
 800c6a6:	ea4f 6a3a 	mov.w	sl, sl, ror #24
 800c6aa:	eb0a 0b07 	add.w	fp, sl, r7
 800c6ae:	ea85 0c0c 	eor.w	ip, r5, ip
 800c6b2:	9f08      	ldr	r7, [sp, #32]
 800c6b4:	ea4f 6c7c 	mov.w	ip, ip, ror #25
 800c6b8:	4467      	add	r7, ip
 800c6ba:	ea87 0a0a 	eor.w	sl, r7, sl
 800c6be:	ea4f 4a3a 	mov.w	sl, sl, ror #16
 800c6c2:	ea8b 0808 	eor.w	r8, fp, r8
 800c6c6:	eb0a 6878 	add.w	r8, sl, r8, ror #25
 800c6ca:	ea88 0c0c 	eor.w	ip, r8, ip
 800c6ce:	ea4f 5c3c 	mov.w	ip, ip, ror #20
 800c6d2:	4467      	add	r7, ip
 800c6d4:	9708      	str	r7, [sp, #32]
 800c6d6:	ea87 070a 	eor.w	r7, r7, sl
 800c6da:	ea4f 6737 	mov.w	r7, r7, ror #24
 800c6de:	9717      	str	r7, [sp, #92]	; 0x5c
 800c6e0:	4447      	add	r7, r8
 800c6e2:	970f      	str	r7, [sp, #60]	; 0x3c
 800c6e4:	ea87 070c 	eor.w	r7, r7, ip
 800c6e8:	ea4f 6777 	mov.w	r7, r7, ror #25
 800c6ec:	970d      	str	r7, [sp, #52]	; 0x34
 800c6ee:	9f0e      	ldr	r7, [sp, #56]	; 0x38
 800c6f0:	eb06 0807 	add.w	r8, r6, r7
 800c6f4:	ea8b 0b08 	eor.w	fp, fp, r8
 800c6f8:	ea4f 4b3b 	mov.w	fp, fp, ror #16
 800c6fc:	445d      	add	r5, fp
 800c6fe:	ea85 0c07 	eor.w	ip, r5, r7
 800c702:	ea4f 5c3c 	mov.w	ip, ip, ror #20
 800c706:	eb0c 0608 	add.w	r6, ip, r8
 800c70a:	ea4f 6272 	mov.w	r2, r2, ror #25
 800c70e:	4414      	add	r4, r2
 800c710:	9609      	str	r6, [sp, #36]	; 0x24
 800c712:	ea86 060b 	eor.w	r6, r6, fp
 800c716:	ea4f 6636 	mov.w	r6, r6, ror #24
 800c71a:	4060      	eors	r0, r4
 800c71c:	ea4f 4030 	mov.w	r0, r0, ror #16
 800c720:	9614      	str	r6, [sp, #80]	; 0x50
 800c722:	442e      	add	r6, r5
 800c724:	ea86 0c0c 	eor.w	ip, r6, ip
 800c728:	4406      	add	r6, r0
 800c72a:	4072      	eors	r2, r6
 800c72c:	ea4f 657c 	mov.w	r5, ip, ror #25
 800c730:	ea4f 5232 	mov.w	r2, r2, ror #20
 800c734:	950e      	str	r5, [sp, #56]	; 0x38
 800c736:	1915      	adds	r5, r2, r4
 800c738:	950a      	str	r5, [sp, #40]	; 0x28
 800c73a:	4045      	eors	r5, r0
 800c73c:	ea4f 6535 	mov.w	r5, r5, ror #24
 800c740:	9816      	ldr	r0, [sp, #88]	; 0x58
 800c742:	9515      	str	r5, [sp, #84]	; 0x54
 800c744:	4435      	add	r5, r6
 800c746:	44a9      	add	r9, r5
 800c748:	ea89 0000 	eor.w	r0, r9, r0
 800c74c:	ea4f 4030 	mov.w	r0, r0, ror #16
 800c750:	4403      	add	r3, r0
 800c752:	406a      	eors	r2, r5
 800c754:	405d      	eors	r5, r3
 800c756:	ea4f 6272 	mov.w	r2, r2, ror #25
 800c75a:	ea4f 5535 	mov.w	r5, r5, ror #20
 800c75e:	920c      	str	r2, [sp, #48]	; 0x30
 800c760:	eb05 0209 	add.w	r2, r5, r9
 800c764:	920b      	str	r2, [sp, #44]	; 0x2c
 800c766:	4042      	eors	r2, r0
 800c768:	ea4f 6232 	mov.w	r2, r2, ror #24
 800c76c:	4413      	add	r3, r2
 800c76e:	9312      	str	r3, [sp, #72]	; 0x48
 800c770:	406b      	eors	r3, r5
 800c772:	ea4f 6373 	mov.w	r3, r3, ror #25
 800c776:	9216      	str	r2, [sp, #88]	; 0x58
 800c778:	9310      	str	r3, [sp, #64]	; 0x40
 800c77a:	9b00      	ldr	r3, [sp, #0]
 800c77c:	3b01      	subs	r3, #1
 800c77e:	9300      	str	r3, [sp, #0]
 800c780:	f47f ae74 	bne.w	800c46c <salsa20_wordtobyte+0x1c>
 800c784:	a808      	add	r0, sp, #32
 800c786:	58ca      	ldr	r2, [r1, r3]
 800c788:	5818      	ldr	r0, [r3, r0]
 800c78a:	9c05      	ldr	r4, [sp, #20]
 800c78c:	4402      	add	r2, r0
 800c78e:	50e2      	str	r2, [r4, r3]
 800c790:	3304      	adds	r3, #4
 800c792:	2b40      	cmp	r3, #64	; 0x40
 800c794:	d1f6      	bne.n	800c784 <salsa20_wordtobyte+0x334>
 800c796:	b019      	add	sp, #100	; 0x64
 800c798:	e8bd 8ff0 	ldmia.w	sp!, {r4, r5, r6, r7, r8, r9, sl, fp, pc}
 800c79c:	40023008 	.word	0x40023008
 800c7a0:	40023000 	.word	0x40023000

0800c7a4 <CHACHA_Encrypt_Init>:
 800c7a4:	b5f0      	push	{r4, r5, r6, r7, lr}
 800c7a6:	2800      	cmp	r0, #0
 800c7a8:	d049      	beq.n	800c83e <CHACHA_Encrypt_Init+0x9a>
 800c7aa:	6943      	ldr	r3, [r0, #20]
 800c7ac:	2b10      	cmp	r3, #16
 800c7ae:	d001      	beq.n	800c7b4 <CHACHA_Encrypt_Init+0x10>
 800c7b0:	2b20      	cmp	r3, #32
 800c7b2:	d147      	bne.n	800c844 <CHACHA_Encrypt_Init+0xa0>
 800c7b4:	6904      	ldr	r4, [r0, #16]
 800c7b6:	f024 0504 	bic.w	r5, r4, #4
 800c7ba:	2d08      	cmp	r5, #8
 800c7bc:	d142      	bne.n	800c844 <CHACHA_Encrypt_Init+0xa0>
 800c7be:	7906      	ldrb	r6, [r0, #4]
 800c7c0:	6081      	str	r1, [r0, #8]
 800c7c2:	f006 05fd 	and.w	r5, r6, #253	; 0xfd
 800c7c6:	07f6      	lsls	r6, r6, #31
 800c7c8:	60c2      	str	r2, [r0, #12]
 800c7ca:	7105      	strb	r5, [r0, #4]
 800c7cc:	d41d      	bmi.n	800c80a <CHACHA_Encrypt_Init+0x66>
 800c7ce:	680e      	ldr	r6, [r1, #0]
 800c7d0:	6306      	str	r6, [r0, #48]	; 0x30
 800c7d2:	684e      	ldr	r6, [r1, #4]
 800c7d4:	6346      	str	r6, [r0, #52]	; 0x34
 800c7d6:	688e      	ldr	r6, [r1, #8]
 800c7d8:	6386      	str	r6, [r0, #56]	; 0x38
 800c7da:	2b20      	cmp	r3, #32
 800c7dc:	68ce      	ldr	r6, [r1, #12]
 800c7de:	63c6      	str	r6, [r0, #60]	; 0x3c
 800c7e0:	bf04      	itt	eq
 800c7e2:	3110      	addeq	r1, #16
 800c7e4:	4b19      	ldreq	r3, [pc, #100]	; (800c84c <CHACHA_Encrypt_Init+0xa8>)
 800c7e6:	680e      	ldr	r6, [r1, #0]
 800c7e8:	6406      	str	r6, [r0, #64]	; 0x40
 800c7ea:	684e      	ldr	r6, [r1, #4]
 800c7ec:	6446      	str	r6, [r0, #68]	; 0x44
 800c7ee:	688e      	ldr	r6, [r1, #8]
 800c7f0:	6486      	str	r6, [r0, #72]	; 0x48
 800c7f2:	68c9      	ldr	r1, [r1, #12]
 800c7f4:	bf18      	it	ne
 800c7f6:	4b16      	ldrne	r3, [pc, #88]	; (800c850 <CHACHA_Encrypt_Init+0xac>)
 800c7f8:	64c1      	str	r1, [r0, #76]	; 0x4c
 800c7fa:	6819      	ldr	r1, [r3, #0]
 800c7fc:	6201      	str	r1, [r0, #32]
 800c7fe:	6859      	ldr	r1, [r3, #4]
 800c800:	6241      	str	r1, [r0, #36]	; 0x24
 800c802:	6899      	ldr	r1, [r3, #8]
 800c804:	6281      	str	r1, [r0, #40]	; 0x28
 800c806:	68db      	ldr	r3, [r3, #12]
 800c808:	62c3      	str	r3, [r0, #44]	; 0x2c
 800c80a:	062b      	lsls	r3, r5, #24
 800c80c:	d506      	bpl.n	800c81c <CHACHA_Encrypt_Init+0x78>
 800c80e:	e9d0 6706 	ldrd	r6, r7, [r0, #24]
 800c812:	2c08      	cmp	r4, #8
 800c814:	6506      	str	r6, [r0, #80]	; 0x50
 800c816:	d10a      	bne.n	800c82e <CHACHA_Encrypt_Init+0x8a>
 800c818:	6547      	str	r7, [r0, #84]	; 0x54
 800c81a:	e004      	b.n	800c826 <CHACHA_Encrypt_Init+0x82>
 800c81c:	2300      	movs	r3, #0
 800c81e:	2c08      	cmp	r4, #8
 800c820:	6503      	str	r3, [r0, #80]	; 0x50
 800c822:	6543      	str	r3, [r0, #84]	; 0x54
 800c824:	d103      	bne.n	800c82e <CHACHA_Encrypt_Init+0x8a>
 800c826:	6813      	ldr	r3, [r2, #0]
 800c828:	6583      	str	r3, [r0, #88]	; 0x58
 800c82a:	6853      	ldr	r3, [r2, #4]
 800c82c:	e004      	b.n	800c838 <CHACHA_Encrypt_Init+0x94>
 800c82e:	6813      	ldr	r3, [r2, #0]
 800c830:	6543      	str	r3, [r0, #84]	; 0x54
 800c832:	6853      	ldr	r3, [r2, #4]
 800c834:	6583      	str	r3, [r0, #88]	; 0x58
 800c836:	6893      	ldr	r3, [r2, #8]
 800c838:	65c3      	str	r3, [r0, #92]	; 0x5c
 800c83a:	2000      	movs	r0, #0
 800c83c:	bdf0      	pop	{r4, r5, r6, r7, pc}
 800c83e:	f640 4084 	movw	r0, #3204	; 0xc84
 800c842:	bdf0      	pop	{r4, r5, r6, r7, pc}
 800c844:	f640 4083 	movw	r0, #3203	; 0xc83
 800c848:	bdf0      	pop	{r4, r5, r6, r7, pc}
 800c84a:	bf00      	nop
 800c84c:	0800f408 	.word	0x0800f408
 800c850:	0801046c 	.word	0x0801046c

0800c854 <CHACHA_Encrypt_Append>:
 800c854:	e92d 4ff0 	stmdb	sp!, {r4, r5, r6, r7, r8, r9, sl, fp, lr}
 800c858:	b091      	sub	sp, #68	; 0x44
 800c85a:	460e      	mov	r6, r1
 800c85c:	4690      	mov	r8, r2
 800c85e:	4699      	mov	r9, r3
 800c860:	f8dd b068 	ldr.w	fp, [sp, #104]	; 0x68
 800c864:	4604      	mov	r4, r0
 800c866:	2800      	cmp	r0, #0
 800c868:	d067      	beq.n	800c93a <CHACHA_Encrypt_Append+0xe6>
 800c86a:	2900      	cmp	r1, #0
 800c86c:	d065      	beq.n	800c93a <CHACHA_Encrypt_Append+0xe6>
 800c86e:	2b00      	cmp	r3, #0
 800c870:	d063      	beq.n	800c93a <CHACHA_Encrypt_Append+0xe6>
 800c872:	f1bb 0f00 	cmp.w	fp, #0
 800c876:	d060      	beq.n	800c93a <CHACHA_Encrypt_Append+0xe6>
 800c878:	7903      	ldrb	r3, [r0, #4]
 800c87a:	f003 0302 	and.w	r3, r3, #2
 800c87e:	f003 05ff 	and.w	r5, r3, #255	; 0xff
 800c882:	2b00      	cmp	r3, #0
 800c884:	d15c      	bne.n	800c940 <CHACHA_Encrypt_Append+0xec>
 800c886:	f105 033f 	add.w	r3, r5, #63	; 0x3f
 800c88a:	4543      	cmp	r3, r8
 800c88c:	da33      	bge.n	800c8f6 <CHACHA_Encrypt_Append+0xa2>
 800c88e:	4668      	mov	r0, sp
 800c890:	f104 0120 	add.w	r1, r4, #32
 800c894:	f7ff fddc 	bl	800c450 <salsa20_wordtobyte>
 800c898:	6d23      	ldr	r3, [r4, #80]	; 0x50
 800c89a:	3301      	adds	r3, #1
 800c89c:	6523      	str	r3, [r4, #80]	; 0x50
 800c89e:	b913      	cbnz	r3, 800c8a6 <CHACHA_Encrypt_Append+0x52>
 800c8a0:	6d63      	ldr	r3, [r4, #84]	; 0x54
 800c8a2:	3301      	adds	r3, #1
 800c8a4:	6563      	str	r3, [r4, #84]	; 0x54
 800c8a6:	ab01      	add	r3, sp, #4
 800c8a8:	f10d 0c44 	add.w	ip, sp, #68	; 0x44
 800c8ac:	eb09 0205 	add.w	r2, r9, r5
 800c8b0:	1970      	adds	r0, r6, r5
 800c8b2:	6807      	ldr	r7, [r0, #0]
 800c8b4:	f853 1c04 	ldr.w	r1, [r3, #-4]
 800c8b8:	ea81 0a07 	eor.w	sl, r1, r7
 800c8bc:	f8c2 a000 	str.w	sl, [r2]
 800c8c0:	6847      	ldr	r7, [r0, #4]
 800c8c2:	6819      	ldr	r1, [r3, #0]
 800c8c4:	ea81 0a07 	eor.w	sl, r1, r7
 800c8c8:	f8c2 a004 	str.w	sl, [r2, #4]
 800c8cc:	6887      	ldr	r7, [r0, #8]
 800c8ce:	6859      	ldr	r1, [r3, #4]
 800c8d0:	ea81 0a07 	eor.w	sl, r1, r7
 800c8d4:	f8c2 a008 	str.w	sl, [r2, #8]
 800c8d8:	6899      	ldr	r1, [r3, #8]
 800c8da:	68c7      	ldr	r7, [r0, #12]
 800c8dc:	3310      	adds	r3, #16
 800c8de:	ea81 0a07 	eor.w	sl, r1, r7
 800c8e2:	4563      	cmp	r3, ip
 800c8e4:	f8c2 a00c 	str.w	sl, [r2, #12]
 800c8e8:	f100 0010 	add.w	r0, r0, #16
 800c8ec:	f102 0210 	add.w	r2, r2, #16
 800c8f0:	d1df      	bne.n	800c8b2 <CHACHA_Encrypt_Append+0x5e>
 800c8f2:	3540      	adds	r5, #64	; 0x40
 800c8f4:	e7c7      	b.n	800c886 <CHACHA_Encrypt_Append+0x32>
 800c8f6:	4545      	cmp	r5, r8
 800c8f8:	f8cb 5000 	str.w	r5, [fp]
 800c8fc:	da23      	bge.n	800c946 <CHACHA_Encrypt_Append+0xf2>
 800c8fe:	4668      	mov	r0, sp
 800c900:	f104 0120 	add.w	r1, r4, #32
 800c904:	f7ff fda4 	bl	800c450 <salsa20_wordtobyte>
 800c908:	ebc5 0808 	rsb	r8, r5, r8
 800c90c:	2300      	movs	r3, #0
 800c90e:	4543      	cmp	r3, r8
 800c910:	d009      	beq.n	800c926 <CHACHA_Encrypt_Append+0xd2>
 800c912:	1971      	adds	r1, r6, r5
 800c914:	f81d 0003 	ldrb.w	r0, [sp, r3]
 800c918:	5cc9      	ldrb	r1, [r1, r3]
 800c91a:	eb09 0205 	add.w	r2, r9, r5
 800c91e:	4041      	eors	r1, r0
 800c920:	54d1      	strb	r1, [r2, r3]
 800c922:	3301      	adds	r3, #1
 800c924:	e7f3      	b.n	800c90e <CHACHA_Encrypt_Append+0xba>
 800c926:	7922      	ldrb	r2, [r4, #4]
 800c928:	f042 0202 	orr.w	r2, r2, #2
 800c92c:	7122      	strb	r2, [r4, #4]
 800c92e:	f8db 2000 	ldr.w	r2, [fp]
 800c932:	4413      	add	r3, r2
 800c934:	f8cb 3000 	str.w	r3, [fp]
 800c938:	e005      	b.n	800c946 <CHACHA_Encrypt_Append+0xf2>
 800c93a:	f640 4084 	movw	r0, #3204	; 0xc84
 800c93e:	e003      	b.n	800c948 <CHACHA_Encrypt_Append+0xf4>
 800c940:	f640 4082 	movw	r0, #3202	; 0xc82
 800c944:	e000      	b.n	800c948 <CHACHA_Encrypt_Append+0xf4>
 800c946:	2000      	movs	r0, #0
 800c948:	b011      	add	sp, #68	; 0x44
 800c94a:	e8bd 8ff0 	ldmia.w	sp!, {r4, r5, r6, r7, r8, r9, sl, fp, pc}

0800c94e <CHACHA_Encrypt_Finish>:
 800c94e:	b138      	cbz	r0, 800c960 <CHACHA_Encrypt_Finish+0x12>
 800c950:	b132      	cbz	r2, 800c960 <CHACHA_Encrypt_Finish+0x12>
 800c952:	7903      	ldrb	r3, [r0, #4]
 800c954:	f043 0302 	orr.w	r3, r3, #2
 800c958:	7103      	strb	r3, [r0, #4]
 800c95a:	2000      	movs	r0, #0
 800c95c:	6010      	str	r0, [r2, #0]
 800c95e:	4770      	bx	lr
 800c960:	f640 4084 	movw	r0, #3204	; 0xc84
 800c964:	4770      	bx	lr

0800c966 <CHACHA_Decrypt_Init>:
 800c966:	f7ff bf1d 	b.w	800c7a4 <CHACHA_Encrypt_Init>

0800c96a <CHACHA_Decrypt_Append>:
 800c96a:	f7ff bf73 	b.w	800c854 <CHACHA_Encrypt_Append>

0800c96e <CHACHA_Decrypt_Finish>:
 800c96e:	f7ff bfee 	b.w	800c94e <CHACHA_Encrypt_Finish>
	...

0800c974 <Poly1305_Core_Update>:
 800c974:	e92d 4ff0 	stmdb	sp!, {r4, r5, r6, r7, r8, r9, sl, fp, lr}
 800c978:	b099      	sub	sp, #100	; 0x64
 800c97a:	f013 0f01 	tst.w	r3, #1
 800c97e:	f04f 0300 	mov.w	r3, #0
 800c982:	688c      	ldr	r4, [r1, #8]
 800c984:	68cd      	ldr	r5, [r1, #12]
 800c986:	f8d1 8004 	ldr.w	r8, [r1, #4]
 800c98a:	9317      	str	r3, [sp, #92]	; 0x5c
 800c98c:	680b      	ldr	r3, [r1, #0]
 800c98e:	6909      	ldr	r1, [r1, #16]
 800c990:	9304      	str	r3, [sp, #16]
 800c992:	6813      	ldr	r3, [r2, #0]
 800c994:	910d      	str	r1, [sp, #52]	; 0x34
 800c996:	eb01 0c81 	add.w	ip, r1, r1, lsl #2
 800c99a:	6801      	ldr	r1, [r0, #0]
 800c99c:	9409      	str	r4, [sp, #36]	; 0x24
 800c99e:	f023 437c 	bic.w	r3, r3, #4227858432	; 0xfc000000
 800c9a2:	4419      	add	r1, r3
 800c9a4:	6001      	str	r1, [r0, #0]
 800c9a6:	eb04 0684 	add.w	r6, r4, r4, lsl #2
 800c9aa:	f8d2 4003 	ldr.w	r4, [r2, #3]
 800c9ae:	910a      	str	r1, [sp, #40]	; 0x28
 800c9b0:	6841      	ldr	r1, [r0, #4]
 800c9b2:	950c      	str	r5, [sp, #48]	; 0x30
 800c9b4:	f3c4 0499 	ubfx	r4, r4, #2, #26
 800c9b8:	4421      	add	r1, r4
 800c9ba:	6041      	str	r1, [r0, #4]
 800c9bc:	9110      	str	r1, [sp, #64]	; 0x40
 800c9be:	f8d2 1006 	ldr.w	r1, [r2, #6]
 800c9c2:	960e      	str	r6, [sp, #56]	; 0x38
 800c9c4:	eb05 0b85 	add.w	fp, r5, r5, lsl #2
 800c9c8:	6885      	ldr	r5, [r0, #8]
 800c9ca:	f3c1 1119 	ubfx	r1, r1, #4, #26
 800c9ce:	4429      	add	r1, r5
 800c9d0:	6081      	str	r1, [r0, #8]
 800c9d2:	f8d2 6009 	ldr.w	r6, [r2, #9]
 800c9d6:	68c5      	ldr	r5, [r0, #12]
 800c9d8:	eb05 1596 	add.w	r5, r5, r6, lsr #6
 800c9dc:	60c5      	str	r5, [r0, #12]
 800c9de:	68d6      	ldr	r6, [r2, #12]
 800c9e0:	6902      	ldr	r2, [r0, #16]
 800c9e2:	bf14      	ite	ne
 800c9e4:	f04f 0900 	movne.w	r9, #0
 800c9e8:	f04f 7980 	moveq.w	r9, #16777216	; 0x1000000
 800c9ec:	ea49 2916 	orr.w	r9, r9, r6, lsr #8
 800c9f0:	eb09 0602 	add.w	r6, r9, r2
 800c9f4:	4a54      	ldr	r2, [pc, #336]	; (800cb48 <Poly1305_Core_Update+0x1d4>)
 800c9f6:	6106      	str	r6, [r0, #16]
 800c9f8:	f04f 0901 	mov.w	r9, #1
 800c9fc:	f8c2 9000 	str.w	r9, [r2]
 800ca00:	6812      	ldr	r2, [r2, #0]
 800ca02:	9217      	str	r2, [sp, #92]	; 0x5c
 800ca04:	4a51      	ldr	r2, [pc, #324]	; (800cb4c <Poly1305_Core_Update+0x1d8>)
 800ca06:	f8d2 9000 	ldr.w	r9, [r2]
 800ca0a:	f8cd 905c 	str.w	r9, [sp, #92]	; 0x5c
 800ca0e:	f8dd 905c 	ldr.w	r9, [sp, #92]	; 0x5c
 800ca12:	f1b9 3fff 	cmp.w	r9, #4294967295
 800ca16:	eb08 0a88 	add.w	sl, r8, r8, lsl #2
 800ca1a:	f040 81dc 	bne.w	800cdd6 <Poly1305_Core_Update+0x462>
 800ca1e:	9b17      	ldr	r3, [sp, #92]	; 0x5c
 800ca20:	6013      	str	r3, [r2, #0]
 800ca22:	6813      	ldr	r3, [r2, #0]
 800ca24:	9317      	str	r3, [sp, #92]	; 0x5c
 800ca26:	9b17      	ldr	r3, [sp, #92]	; 0x5c
 800ca28:	6802      	ldr	r2, [r0, #0]
 800ca2a:	6841      	ldr	r1, [r0, #4]
 800ca2c:	2b00      	cmp	r3, #0
 800ca2e:	f040 808f 	bne.w	800cb50 <Poly1305_Core_Update+0x1dc>
 800ca32:	f8d0 900c 	ldr.w	r9, [r0, #12]
 800ca36:	9f0e      	ldr	r7, [sp, #56]	; 0x38
 800ca38:	9b04      	ldr	r3, [sp, #16]
 800ca3a:	6885      	ldr	r5, [r0, #8]
 800ca3c:	6904      	ldr	r4, [r0, #16]
 800ca3e:	fba7 6709 	umull	r6, r7, r7, r9
 800ca42:	fbe1 670c 	umlal	r6, r7, r1, ip
 800ca46:	fbe2 6703 	umlal	r6, r7, r2, r3
 800ca4a:	fbe5 670b 	umlal	r6, r7, r5, fp
 800ca4e:	fbe4 670a 	umlal	r6, r7, r4, sl
 800ca52:	e9cd 6700 	strd	r6, r7, [sp]
 800ca56:	fba8 6702 	umull	r6, r7, r8, r2
 800ca5a:	fbe1 6703 	umlal	r6, r7, r1, r3
 800ca5e:	fbe9 670b 	umlal	r6, r7, r9, fp
 800ca62:	9b0e      	ldr	r3, [sp, #56]	; 0x38
 800ca64:	fbe5 670c 	umlal	r6, r7, r5, ip
 800ca68:	9d09      	ldr	r5, [sp, #36]	; 0x24
 800ca6a:	fbe4 6703 	umlal	r6, r7, r4, r3
 800ca6e:	e9cd 6702 	strd	r6, r7, [sp, #8]
 800ca72:	9b04      	ldr	r3, [sp, #16]
 800ca74:	fba5 6702 	umull	r6, r7, r5, r2
 800ca78:	6885      	ldr	r5, [r0, #8]
 800ca7a:	fbe1 6708 	umlal	r6, r7, r1, r8
 800ca7e:	fbe5 6703 	umlal	r6, r7, r5, r3
 800ca82:	9b0c      	ldr	r3, [sp, #48]	; 0x30
 800ca84:	9d09      	ldr	r5, [sp, #36]	; 0x24
 800ca86:	fbe9 670c 	umlal	r6, r7, r9, ip
 800ca8a:	fbe4 670b 	umlal	r6, r7, r4, fp
 800ca8e:	fba3 ab02 	umull	sl, fp, r3, r2
 800ca92:	9b04      	ldr	r3, [sp, #16]
 800ca94:	fbe1 ab05 	umlal	sl, fp, r1, r5
 800ca98:	6885      	ldr	r5, [r0, #8]
 800ca9a:	fbe9 ab03 	umlal	sl, fp, r9, r3
 800ca9e:	fbe5 ab08 	umlal	sl, fp, r5, r8
 800caa2:	9d0d      	ldr	r5, [sp, #52]	; 0x34
 800caa4:	fba5 2302 	umull	r2, r3, r5, r2
 800caa8:	9d0c      	ldr	r5, [sp, #48]	; 0x30
 800caaa:	fbe1 2305 	umlal	r2, r3, r1, r5
 800caae:	9909      	ldr	r1, [sp, #36]	; 0x24
 800cab0:	6885      	ldr	r5, [r0, #8]
 800cab2:	fbe9 2308 	umlal	r2, r3, r9, r8
 800cab6:	fbe5 2301 	umlal	r2, r3, r5, r1
 800caba:	f8dd 8000 	ldr.w	r8, [sp]
 800cabe:	9904      	ldr	r1, [sp, #16]
 800cac0:	f8dd 9004 	ldr.w	r9, [sp, #4]
 800cac4:	fbe4 2301 	umlal	r2, r3, r4, r1
 800cac8:	fbe4 ab0c 	umlal	sl, fp, r4, ip
 800cacc:	ea4f 6498 	mov.w	r4, r8, lsr #26
 800cad0:	ea44 1489 	orr.w	r4, r4, r9, lsl #6
 800cad4:	e9dd 8902 	ldrd	r8, r9, [sp, #8]
 800cad8:	eb18 0804 	adds.w	r8, r8, r4
 800cadc:	f149 0900 	adc.w	r9, r9, #0
 800cae0:	ea4f 6498 	mov.w	r4, r8, lsr #26
 800cae4:	ea44 1489 	orr.w	r4, r4, r9, lsl #6
 800cae8:	e9cd 8904 	strd	r8, r9, [sp, #16]
 800caec:	eb16 0804 	adds.w	r8, r6, r4
 800caf0:	f147 0900 	adc.w	r9, r7, #0
 800caf4:	ea4f 6498 	mov.w	r4, r8, lsr #26
 800caf8:	ea44 1489 	orr.w	r4, r4, r9, lsl #6
 800cafc:	eb1a 0a04 	adds.w	sl, sl, r4
 800cb00:	f14b 0b00 	adc.w	fp, fp, #0
 800cb04:	ea4f 649a 	mov.w	r4, sl, lsr #26
 800cb08:	f028 417c 	bic.w	r1, r8, #4227858432	; 0xfc000000
 800cb0c:	ea44 148b 	orr.w	r4, r4, fp, lsl #6
 800cb10:	1912      	adds	r2, r2, r4
 800cb12:	6081      	str	r1, [r0, #8]
 800cb14:	f02a 417c 	bic.w	r1, sl, #4227858432	; 0xfc000000
 800cb18:	60c1      	str	r1, [r0, #12]
 800cb1a:	f022 417c 	bic.w	r1, r2, #4227858432	; 0xfc000000
 800cb1e:	f143 0300 	adc.w	r3, r3, #0
 800cb22:	0e94      	lsrs	r4, r2, #26
 800cb24:	6101      	str	r1, [r0, #16]
 800cb26:	9900      	ldr	r1, [sp, #0]
 800cb28:	9a04      	ldr	r2, [sp, #16]
 800cb2a:	ea44 1483 	orr.w	r4, r4, r3, lsl #6
 800cb2e:	eb04 0484 	add.w	r4, r4, r4, lsl #2
 800cb32:	f021 437c 	bic.w	r3, r1, #4227858432	; 0xfc000000
 800cb36:	441c      	add	r4, r3
 800cb38:	f024 437c 	bic.w	r3, r4, #4227858432	; 0xfc000000
 800cb3c:	f022 467c 	bic.w	r6, r2, #4227858432	; 0xfc000000
 800cb40:	6003      	str	r3, [r0, #0]
 800cb42:	eb06 6494 	add.w	r4, r6, r4, lsr #26
 800cb46:	e144      	b.n	800cdd2 <Poly1305_Core_Update+0x45e>
 800cb48:	40023008 	.word	0x40023008
 800cb4c:	40023000 	.word	0x40023000
 800cb50:	4614      	mov	r4, r2
 800cb52:	68c3      	ldr	r3, [r0, #12]
 800cb54:	6902      	ldr	r2, [r0, #16]
 800cb56:	9e04      	ldr	r6, [sp, #16]
 800cb58:	f8dd 9038 	ldr.w	r9, [sp, #56]	; 0x38
 800cb5c:	2500      	movs	r5, #0
 800cb5e:	e9cd 4506 	strd	r4, r5, [sp, #24]
 800cb62:	fba2 4503 	umull	r4, r5, r2, r3
 800cb66:	e9cd 4500 	strd	r4, r5, [sp]
 800cb6a:	2700      	movs	r7, #0
 800cb6c:	e9cd 6710 	strd	r6, r7, [sp, #64]	; 0x40
 800cb70:	9e0e      	ldr	r6, [sp, #56]	; 0x38
 800cb72:	9f00      	ldr	r7, [sp, #0]
 800cb74:	6883      	ldr	r3, [r0, #8]
 800cb76:	fba7 6706 	umull	r6, r7, r7, r6
 800cb7a:	e9cd 6702 	strd	r6, r7, [sp, #8]
 800cb7e:	461c      	mov	r4, r3
 800cb80:	fb09 7705 	mla	r7, r9, r5, r7
 800cb84:	2500      	movs	r5, #0
 800cb86:	e9cd 450e 	strd	r4, r5, [sp, #56]	; 0x38
 800cb8a:	eb13 040b 	adds.w	r4, r3, fp
 800cb8e:	f145 0500 	adc.w	r5, r5, #0
 800cb92:	9703      	str	r7, [sp, #12]
 800cb94:	e9cd 450a 	strd	r4, r5, [sp, #40]	; 0x28
 800cb98:	e9dd 6706 	ldrd	r6, r7, [sp, #24]
 800cb9c:	e9dd 4510 	ldrd	r4, r5, [sp, #64]	; 0x40
 800cba0:	19a4      	adds	r4, r4, r6
 800cba2:	eb45 0507 	adc.w	r5, r5, r7
 800cba6:	fba4 230c 	umull	r2, r3, r4, ip
 800cbaa:	fb0c 3305 	mla	r3, ip, r5, r3
 800cbae:	fba2 4501 	umull	r4, r5, r2, r1
 800cbb2:	fb01 5503 	mla	r5, r1, r3, r5
 800cbb6:	e9dd 230a 	ldrd	r2, r3, [sp, #40]	; 0x28
 800cbba:	9e02      	ldr	r6, [sp, #8]
 800cbbc:	9f03      	ldr	r7, [sp, #12]
 800cbbe:	18a4      	adds	r4, r4, r2
 800cbc0:	eb45 0503 	adc.w	r5, r5, r3
 800cbc4:	fba6 230a 	umull	r2, r3, r6, sl
 800cbc8:	18a6      	adds	r6, r4, r2
 800cbca:	fb0a 3307 	mla	r3, sl, r7, r3
 800cbce:	eb45 0703 	adc.w	r7, r5, r3
 800cbd2:	e9dd 450e 	ldrd	r4, r5, [sp, #56]	; 0x38
 800cbd6:	e9cd 670a 	strd	r6, r7, [sp, #40]	; 0x28
 800cbda:	eb14 040c 	adds.w	r4, r4, ip
 800cbde:	9e04      	ldr	r6, [sp, #16]
 800cbe0:	f145 0500 	adc.w	r5, r5, #0
 800cbe4:	e9cd 4514 	strd	r4, r5, [sp, #80]	; 0x50
 800cbe8:	fba6 4501 	umull	r4, r5, r6, r1
 800cbec:	e9dd 6706 	ldrd	r6, r7, [sp, #24]
 800cbf0:	4642      	mov	r2, r8
 800cbf2:	2300      	movs	r3, #0
 800cbf4:	e9cd 2312 	strd	r2, r3, [sp, #72]	; 0x48
 800cbf8:	eb18 0206 	adds.w	r2, r8, r6
 800cbfc:	eb43 0307 	adc.w	r3, r3, r7
 800cc00:	4363      	muls	r3, r4
 800cc02:	fb02 3305 	mla	r3, r2, r5, r3
 800cc06:	fba4 4502 	umull	r4, r5, r4, r2
 800cc0a:	441d      	add	r5, r3
 800cc0c:	e9dd 2314 	ldrd	r2, r3, [sp, #80]	; 0x50
 800cc10:	9e02      	ldr	r6, [sp, #8]
 800cc12:	9f03      	ldr	r7, [sp, #12]
 800cc14:	18a4      	adds	r4, r4, r2
 800cc16:	eb45 0503 	adc.w	r5, r5, r3
 800cc1a:	fba6 230b 	umull	r2, r3, r6, fp
 800cc1e:	18a6      	adds	r6, r4, r2
 800cc20:	fb0b 3307 	mla	r3, fp, r7, r3
 800cc24:	eb45 0703 	adc.w	r7, r5, r3
 800cc28:	e9cd 6702 	strd	r6, r7, [sp, #8]
 800cc2c:	e9dd 4510 	ldrd	r4, r5, [sp, #64]	; 0x40
 800cc30:	e9dd 670e 	ldrd	r6, r7, [sp, #56]	; 0x38
 800cc34:	19a4      	adds	r4, r4, r6
 800cc36:	eb45 0507 	adc.w	r5, r5, r7
 800cc3a:	e9dd 6706 	ldrd	r6, r7, [sp, #24]
 800cc3e:	9a09      	ldr	r2, [sp, #36]	; 0x24
 800cc40:	2300      	movs	r3, #0
 800cc42:	e9cd 2304 	strd	r2, r3, [sp, #16]
 800cc46:	1992      	adds	r2, r2, r6
 800cc48:	fba8 8901 	umull	r8, r9, r8, r1
 800cc4c:	eb43 0307 	adc.w	r3, r3, r7
 800cc50:	fb08 f303 	mul.w	r3, r8, r3
 800cc54:	fb02 3309 	mla	r3, r2, r9, r3
 800cc58:	9f00      	ldr	r7, [sp, #0]
 800cc5a:	fba8 8902 	umull	r8, r9, r8, r2
 800cc5e:	eb18 0804 	adds.w	r8, r8, r4
 800cc62:	9c01      	ldr	r4, [sp, #4]
 800cc64:	4499      	add	r9, r3
 800cc66:	fba7 230c 	umull	r2, r3, r7, ip
 800cc6a:	eb49 0905 	adc.w	r9, r9, r5
 800cc6e:	fb0c 3304 	mla	r3, ip, r4, r3
 800cc72:	fba2 450b 	umull	r4, r5, r2, fp
 800cc76:	eb18 0604 	adds.w	r6, r8, r4
 800cc7a:	fb0b 5503 	mla	r5, fp, r3, r5
 800cc7e:	eb49 0705 	adc.w	r7, r9, r5
 800cc82:	e9cd 6714 	strd	r6, r7, [sp, #80]	; 0x50
 800cc86:	f8dd 8000 	ldr.w	r8, [sp]
 800cc8a:	f8dd 9040 	ldr.w	r9, [sp, #64]	; 0x40
 800cc8e:	9a01      	ldr	r2, [sp, #4]
 800cc90:	fba8 6709 	umull	r6, r7, r8, r9
 800cc94:	fb09 7702 	mla	r7, r9, r2, r7
 800cc98:	e9dd 450e 	ldrd	r4, r5, [sp, #56]	; 0x38
 800cc9c:	e9dd 8912 	ldrd	r8, r9, [sp, #72]	; 0x48
 800cca0:	e9dd 2306 	ldrd	r2, r3, [sp, #24]
 800cca4:	eb18 0804 	adds.w	r8, r8, r4
 800cca8:	9c0c      	ldr	r4, [sp, #48]	; 0x30
 800ccaa:	eb49 0905 	adc.w	r9, r9, r5
 800ccae:	9d09      	ldr	r5, [sp, #36]	; 0x24
 800ccb0:	1912      	adds	r2, r2, r4
 800ccb2:	fba5 ab01 	umull	sl, fp, r5, r1
 800ccb6:	f143 0300 	adc.w	r3, r3, #0
 800ccba:	fb0a f303 	mul.w	r3, sl, r3
 800ccbe:	fbaa 4502 	umull	r4, r5, sl, r2
 800ccc2:	fb02 330b 	mla	r3, r2, fp, r3
 800ccc6:	eb14 0408 	adds.w	r4, r4, r8
 800ccca:	441d      	add	r5, r3
 800cccc:	fba6 230c 	umull	r2, r3, r6, ip
 800ccd0:	eb45 0509 	adc.w	r5, r5, r9
 800ccd4:	fb0c 3307 	mla	r3, ip, r7, r3
 800ccd8:	eb14 0802 	adds.w	r8, r4, r2
 800ccdc:	eb45 0903 	adc.w	r9, r5, r3
 800cce0:	e9dd 230e 	ldrd	r2, r3, [sp, #56]	; 0x38
 800cce4:	e9dd 4504 	ldrd	r4, r5, [sp, #16]
 800cce8:	18a4      	adds	r4, r4, r2
 800ccea:	eb45 0503 	adc.w	r5, r5, r3
 800ccee:	9b0c      	ldr	r3, [sp, #48]	; 0x30
 800ccf0:	e9cd 8900 	strd	r8, r9, [sp]
 800ccf4:	fba3 8901 	umull	r8, r9, r3, r1
 800ccf8:	e9dd 2306 	ldrd	r2, r3, [sp, #24]
 800ccfc:	990d      	ldr	r1, [sp, #52]	; 0x34
 800ccfe:	1852      	adds	r2, r2, r1
 800cd00:	f143 0300 	adc.w	r3, r3, #0
 800cd04:	fb08 f103 	mul.w	r1, r8, r3
 800cd08:	fb02 1109 	mla	r1, r2, r9, r1
 800cd0c:	fba8 2302 	umull	r2, r3, r8, r2
 800cd10:	18a4      	adds	r4, r4, r2
 800cd12:	9a12      	ldr	r2, [sp, #72]	; 0x48
 800cd14:	440b      	add	r3, r1
 800cd16:	fba6 ab02 	umull	sl, fp, r6, r2
 800cd1a:	fb02 bb07 	mla	fp, r2, r7, fp
 800cd1e:	eb45 0503 	adc.w	r5, r5, r3
 800cd22:	9e0a      	ldr	r6, [sp, #40]	; 0x28
 800cd24:	9f0b      	ldr	r7, [sp, #44]	; 0x2c
 800cd26:	eb14 040a 	adds.w	r4, r4, sl
 800cd2a:	eb45 050b 	adc.w	r5, r5, fp
 800cd2e:	e9dd ab02 	ldrd	sl, fp, [sp, #8]
 800cd32:	0eb2      	lsrs	r2, r6, #26
 800cd34:	ea42 1287 	orr.w	r2, r2, r7, lsl #6
 800cd38:	eb1a 0a02 	adds.w	sl, sl, r2
 800cd3c:	e9dd 8914 	ldrd	r8, r9, [sp, #80]	; 0x50
 800cd40:	f14b 0b00 	adc.w	fp, fp, #0
 800cd44:	ea4f 621a 	mov.w	r2, sl, lsr #24
 800cd48:	ea42 220b 	orr.w	r2, r2, fp, lsl #8
 800cd4c:	eb18 0802 	adds.w	r8, r8, r2
 800cd50:	f048 737c 	orr.w	r3, r8, #66060288	; 0x3f00000
 800cd54:	f443 337f 	orr.w	r3, r3, #261120	; 0x3fc00
 800cd58:	f443 737f 	orr.w	r3, r3, #1020	; 0x3fc
 800cd5c:	f043 0303 	orr.w	r3, r3, #3
 800cd60:	6083      	str	r3, [r0, #8]
 800cd62:	e9dd 2300 	ldrd	r2, r3, [sp]
 800cd66:	f149 0900 	adc.w	r9, r9, #0
 800cd6a:	ea4f 6658 	mov.w	r6, r8, lsr #25
 800cd6e:	ea46 16c9 	orr.w	r6, r6, r9, lsl #7
 800cd72:	1992      	adds	r2, r2, r6
 800cd74:	f143 0300 	adc.w	r3, r3, #0
 800cd78:	0e96      	lsrs	r6, r2, #26
 800cd7a:	ea46 1683 	orr.w	r6, r6, r3, lsl #6
 800cd7e:	19a4      	adds	r4, r4, r6
 800cd80:	f8dd 8028 	ldr.w	r8, [sp, #40]	; 0x28
 800cd84:	f044 737f 	orr.w	r3, r4, #66846720	; 0x3fc0000
 800cd88:	ea4f 66d4 	mov.w	r6, r4, lsr #27
 800cd8c:	f145 0500 	adc.w	r5, r5, #0
 800cd90:	f443 334f 	orr.w	r3, r3, #211968	; 0x33c00
 800cd94:	ea46 1645 	orr.w	r6, r6, r5, lsl #5
 800cd98:	f028 447c 	bic.w	r4, r8, #4227858432	; 0xfc000000
 800cd9c:	f082 417c 	eor.w	r1, r2, #4227858432	; 0xfc000000
 800cda0:	f443 737f 	orr.w	r3, r3, #1020	; 0x3fc
 800cda4:	eb06 0686 	add.w	r6, r6, r6, lsl #2
 800cda8:	f424 6440 	bic.w	r4, r4, #3072	; 0xc00
 800cdac:	f08a 4a7c 	eor.w	sl, sl, #4227858432	; 0xfc000000
 800cdb0:	f043 0303 	orr.w	r3, r3, #3
 800cdb4:	4434      	add	r4, r6
 800cdb6:	f481 4140 	eor.w	r1, r1, #49152	; 0xc000
 800cdba:	f48a 0a40 	eor.w	sl, sl, #12582912	; 0xc00000
 800cdbe:	43c9      	mvns	r1, r1
 800cdc0:	6103      	str	r3, [r0, #16]
 800cdc2:	ea6f 0a0a 	mvn.w	sl, sl
 800cdc6:	f024 437c 	bic.w	r3, r4, #4227858432	; 0xfc000000
 800cdca:	60c1      	str	r1, [r0, #12]
 800cdcc:	6003      	str	r3, [r0, #0]
 800cdce:	eb0a 6494 	add.w	r4, sl, r4, lsr #26
 800cdd2:	6044      	str	r4, [r0, #4]
 800cdd4:	e09d      	b.n	800cf12 <Poly1305_Core_Update+0x59e>
 800cdd6:	9b0e      	ldr	r3, [sp, #56]	; 0x38
 800cdd8:	9c10      	ldr	r4, [sp, #64]	; 0x40
 800cdda:	9f04      	ldr	r7, [sp, #16]
 800cddc:	fba3 2305 	umull	r2, r3, r3, r5
 800cde0:	fbe4 230c 	umlal	r2, r3, r4, ip
 800cde4:	9c0a      	ldr	r4, [sp, #40]	; 0x28
 800cde6:	fbe4 2307 	umlal	r2, r3, r4, r7
 800cdea:	fbe1 230b 	umlal	r2, r3, r1, fp
 800cdee:	fbea 2306 	umlal	r2, r3, sl, r6
 800cdf2:	9c10      	ldr	r4, [sp, #64]	; 0x40
 800cdf4:	e9cd 2300 	strd	r2, r3, [sp]
 800cdf8:	fbab 2305 	umull	r2, r3, fp, r5
 800cdfc:	fbe7 2304 	umlal	r2, r3, r7, r4
 800ce00:	9c0a      	ldr	r4, [sp, #40]	; 0x28
 800ce02:	9f0e      	ldr	r7, [sp, #56]	; 0x38
 800ce04:	fbe4 2308 	umlal	r2, r3, r4, r8
 800ce08:	fbec 2301 	umlal	r2, r3, ip, r1
 800ce0c:	fbe7 2306 	umlal	r2, r3, r7, r6
 800ce10:	9c10      	ldr	r4, [sp, #64]	; 0x40
 800ce12:	9f09      	ldr	r7, [sp, #36]	; 0x24
 800ce14:	e9cd 2302 	strd	r2, r3, [sp, #8]
 800ce18:	fbac 2305 	umull	r2, r3, ip, r5
 800ce1c:	fbe8 2304 	umlal	r2, r3, r8, r4
 800ce20:	9c0a      	ldr	r4, [sp, #40]	; 0x28
 800ce22:	fbe4 2307 	umlal	r2, r3, r4, r7
 800ce26:	9f04      	ldr	r7, [sp, #16]
 800ce28:	fbe7 2301 	umlal	r2, r3, r7, r1
 800ce2c:	fbeb 2306 	umlal	r2, r3, fp, r6
 800ce30:	e9cd 2306 	strd	r2, r3, [sp, #24]
 800ce34:	9a0c      	ldr	r2, [sp, #48]	; 0x30
 800ce36:	9b10      	ldr	r3, [sp, #64]	; 0x40
 800ce38:	fba2 ab04 	umull	sl, fp, r2, r4
 800ce3c:	9c09      	ldr	r4, [sp, #36]	; 0x24
 800ce3e:	fbe7 ab05 	umlal	sl, fp, r7, r5
 800ce42:	fbe4 ab03 	umlal	sl, fp, r4, r3
 800ce46:	9f0d      	ldr	r7, [sp, #52]	; 0x34
 800ce48:	9c0a      	ldr	r4, [sp, #40]	; 0x28
 800ce4a:	fba7 2304 	umull	r2, r3, r7, r4
 800ce4e:	fbe5 2308 	umlal	r2, r3, r5, r8
 800ce52:	9f0c      	ldr	r7, [sp, #48]	; 0x30
 800ce54:	9d10      	ldr	r5, [sp, #64]	; 0x40
 800ce56:	9c09      	ldr	r4, [sp, #36]	; 0x24
 800ce58:	fbe7 2305 	umlal	r2, r3, r7, r5
 800ce5c:	9d04      	ldr	r5, [sp, #16]
 800ce5e:	9f01      	ldr	r7, [sp, #4]
 800ce60:	fbe8 ab01 	umlal	sl, fp, r8, r1
 800ce64:	fbe4 2301 	umlal	r2, r3, r4, r1
 800ce68:	fbec ab06 	umlal	sl, fp, ip, r6
 800ce6c:	fbe5 2306 	umlal	r2, r3, r5, r6
 800ce70:	9e00      	ldr	r6, [sp, #0]
 800ce72:	0eb4      	lsrs	r4, r6, #26
 800ce74:	ea44 1487 	orr.w	r4, r4, r7, lsl #6
 800ce78:	e9dd 6702 	ldrd	r6, r7, [sp, #8]
 800ce7c:	e9dd 8906 	ldrd	r8, r9, [sp, #24]
 800ce80:	1936      	adds	r6, r6, r4
 800ce82:	f147 0700 	adc.w	r7, r7, #0
 800ce86:	0f34      	lsrs	r4, r6, #28
 800ce88:	ea44 1407 	orr.w	r4, r4, r7, lsl #4
 800ce8c:	eb18 0804 	adds.w	r8, r8, r4
 800ce90:	f048 714c 	orr.w	r1, r8, #53477376	; 0x3300000
 800ce94:	f149 0900 	adc.w	r9, r9, #0
 800ce98:	ea4f 7418 	mov.w	r4, r8, lsr #28
 800ce9c:	f441 317f 	orr.w	r1, r1, #261120	; 0x3fc00
 800cea0:	ea44 1409 	orr.w	r4, r4, r9, lsl #4
 800cea4:	f441 717f 	orr.w	r1, r1, #1020	; 0x3fc
 800cea8:	eb1a 0a04 	adds.w	sl, sl, r4
 800ceac:	f041 0103 	orr.w	r1, r1, #3
 800ceb0:	f14b 0b00 	adc.w	fp, fp, #0
 800ceb4:	6081      	str	r1, [r0, #8]
 800ceb6:	ea4f 741a 	mov.w	r4, sl, lsr #28
 800ceba:	f08a 717f 	eor.w	r1, sl, #66846720	; 0x3fc0000
 800cebe:	ea44 140b 	orr.w	r4, r4, fp, lsl #4
 800cec2:	f481 314f 	eor.w	r1, r1, #211968	; 0x33c00
 800cec6:	1912      	adds	r2, r2, r4
 800cec8:	f481 714f 	eor.w	r1, r1, #828	; 0x33c
 800cecc:	f8dd 8000 	ldr.w	r8, [sp]
 800ced0:	f081 0103 	eor.w	r1, r1, #3
 800ced4:	f143 0300 	adc.w	r3, r3, #0
 800ced8:	0f14      	lsrs	r4, r2, #28
 800ceda:	ea44 1403 	orr.w	r4, r4, r3, lsl #4
 800cede:	60c1      	str	r1, [r0, #12]
 800cee0:	f028 437c 	bic.w	r3, r8, #4227858432	; 0xfc000000
 800cee4:	f042 717f 	orr.w	r1, r2, #66846720	; 0x3fc0000
 800cee8:	f441 314f 	orr.w	r1, r1, #211968	; 0x33c00
 800ceec:	eb04 0484 	add.w	r4, r4, r4, lsl #2
 800cef0:	f423 6340 	bic.w	r3, r3, #3072	; 0xc00
 800cef4:	f086 467c 	eor.w	r6, r6, #4227858432	; 0xfc000000
 800cef8:	4423      	add	r3, r4
 800cefa:	f441 714f 	orr.w	r1, r1, #828	; 0x33c
 800cefe:	43f6      	mvns	r6, r6
 800cf00:	f041 0103 	orr.w	r1, r1, #3
 800cf04:	f023 427c 	bic.w	r2, r3, #4227858432	; 0xfc000000
 800cf08:	eb06 6693 	add.w	r6, r6, r3, lsr #26
 800cf0c:	6101      	str	r1, [r0, #16]
 800cf0e:	6002      	str	r2, [r0, #0]
 800cf10:	6046      	str	r6, [r0, #4]
 800cf12:	b019      	add	sp, #100	; 0x64
 800cf14:	e8bd 8ff0 	ldmia.w	sp!, {r4, r5, r6, r7, r8, r9, sl, fp, pc}

0800cf18 <ChaCha20Poly1305_Append.part.36>:
 800cf18:	e92d 4ff0 	stmdb	sp!, {r4, r5, r6, r7, r8, r9, sl, fp, lr}
 800cf1c:	4604      	mov	r4, r0
 800cf1e:	b093      	sub	sp, #76	; 0x4c
 800cf20:	468a      	mov	sl, r1
 800cf22:	4690      	mov	r8, r2
 800cf24:	469b      	mov	fp, r3
 800cf26:	2500      	movs	r5, #0
 800cf28:	f105 033f 	add.w	r3, r5, #63	; 0x3f
 800cf2c:	4543      	cmp	r3, r8
 800cf2e:	da43      	bge.n	800cfb8 <ChaCha20Poly1305_Append.part.36+0xa0>
 800cf30:	a802      	add	r0, sp, #8
 800cf32:	f104 0154 	add.w	r1, r4, #84	; 0x54
 800cf36:	f7ff fa8b 	bl	800c450 <salsa20_wordtobyte>
 800cf3a:	f8d4 3084 	ldr.w	r3, [r4, #132]	; 0x84
 800cf3e:	3301      	adds	r3, #1
 800cf40:	f8c4 3084 	str.w	r3, [r4, #132]	; 0x84
 800cf44:	ab13      	add	r3, sp, #76	; 0x4c
 800cf46:	ae03      	add	r6, sp, #12
 800cf48:	9301      	str	r3, [sp, #4]
 800cf4a:	eb0b 0705 	add.w	r7, fp, r5
 800cf4e:	eb0a 0905 	add.w	r9, sl, r5
 800cf52:	9b1d      	ldr	r3, [sp, #116]	; 0x74
 800cf54:	2b01      	cmp	r3, #1
 800cf56:	d107      	bne.n	800cf68 <ChaCha20Poly1305_Append.part.36+0x50>
 800cf58:	f104 0030 	add.w	r0, r4, #48	; 0x30
 800cf5c:	f104 011c 	add.w	r1, r4, #28
 800cf60:	464a      	mov	r2, r9
 800cf62:	2300      	movs	r3, #0
 800cf64:	f7ff fd06 	bl	800c974 <Poly1305_Core_Update>
 800cf68:	f8d9 3000 	ldr.w	r3, [r9]
 800cf6c:	f856 2c04 	ldr.w	r2, [r6, #-4]
 800cf70:	4053      	eors	r3, r2
 800cf72:	603b      	str	r3, [r7, #0]
 800cf74:	f8d9 3004 	ldr.w	r3, [r9, #4]
 800cf78:	6832      	ldr	r2, [r6, #0]
 800cf7a:	4053      	eors	r3, r2
 800cf7c:	607b      	str	r3, [r7, #4]
 800cf7e:	f8d9 3008 	ldr.w	r3, [r9, #8]
 800cf82:	6872      	ldr	r2, [r6, #4]
 800cf84:	4053      	eors	r3, r2
 800cf86:	60bb      	str	r3, [r7, #8]
 800cf88:	f8d9 300c 	ldr.w	r3, [r9, #12]
 800cf8c:	68b2      	ldr	r2, [r6, #8]
 800cf8e:	4053      	eors	r3, r2
 800cf90:	60fb      	str	r3, [r7, #12]
 800cf92:	9b1d      	ldr	r3, [sp, #116]	; 0x74
 800cf94:	b933      	cbnz	r3, 800cfa4 <ChaCha20Poly1305_Append.part.36+0x8c>
 800cf96:	f104 0030 	add.w	r0, r4, #48	; 0x30
 800cf9a:	f104 011c 	add.w	r1, r4, #28
 800cf9e:	463a      	mov	r2, r7
 800cfa0:	f7ff fce8 	bl	800c974 <Poly1305_Core_Update>
 800cfa4:	9b01      	ldr	r3, [sp, #4]
 800cfa6:	3610      	adds	r6, #16
 800cfa8:	429e      	cmp	r6, r3
 800cfaa:	f109 0910 	add.w	r9, r9, #16
 800cfae:	f107 0710 	add.w	r7, r7, #16
 800cfb2:	d1ce      	bne.n	800cf52 <ChaCha20Poly1305_Append.part.36+0x3a>
 800cfb4:	3540      	adds	r5, #64	; 0x40
 800cfb6:	e7b7      	b.n	800cf28 <ChaCha20Poly1305_Append.part.36+0x10>
 800cfb8:	4545      	cmp	r5, r8
 800cfba:	da3a      	bge.n	800d032 <ChaCha20Poly1305_Append.part.36+0x11a>
 800cfbc:	a802      	add	r0, sp, #8
 800cfbe:	f104 0154 	add.w	r1, r4, #84	; 0x54
 800cfc2:	f7ff fa45 	bl	800c450 <salsa20_wordtobyte>
 800cfc6:	ebc5 0708 	rsb	r7, r5, r8
 800cfca:	ae02      	add	r6, sp, #8
 800cfcc:	2f00      	cmp	r7, #0
 800cfce:	dd2c      	ble.n	800d02a <ChaCha20Poly1305_Append.part.36+0x112>
 800cfd0:	9b1d      	ldr	r3, [sp, #116]	; 0x74
 800cfd2:	2b00      	cmp	r3, #0
 800cfd4:	bf14      	ite	ne
 800cfd6:	4651      	movne	r1, sl
 800cfd8:	4659      	moveq	r1, fp
 800cfda:	2300      	movs	r3, #0
 800cfdc:	2f10      	cmp	r7, #16
 800cfde:	bf34      	ite	cc
 800cfe0:	463a      	movcc	r2, r7
 800cfe2:	2210      	movcs	r2, #16
 800cfe4:	4293      	cmp	r3, r2
 800cfe6:	da0e      	bge.n	800d006 <ChaCha20Poly1305_Append.part.36+0xee>
 800cfe8:	eb0a 0005 	add.w	r0, sl, r5
 800cfec:	f816 e003 	ldrb.w	lr, [r6, r3]
 800cff0:	5cc0      	ldrb	r0, [r0, r3]
 800cff2:	eb0b 0205 	add.w	r2, fp, r5
 800cff6:	ea8e 0000 	eor.w	r0, lr, r0
 800cffa:	54d0      	strb	r0, [r2, r3]
 800cffc:	194a      	adds	r2, r1, r5
 800cffe:	5cd2      	ldrb	r2, [r2, r3]
 800d000:	54f2      	strb	r2, [r6, r3]
 800d002:	3301      	adds	r3, #1
 800d004:	e7ea      	b.n	800cfdc <ChaCha20Poly1305_Append.part.36+0xc4>
 800d006:	2b0f      	cmp	r3, #15
 800d008:	dc03      	bgt.n	800d012 <ChaCha20Poly1305_Append.part.36+0xfa>
 800d00a:	2200      	movs	r2, #0
 800d00c:	54f2      	strb	r2, [r6, r3]
 800d00e:	3301      	adds	r3, #1
 800d010:	e7f9      	b.n	800d006 <ChaCha20Poly1305_Append.part.36+0xee>
 800d012:	4632      	mov	r2, r6
 800d014:	f104 0030 	add.w	r0, r4, #48	; 0x30
 800d018:	f104 011c 	add.w	r1, r4, #28
 800d01c:	2300      	movs	r3, #0
 800d01e:	f7ff fca9 	bl	800c974 <Poly1305_Core_Update>
 800d022:	3f10      	subs	r7, #16
 800d024:	3610      	adds	r6, #16
 800d026:	3510      	adds	r5, #16
 800d028:	e7d0      	b.n	800cfcc <ChaCha20Poly1305_Append.part.36+0xb4>
 800d02a:	7923      	ldrb	r3, [r4, #4]
 800d02c:	f043 0304 	orr.w	r3, r3, #4
 800d030:	7123      	strb	r3, [r4, #4]
 800d032:	9b1c      	ldr	r3, [sp, #112]	; 0x70
 800d034:	f8c3 8000 	str.w	r8, [r3]
 800d038:	69a3      	ldr	r3, [r4, #24]
 800d03a:	2000      	movs	r0, #0
 800d03c:	4443      	add	r3, r8
 800d03e:	61a3      	str	r3, [r4, #24]
 800d040:	b013      	add	sp, #76	; 0x4c
 800d042:	e8bd 8ff0 	ldmia.w	sp!, {r4, r5, r6, r7, r8, r9, sl, fp, pc}
	...

0800d048 <Poly1305_Core_Finish>:
 800d048:	e92d 4ff0 	stmdb	sp!, {r4, r5, r6, r7, r8, r9, sl, fp, lr}
 800d04c:	4b88      	ldr	r3, [pc, #544]	; (800d270 <Poly1305_Core_Finish+0x228>)
 800d04e:	b089      	sub	sp, #36	; 0x24
 800d050:	2401      	movs	r4, #1
 800d052:	f04f 0c00 	mov.w	ip, #0
 800d056:	f8cd c01c 	str.w	ip, [sp, #28]
 800d05a:	601c      	str	r4, [r3, #0]
 800d05c:	681b      	ldr	r3, [r3, #0]
 800d05e:	9307      	str	r3, [sp, #28]
 800d060:	4b84      	ldr	r3, [pc, #528]	; (800d274 <Poly1305_Core_Finish+0x22c>)
 800d062:	681c      	ldr	r4, [r3, #0]
 800d064:	9407      	str	r4, [sp, #28]
 800d066:	9c07      	ldr	r4, [sp, #28]
 800d068:	3401      	adds	r4, #1
 800d06a:	f040 80d5 	bne.w	800d218 <Poly1305_Core_Finish+0x1d0>
 800d06e:	9c07      	ldr	r4, [sp, #28]
 800d070:	601c      	str	r4, [r3, #0]
 800d072:	681b      	ldr	r3, [r3, #0]
 800d074:	9307      	str	r3, [sp, #28]
 800d076:	f8dd 901c 	ldr.w	r9, [sp, #28]
 800d07a:	6807      	ldr	r7, [r0, #0]
 800d07c:	6844      	ldr	r4, [r0, #4]
 800d07e:	6883      	ldr	r3, [r0, #8]
 800d080:	f1b9 0f00 	cmp.w	r9, #0
 800d084:	f040 8094 	bne.w	800d1b0 <Poly1305_Core_Finish+0x168>
 800d088:	eb03 6694 	add.w	r6, r3, r4, lsr #26
 800d08c:	68c3      	ldr	r3, [r0, #12]
 800d08e:	6905      	ldr	r5, [r0, #16]
 800d090:	f8cd 900c 	str.w	r9, [sp, #12]
 800d094:	f026 4c7c 	bic.w	ip, r6, #4227858432	; 0xfc000000
 800d098:	eb03 6696 	add.w	r6, r3, r6, lsr #26
 800d09c:	f026 437c 	bic.w	r3, r6, #4227858432	; 0xfc000000
 800d0a0:	eb05 6696 	add.w	r6, r5, r6, lsr #26
 800d0a4:	f026 487c 	bic.w	r8, r6, #4227858432	; 0xfc000000
 800d0a8:	0eb6      	lsrs	r6, r6, #26
 800d0aa:	eb06 0686 	add.w	r6, r6, r6, lsl #2
 800d0ae:	443e      	add	r6, r7
 800d0b0:	f024 4a7c 	bic.w	sl, r4, #4227858432	; 0xfc000000
 800d0b4:	f026 457c 	bic.w	r5, r6, #4227858432	; 0xfc000000
 800d0b8:	f105 0b05 	add.w	fp, r5, #5
 800d0bc:	eb0a 6696 	add.w	r6, sl, r6, lsr #26
 800d0c0:	f02b 477c 	bic.w	r7, fp, #4227858432	; 0xfc000000
 800d0c4:	eb06 6b9b 	add.w	fp, r6, fp, lsr #26
 800d0c8:	f02b 447c 	bic.w	r4, fp, #4227858432	; 0xfc000000
 800d0cc:	eb0c 6b9b 	add.w	fp, ip, fp, lsr #26
 800d0d0:	9402      	str	r4, [sp, #8]
 800d0d2:	f108 4a7c 	add.w	sl, r8, #4227858432	; 0xfc000000
 800d0d6:	f02b 447c 	bic.w	r4, fp, #4227858432	; 0xfc000000
 800d0da:	eb03 6b9b 	add.w	fp, r3, fp, lsr #26
 800d0de:	9404      	str	r4, [sp, #16]
 800d0e0:	f02b 447c 	bic.w	r4, fp, #4227858432	; 0xfc000000
 800d0e4:	eb0a 6b9b 	add.w	fp, sl, fp, lsr #26
 800d0e8:	ea4f 7adb 	mov.w	sl, fp, lsr #31
 800d0ec:	f10a 3aff 	add.w	sl, sl, #4294967295
 800d0f0:	9405      	str	r4, [sp, #20]
 800d0f2:	ea6f 040a 	mvn.w	r4, sl
 800d0f6:	4025      	ands	r5, r4
 800d0f8:	ea07 070a 	and.w	r7, r7, sl
 800d0fc:	432f      	orrs	r7, r5
 800d0fe:	9701      	str	r7, [sp, #4]
 800d100:	9f02      	ldr	r7, [sp, #8]
 800d102:	4026      	ands	r6, r4
 800d104:	ea07 050a 	and.w	r5, r7, sl
 800d108:	4335      	orrs	r5, r6
 800d10a:	9e04      	ldr	r6, [sp, #16]
 800d10c:	9f05      	ldr	r7, [sp, #20]
 800d10e:	9500      	str	r5, [sp, #0]
 800d110:	ea04 0c0c 	and.w	ip, r4, ip
 800d114:	ea06 050a 	and.w	r5, r6, sl
 800d118:	ea4c 0c05 	orr.w	ip, ip, r5
 800d11c:	4023      	ands	r3, r4
 800d11e:	ea07 050a 	and.w	r5, r7, sl
 800d122:	432b      	orrs	r3, r5
 800d124:	ea04 0808 	and.w	r8, r4, r8
 800d128:	9d00      	ldr	r5, [sp, #0]
 800d12a:	9c01      	ldr	r4, [sp, #4]
 800d12c:	ea44 6785 	orr.w	r7, r4, r5, lsl #26
 800d130:	680c      	ldr	r4, [r1, #0]
 800d132:	19e4      	adds	r4, r4, r7
 800d134:	6014      	str	r4, [r2, #0]
 800d136:	9f00      	ldr	r7, [sp, #0]
 800d138:	684e      	ldr	r6, [r1, #4]
 800d13a:	f04f 0500 	mov.w	r5, #0
 800d13e:	f145 0500 	adc.w	r5, r5, #0
 800d142:	ea4f 540c 	mov.w	r4, ip, lsl #20
 800d146:	ea44 1497 	orr.w	r4, r4, r7, lsr #6
 800d14a:	9502      	str	r5, [sp, #8]
 800d14c:	1936      	adds	r6, r6, r4
 800d14e:	e9dd 4502 	ldrd	r4, r5, [sp, #8]
 800d152:	f04f 0700 	mov.w	r7, #0
 800d156:	f147 0700 	adc.w	r7, r7, #0
 800d15a:	1936      	adds	r6, r6, r4
 800d15c:	6056      	str	r6, [r2, #4]
 800d15e:	ea4f 3683 	mov.w	r6, r3, lsl #14
 800d162:	ea46 3c1c 	orr.w	ip, r6, ip, lsr #12
 800d166:	688e      	ldr	r6, [r1, #8]
 800d168:	eb47 0705 	adc.w	r7, r7, r5
 800d16c:	463c      	mov	r4, r7
 800d16e:	eb16 060c 	adds.w	r6, r6, ip
 800d172:	f04f 0700 	mov.w	r7, #0
 800d176:	f147 0700 	adc.w	r7, r7, #0
 800d17a:	ea0a 0a0b 	and.w	sl, sl, fp
 800d17e:	1936      	adds	r6, r6, r4
 800d180:	6096      	str	r6, [r2, #8]
 800d182:	ea48 080a 	orr.w	r8, r8, sl
 800d186:	68ce      	ldr	r6, [r1, #12]
 800d188:	ea4f 2808 	mov.w	r8, r8, lsl #8
 800d18c:	ea48 4393 	orr.w	r3, r8, r3, lsr #18
 800d190:	eb47 0709 	adc.w	r7, r7, r9
 800d194:	18f6      	adds	r6, r6, r3
 800d196:	19bc      	adds	r4, r7, r6
 800d198:	60d4      	str	r4, [r2, #12]
 800d19a:	f8c0 9000 	str.w	r9, [r0]
 800d19e:	f8c0 9004 	str.w	r9, [r0, #4]
 800d1a2:	f8c0 9008 	str.w	r9, [r0, #8]
 800d1a6:	f8c0 900c 	str.w	r9, [r0, #12]
 800d1aa:	f8c0 9010 	str.w	r9, [r0, #16]
 800d1ae:	e05b      	b.n	800d268 <Poly1305_Core_Finish+0x220>
 800d1b0:	6906      	ldr	r6, [r0, #16]
 800d1b2:	eb06 6697 	add.w	r6, r6, r7, lsr #26
 800d1b6:	eb03 6896 	add.w	r8, r3, r6, lsr #26
 800d1ba:	68c6      	ldr	r6, [r0, #12]
 800d1bc:	eb06 6898 	add.w	r8, r6, r8, lsr #26
 800d1c0:	ea4f 6898 	mov.w	r8, r8, lsr #26
 800d1c4:	eb08 0888 	add.w	r8, r8, r8, lsl #2
 800d1c8:	4444      	add	r4, r8
 800d1ca:	f027 457c 	bic.w	r5, r7, #4227858432	; 0xfc000000
 800d1ce:	f024 4370 	bic.w	r3, r4, #4026531840	; 0xf0000000
 800d1d2:	f425 0540 	bic.w	r5, r5, #12582912	; 0xc00000
 800d1d6:	3305      	adds	r3, #5
 800d1d8:	eb05 6494 	add.w	r4, r5, r4, lsr #26
 800d1dc:	0edb      	lsrs	r3, r3, #27
 800d1de:	4363      	muls	r3, r4
 800d1e0:	f083 437c 	eor.w	r3, r3, #4227858432	; 0xfc000000
 800d1e4:	684e      	ldr	r6, [r1, #4]
 800d1e6:	43db      	mvns	r3, r3
 800d1e8:	069b      	lsls	r3, r3, #26
 800d1ea:	18f6      	adds	r6, r6, r3
 800d1ec:	6016      	str	r6, [r2, #0]
 800d1ee:	68ce      	ldr	r6, [r1, #12]
 800d1f0:	f04f 0700 	mov.w	r7, #0
 800d1f4:	f147 0700 	adc.w	r7, r7, #0
 800d1f8:	463c      	mov	r4, r7
 800d1fa:	f116 36ff 	adds.w	r6, r6, #4294967295
 800d1fe:	f04f 0700 	mov.w	r7, #0
 800d202:	f147 0700 	adc.w	r7, r7, #0
 800d206:	19a4      	adds	r4, r4, r6
 800d208:	60d4      	str	r4, [r2, #12]
 800d20a:	690b      	ldr	r3, [r1, #16]
 800d20c:	eb4c 0507 	adc.w	r5, ip, r7
 800d210:	18ee      	adds	r6, r5, r3
 800d212:	f14c 0700 	adc.w	r7, ip, #0
 800d216:	e017      	b.n	800d248 <Poly1305_Core_Finish+0x200>
 800d218:	684e      	ldr	r6, [r1, #4]
 800d21a:	f116 467c 	adds.w	r6, r6, #4227858432	; 0xfc000000
 800d21e:	6016      	str	r6, [r2, #0]
 800d220:	68ce      	ldr	r6, [r1, #12]
 800d222:	f04f 0700 	mov.w	r7, #0
 800d226:	f147 0700 	adc.w	r7, r7, #0
 800d22a:	463c      	mov	r4, r7
 800d22c:	f116 36ff 	adds.w	r6, r6, #4294967295
 800d230:	f04f 0700 	mov.w	r7, #0
 800d234:	f147 0700 	adc.w	r7, r7, #0
 800d238:	1936      	adds	r6, r6, r4
 800d23a:	60d6      	str	r6, [r2, #12]
 800d23c:	690b      	ldr	r3, [r1, #16]
 800d23e:	eb47 070c 	adc.w	r7, r7, ip
 800d242:	18fe      	adds	r6, r7, r3
 800d244:	f14c 0700 	adc.w	r7, ip, #0
 800d248:	6096      	str	r6, [r2, #8]
 800d24a:	688e      	ldr	r6, [r1, #8]
 800d24c:	f116 36ff 	adds.w	r6, r6, #4294967295
 800d250:	19bc      	adds	r4, r7, r6
 800d252:	6054      	str	r4, [r2, #4]
 800d254:	f8c0 c000 	str.w	ip, [r0]
 800d258:	f8c0 c004 	str.w	ip, [r0, #4]
 800d25c:	f8c0 c008 	str.w	ip, [r0, #8]
 800d260:	f8c0 c00c 	str.w	ip, [r0, #12]
 800d264:	f8c0 c010 	str.w	ip, [r0, #16]
 800d268:	b009      	add	sp, #36	; 0x24
 800d26a:	e8bd 8ff0 	ldmia.w	sp!, {r4, r5, r6, r7, r8, r9, sl, fp, pc}
 800d26e:	bf00      	nop
 800d270:	40023008 	.word	0x40023008
 800d274:	40023000 	.word	0x40023000

0800d278 <ChaCha20Poly1305_Common_Finish>:
 800d278:	b5f0      	push	{r4, r5, r6, r7, lr}
 800d27a:	6944      	ldr	r4, [r0, #20]
 800d27c:	b085      	sub	sp, #20
 800d27e:	2500      	movs	r5, #0
 800d280:	e9cd 4500 	strd	r4, r5, [sp]
 800d284:	6984      	ldr	r4, [r0, #24]
 800d286:	2500      	movs	r5, #0
 800d288:	4606      	mov	r6, r0
 800d28a:	e9cd 4502 	strd	r4, r5, [sp, #8]
 800d28e:	f100 0430 	add.w	r4, r0, #48	; 0x30
 800d292:	460f      	mov	r7, r1
 800d294:	4620      	mov	r0, r4
 800d296:	f106 011c 	add.w	r1, r6, #28
 800d29a:	466a      	mov	r2, sp
 800d29c:	2300      	movs	r3, #0
 800d29e:	f7ff fb69 	bl	800c974 <Poly1305_Core_Update>
 800d2a2:	4620      	mov	r0, r4
 800d2a4:	f106 0144 	add.w	r1, r6, #68	; 0x44
 800d2a8:	463a      	mov	r2, r7
 800d2aa:	f7ff fecd 	bl	800d048 <Poly1305_Core_Finish>
 800d2ae:	2300      	movs	r3, #0
 800d2b0:	61f3      	str	r3, [r6, #28]
 800d2b2:	6233      	str	r3, [r6, #32]
 800d2b4:	6273      	str	r3, [r6, #36]	; 0x24
 800d2b6:	62b3      	str	r3, [r6, #40]	; 0x28
 800d2b8:	62f3      	str	r3, [r6, #44]	; 0x2c
 800d2ba:	b005      	add	sp, #20
 800d2bc:	bdf0      	pop	{r4, r5, r6, r7, pc}

0800d2be <Poly1305_Auth_Init>:
 800d2be:	b530      	push	{r4, r5, lr}
 800d2c0:	4615      	mov	r5, r2
 800d2c2:	b0cb      	sub	sp, #300	; 0x12c
 800d2c4:	4604      	mov	r4, r0
 800d2c6:	2800      	cmp	r0, #0
 800d2c8:	d049      	beq.n	800d35e <Poly1305_Auth_Init+0xa0>
 800d2ca:	2900      	cmp	r1, #0
 800d2cc:	d047      	beq.n	800d35e <Poly1305_Auth_Init+0xa0>
 800d2ce:	60e2      	str	r2, [r4, #12]
 800d2d0:	2200      	movs	r2, #0
 800d2d2:	60a1      	str	r1, [r4, #8]
 800d2d4:	7102      	strb	r2, [r0, #4]
 800d2d6:	b1ad      	cbz	r5, 800d304 <Poly1305_Auth_Init+0x46>
 800d2d8:	2510      	movs	r5, #16
 800d2da:	eb0d 0005 	add.w	r0, sp, r5
 800d2de:	f88d 2014 	strb.w	r2, [sp, #20]
 800d2e2:	950d      	str	r5, [sp, #52]	; 0x34
 800d2e4:	f7f7 fca4 	bl	8004c30 <AES_ECB_Encrypt_Init>
 800d2e8:	2800      	cmp	r0, #0
 800d2ea:	d13a      	bne.n	800d362 <Poly1305_Auth_Init+0xa4>
 800d2ec:	ab03      	add	r3, sp, #12
 800d2ee:	9300      	str	r3, [sp, #0]
 800d2f0:	eb0d 0005 	add.w	r0, sp, r5
 800d2f4:	68e1      	ldr	r1, [r4, #12]
 800d2f6:	462a      	mov	r2, r5
 800d2f8:	f104 0340 	add.w	r3, r4, #64	; 0x40
 800d2fc:	f7f7 fc9b 	bl	8004c36 <AES_ECB_Encrypt_Append>
 800d300:	b140      	cbz	r0, 800d314 <Poly1305_Auth_Init+0x56>
 800d302:	e02e      	b.n	800d362 <Poly1305_Auth_Init+0xa4>
 800d304:	690a      	ldr	r2, [r1, #16]
 800d306:	6402      	str	r2, [r0, #64]	; 0x40
 800d308:	694a      	ldr	r2, [r1, #20]
 800d30a:	6442      	str	r2, [r0, #68]	; 0x44
 800d30c:	698a      	ldr	r2, [r1, #24]
 800d30e:	6482      	str	r2, [r0, #72]	; 0x48
 800d310:	69cb      	ldr	r3, [r1, #28]
 800d312:	64c3      	str	r3, [r0, #76]	; 0x4c
 800d314:	68a2      	ldr	r2, [r4, #8]
 800d316:	5953      	ldr	r3, [r2, r5]
 800d318:	442a      	add	r2, r5
 800d31a:	f023 437c 	bic.w	r3, r3, #4227858432	; 0xfc000000
 800d31e:	61a3      	str	r3, [r4, #24]
 800d320:	f8d2 3003 	ldr.w	r3, [r2, #3]
 800d324:	f3c3 0399 	ubfx	r3, r3, #2, #26
 800d328:	f023 03fc 	bic.w	r3, r3, #252	; 0xfc
 800d32c:	61e3      	str	r3, [r4, #28]
 800d32e:	f8d2 3006 	ldr.w	r3, [r2, #6]
 800d332:	f3c3 1319 	ubfx	r3, r3, #4, #26
 800d336:	f423 537c 	bic.w	r3, r3, #16128	; 0x3f00
 800d33a:	6223      	str	r3, [r4, #32]
 800d33c:	f8d2 3009 	ldr.w	r3, [r2, #9]
 800d340:	099b      	lsrs	r3, r3, #6
 800d342:	f423 237c 	bic.w	r3, r3, #1032192	; 0xfc000
 800d346:	6263      	str	r3, [r4, #36]	; 0x24
 800d348:	68d3      	ldr	r3, [r2, #12]
 800d34a:	2000      	movs	r0, #0
 800d34c:	f3c3 2313 	ubfx	r3, r3, #8, #20
 800d350:	62a3      	str	r3, [r4, #40]	; 0x28
 800d352:	62e0      	str	r0, [r4, #44]	; 0x2c
 800d354:	6320      	str	r0, [r4, #48]	; 0x30
 800d356:	6360      	str	r0, [r4, #52]	; 0x34
 800d358:	63a0      	str	r0, [r4, #56]	; 0x38
 800d35a:	63e0      	str	r0, [r4, #60]	; 0x3c
 800d35c:	e001      	b.n	800d362 <Poly1305_Auth_Init+0xa4>
 800d35e:	f44f 6042 	mov.w	r0, #3104	; 0xc20
 800d362:	b04b      	add	sp, #300	; 0x12c
 800d364:	bd30      	pop	{r4, r5, pc}

0800d366 <Poly1305_Auth_Append>:
 800d366:	b5f0      	push	{r4, r5, r6, r7, lr}
 800d368:	460f      	mov	r7, r1
 800d36a:	b085      	sub	sp, #20
 800d36c:	4616      	mov	r6, r2
 800d36e:	4604      	mov	r4, r0
 800d370:	b3d0      	cbz	r0, 800d3e8 <Poly1305_Auth_Append+0x82>
 800d372:	b909      	cbnz	r1, 800d378 <Poly1305_Auth_Append+0x12>
 800d374:	2a00      	cmp	r2, #0
 800d376:	dc37      	bgt.n	800d3e8 <Poly1305_Auth_Append+0x82>
 800d378:	7925      	ldrb	r5, [r4, #4]
 800d37a:	f015 0506 	ands.w	r5, r5, #6
 800d37e:	d136      	bne.n	800d3ee <Poly1305_Auth_Append+0x88>
 800d380:	f105 030f 	add.w	r3, r5, #15
 800d384:	42b3      	cmp	r3, r6
 800d386:	da09      	bge.n	800d39c <Poly1305_Auth_Append+0x36>
 800d388:	197a      	adds	r2, r7, r5
 800d38a:	f104 002c 	add.w	r0, r4, #44	; 0x2c
 800d38e:	f104 0118 	add.w	r1, r4, #24
 800d392:	2300      	movs	r3, #0
 800d394:	f7ff faee 	bl	800c974 <Poly1305_Core_Update>
 800d398:	3510      	adds	r5, #16
 800d39a:	e7f1      	b.n	800d380 <Poly1305_Auth_Append+0x1a>
 800d39c:	42ae      	cmp	r6, r5
 800d39e:	dd29      	ble.n	800d3f4 <Poly1305_Auth_Append+0x8e>
 800d3a0:	7923      	ldrb	r3, [r4, #4]
 800d3a2:	f043 0304 	orr.w	r3, r3, #4
 800d3a6:	7123      	strb	r3, [r4, #4]
 800d3a8:	1b76      	subs	r6, r6, r5
 800d3aa:	2300      	movs	r3, #0
 800d3ac:	42b3      	cmp	r3, r6
 800d3ae:	d005      	beq.n	800d3bc <Poly1305_Auth_Append+0x56>
 800d3b0:	197a      	adds	r2, r7, r5
 800d3b2:	5cd2      	ldrb	r2, [r2, r3]
 800d3b4:	f80d 2003 	strb.w	r2, [sp, r3]
 800d3b8:	3301      	adds	r3, #1
 800d3ba:	e7f7      	b.n	800d3ac <Poly1305_Auth_Append+0x46>
 800d3bc:	aa04      	add	r2, sp, #16
 800d3be:	441a      	add	r2, r3
 800d3c0:	2101      	movs	r1, #1
 800d3c2:	f802 1c10 	strb.w	r1, [r2, #-16]
 800d3c6:	440b      	add	r3, r1
 800d3c8:	2b0f      	cmp	r3, #15
 800d3ca:	dc04      	bgt.n	800d3d6 <Poly1305_Auth_Append+0x70>
 800d3cc:	2200      	movs	r2, #0
 800d3ce:	f80d 2003 	strb.w	r2, [sp, r3]
 800d3d2:	3301      	adds	r3, #1
 800d3d4:	e7f8      	b.n	800d3c8 <Poly1305_Auth_Append+0x62>
 800d3d6:	f104 002c 	add.w	r0, r4, #44	; 0x2c
 800d3da:	f104 0118 	add.w	r1, r4, #24
 800d3de:	466a      	mov	r2, sp
 800d3e0:	2301      	movs	r3, #1
 800d3e2:	f7ff fac7 	bl	800c974 <Poly1305_Core_Update>
 800d3e6:	e005      	b.n	800d3f4 <Poly1305_Auth_Append+0x8e>
 800d3e8:	f44f 6042 	mov.w	r0, #3104	; 0xc20
 800d3ec:	e003      	b.n	800d3f6 <Poly1305_Auth_Append+0x90>
 800d3ee:	f640 401e 	movw	r0, #3102	; 0xc1e
 800d3f2:	e000      	b.n	800d3f6 <Poly1305_Auth_Append+0x90>
 800d3f4:	2000      	movs	r0, #0
 800d3f6:	b005      	add	sp, #20
 800d3f8:	bdf0      	pop	{r4, r5, r6, r7, pc}

0800d3fa <Poly1305_Auth_Finish>:
 800d3fa:	b5f0      	push	{r4, r5, r6, r7, lr}
 800d3fc:	460e      	mov	r6, r1
 800d3fe:	b085      	sub	sp, #20
 800d400:	4615      	mov	r5, r2
 800d402:	4604      	mov	r4, r0
 800d404:	b358      	cbz	r0, 800d45e <Poly1305_Auth_Finish+0x64>
 800d406:	b351      	cbz	r1, 800d45e <Poly1305_Auth_Finish+0x64>
 800d408:	b34a      	cbz	r2, 800d45e <Poly1305_Auth_Finish+0x64>
 800d40a:	6943      	ldr	r3, [r0, #20]
 800d40c:	3b01      	subs	r3, #1
 800d40e:	2b0f      	cmp	r3, #15
 800d410:	d828      	bhi.n	800d464 <Poly1305_Auth_Finish+0x6a>
 800d412:	7902      	ldrb	r2, [r0, #4]
 800d414:	f002 0102 	and.w	r1, r2, #2
 800d418:	f001 07ff 	and.w	r7, r1, #255	; 0xff
 800d41c:	bb29      	cbnz	r1, 800d46a <Poly1305_Auth_Finish+0x70>
 800d41e:	f042 0202 	orr.w	r2, r2, #2
 800d422:	7102      	strb	r2, [r0, #4]
 800d424:	f104 0140 	add.w	r1, r4, #64	; 0x40
 800d428:	302c      	adds	r0, #44	; 0x2c
 800d42a:	466a      	mov	r2, sp
 800d42c:	f7ff fe0c 	bl	800d048 <Poly1305_Core_Finish>
 800d430:	463b      	mov	r3, r7
 800d432:	6962      	ldr	r2, [r4, #20]
 800d434:	4293      	cmp	r3, r2
 800d436:	da0f      	bge.n	800d458 <Poly1305_Auth_Finish+0x5e>
 800d438:	2104      	movs	r1, #4
 800d43a:	fb93 f1f1 	sdiv	r1, r3, r1
 800d43e:	aa04      	add	r2, sp, #16
 800d440:	eb02 0181 	add.w	r1, r2, r1, lsl #2
 800d444:	f003 0203 	and.w	r2, r3, #3
 800d448:	f851 1c10 	ldr.w	r1, [r1, #-16]
 800d44c:	00d2      	lsls	r2, r2, #3
 800d44e:	fa21 f202 	lsr.w	r2, r1, r2
 800d452:	54f2      	strb	r2, [r6, r3]
 800d454:	3301      	adds	r3, #1
 800d456:	e7ec      	b.n	800d432 <Poly1305_Auth_Finish+0x38>
 800d458:	602b      	str	r3, [r5, #0]
 800d45a:	2000      	movs	r0, #0
 800d45c:	e007      	b.n	800d46e <Poly1305_Auth_Finish+0x74>
 800d45e:	f44f 6042 	mov.w	r0, #3104	; 0xc20
 800d462:	e004      	b.n	800d46e <Poly1305_Auth_Finish+0x74>
 800d464:	f640 401f 	movw	r0, #3103	; 0xc1f
 800d468:	e001      	b.n	800d46e <Poly1305_Auth_Finish+0x74>
 800d46a:	f640 401e 	movw	r0, #3102	; 0xc1e
 800d46e:	b005      	add	sp, #20
 800d470:	bdf0      	pop	{r4, r5, r6, r7, pc}

0800d472 <Poly1305_Verify_Init>:
 800d472:	f7ff bf24 	b.w	800d2be <Poly1305_Auth_Init>

0800d476 <Poly1305_Verify_Append>:
 800d476:	f7ff bf76 	b.w	800d366 <Poly1305_Auth_Append>

0800d47a <Poly1305_Verify_Finish>:
 800d47a:	b57f      	push	{r0, r1, r2, r3, r4, r5, r6, lr}
 800d47c:	4604      	mov	r4, r0
 800d47e:	b398      	cbz	r0, 800d4e8 <Poly1305_Verify_Finish+0x6e>
 800d480:	6943      	ldr	r3, [r0, #20]
 800d482:	2b10      	cmp	r3, #16
 800d484:	d833      	bhi.n	800d4ee <Poly1305_Verify_Finish+0x74>
 800d486:	6903      	ldr	r3, [r0, #16]
 800d488:	b38b      	cbz	r3, 800d4ee <Poly1305_Verify_Finish+0x74>
 800d48a:	7903      	ldrb	r3, [r0, #4]
 800d48c:	f003 0202 	and.w	r2, r3, #2
 800d490:	f002 05ff 	and.w	r5, r2, #255	; 0xff
 800d494:	bb72      	cbnz	r2, 800d4f4 <Poly1305_Verify_Finish+0x7a>
 800d496:	f043 0302 	orr.w	r3, r3, #2
 800d49a:	7103      	strb	r3, [r0, #4]
 800d49c:	f104 0140 	add.w	r1, r4, #64	; 0x40
 800d4a0:	302c      	adds	r0, #44	; 0x2c
 800d4a2:	466a      	mov	r2, sp
 800d4a4:	f7ff fdd0 	bl	800d048 <Poly1305_Core_Finish>
 800d4a8:	6961      	ldr	r1, [r4, #20]
 800d4aa:	4628      	mov	r0, r5
 800d4ac:	462b      	mov	r3, r5
 800d4ae:	428b      	cmp	r3, r1
 800d4b0:	da14      	bge.n	800d4dc <Poly1305_Verify_Finish+0x62>
 800d4b2:	2504      	movs	r5, #4
 800d4b4:	fb93 f5f5 	sdiv	r5, r3, r5
 800d4b8:	aa04      	add	r2, sp, #16
 800d4ba:	eb02 0585 	add.w	r5, r2, r5, lsl #2
 800d4be:	f003 0603 	and.w	r6, r3, #3
 800d4c2:	f855 2c10 	ldr.w	r2, [r5, #-16]
 800d4c6:	00f6      	lsls	r6, r6, #3
 800d4c8:	fa22 f606 	lsr.w	r6, r2, r6
 800d4cc:	6922      	ldr	r2, [r4, #16]
 800d4ce:	5cd5      	ldrb	r5, [r2, r3]
 800d4d0:	ea86 0205 	eor.w	r2, r6, r5
 800d4d4:	b2d2      	uxtb	r2, r2
 800d4d6:	4310      	orrs	r0, r2
 800d4d8:	3301      	adds	r3, #1
 800d4da:	e7e8      	b.n	800d4ae <Poly1305_Verify_Finish+0x34>
 800d4dc:	4240      	negs	r0, r0
 800d4de:	43c0      	mvns	r0, r0
 800d4e0:	0fc0      	lsrs	r0, r0, #31
 800d4e2:	f5c0 707b 	rsb	r0, r0, #1004	; 0x3ec
 800d4e6:	e007      	b.n	800d4f8 <Poly1305_Verify_Finish+0x7e>
 800d4e8:	f44f 6042 	mov.w	r0, #3104	; 0xc20
 800d4ec:	e004      	b.n	800d4f8 <Poly1305_Verify_Finish+0x7e>
 800d4ee:	f640 401f 	movw	r0, #3103	; 0xc1f
 800d4f2:	e001      	b.n	800d4f8 <Poly1305_Verify_Finish+0x7e>
 800d4f4:	f640 401e 	movw	r0, #3102	; 0xc1e
 800d4f8:	b004      	add	sp, #16
 800d4fa:	bd70      	pop	{r4, r5, r6, pc}

0800d4fc <ChaCha20Poly1305_Encrypt_Init>:
 800d4fc:	b530      	push	{r4, r5, lr}
 800d4fe:	4604      	mov	r4, r0
 800d500:	b091      	sub	sp, #68	; 0x44
 800d502:	2800      	cmp	r0, #0
 800d504:	d063      	beq.n	800d5ce <ChaCha20Poly1305_Encrypt_Init+0xd2>
 800d506:	2900      	cmp	r1, #0
 800d508:	d061      	beq.n	800d5ce <ChaCha20Poly1305_Encrypt_Init+0xd2>
 800d50a:	2a00      	cmp	r2, #0
 800d50c:	d05f      	beq.n	800d5ce <ChaCha20Poly1305_Encrypt_Init+0xd2>
 800d50e:	7903      	ldrb	r3, [r0, #4]
 800d510:	6081      	str	r1, [r0, #8]
 800d512:	60c2      	str	r2, [r0, #12]
 800d514:	f023 0006 	bic.w	r0, r3, #6
 800d518:	f013 0301 	ands.w	r3, r3, #1
 800d51c:	7120      	strb	r0, [r4, #4]
 800d51e:	d042      	beq.n	800d5a6 <ChaCha20Poly1305_Encrypt_Init+0xaa>
 800d520:	2500      	movs	r5, #0
 800d522:	6165      	str	r5, [r4, #20]
 800d524:	61a5      	str	r5, [r4, #24]
 800d526:	f8c4 5084 	str.w	r5, [r4, #132]	; 0x84
 800d52a:	6813      	ldr	r3, [r2, #0]
 800d52c:	f8c4 3088 	str.w	r3, [r4, #136]	; 0x88
 800d530:	6853      	ldr	r3, [r2, #4]
 800d532:	f8c4 308c 	str.w	r3, [r4, #140]	; 0x8c
 800d536:	6893      	ldr	r3, [r2, #8]
 800d538:	f8c4 3090 	str.w	r3, [r4, #144]	; 0x90
 800d53c:	4668      	mov	r0, sp
 800d53e:	f104 0154 	add.w	r1, r4, #84	; 0x54
 800d542:	f7fe ff85 	bl	800c450 <salsa20_wordtobyte>
 800d546:	f8d4 3084 	ldr.w	r3, [r4, #132]	; 0x84
 800d54a:	6325      	str	r5, [r4, #48]	; 0x30
 800d54c:	3301      	adds	r3, #1
 800d54e:	f8c4 3084 	str.w	r3, [r4, #132]	; 0x84
 800d552:	9b00      	ldr	r3, [sp, #0]
 800d554:	6365      	str	r5, [r4, #52]	; 0x34
 800d556:	f023 437c 	bic.w	r3, r3, #4227858432	; 0xfc000000
 800d55a:	61e3      	str	r3, [r4, #28]
 800d55c:	f8dd 3003 	ldr.w	r3, [sp, #3]
 800d560:	63a5      	str	r5, [r4, #56]	; 0x38
 800d562:	f3c3 0399 	ubfx	r3, r3, #2, #26
 800d566:	f023 03fc 	bic.w	r3, r3, #252	; 0xfc
 800d56a:	6223      	str	r3, [r4, #32]
 800d56c:	f8dd 3006 	ldr.w	r3, [sp, #6]
 800d570:	63e5      	str	r5, [r4, #60]	; 0x3c
 800d572:	f3c3 1319 	ubfx	r3, r3, #4, #26
 800d576:	f423 537c 	bic.w	r3, r3, #16128	; 0x3f00
 800d57a:	6263      	str	r3, [r4, #36]	; 0x24
 800d57c:	f8dd 3009 	ldr.w	r3, [sp, #9]
 800d580:	6425      	str	r5, [r4, #64]	; 0x40
 800d582:	099b      	lsrs	r3, r3, #6
 800d584:	f423 237c 	bic.w	r3, r3, #1032192	; 0xfc000
 800d588:	62a3      	str	r3, [r4, #40]	; 0x28
 800d58a:	9b03      	ldr	r3, [sp, #12]
 800d58c:	f3c3 2313 	ubfx	r3, r3, #8, #20
 800d590:	62e3      	str	r3, [r4, #44]	; 0x2c
 800d592:	9b04      	ldr	r3, [sp, #16]
 800d594:	6463      	str	r3, [r4, #68]	; 0x44
 800d596:	9b05      	ldr	r3, [sp, #20]
 800d598:	64a3      	str	r3, [r4, #72]	; 0x48
 800d59a:	9b06      	ldr	r3, [sp, #24]
 800d59c:	64e3      	str	r3, [r4, #76]	; 0x4c
 800d59e:	9b07      	ldr	r3, [sp, #28]
 800d5a0:	6523      	str	r3, [r4, #80]	; 0x50
 800d5a2:	4628      	mov	r0, r5
 800d5a4:	e015      	b.n	800d5d2 <ChaCha20Poly1305_Encrypt_Init+0xd6>
 800d5a6:	480c      	ldr	r0, [pc, #48]	; (800d5d8 <ChaCha20Poly1305_Encrypt_Init+0xdc>)
 800d5a8:	6560      	str	r0, [r4, #84]	; 0x54
 800d5aa:	480c      	ldr	r0, [pc, #48]	; (800d5dc <ChaCha20Poly1305_Encrypt_Init+0xe0>)
 800d5ac:	65a0      	str	r0, [r4, #88]	; 0x58
 800d5ae:	480c      	ldr	r0, [pc, #48]	; (800d5e0 <ChaCha20Poly1305_Encrypt_Init+0xe4>)
 800d5b0:	65e0      	str	r0, [r4, #92]	; 0x5c
 800d5b2:	f1a0 6064 	sub.w	r0, r0, #239075328	; 0xe400000
 800d5b6:	f5a0 30e3 	sub.w	r0, r0, #116224	; 0x1c600
 800d5ba:	f5a0 70df 	sub.w	r0, r0, #446	; 0x1be
 800d5be:	6620      	str	r0, [r4, #96]	; 0x60
 800d5c0:	58c8      	ldr	r0, [r1, r3]
 800d5c2:	18e5      	adds	r5, r4, r3
 800d5c4:	3304      	adds	r3, #4
 800d5c6:	2b20      	cmp	r3, #32
 800d5c8:	6668      	str	r0, [r5, #100]	; 0x64
 800d5ca:	d1f9      	bne.n	800d5c0 <ChaCha20Poly1305_Encrypt_Init+0xc4>
 800d5cc:	e7a8      	b.n	800d520 <ChaCha20Poly1305_Encrypt_Init+0x24>
 800d5ce:	f44f 6042 	mov.w	r0, #3104	; 0xc20
 800d5d2:	b011      	add	sp, #68	; 0x44
 800d5d4:	bd30      	pop	{r4, r5, pc}
 800d5d6:	bf00      	nop
 800d5d8:	61707865 	.word	0x61707865
 800d5dc:	3320646e 	.word	0x3320646e
 800d5e0:	79622d32 	.word	0x79622d32

0800d5e4 <ChaCha20Poly1305_Encrypt_Append>:
 800d5e4:	b537      	push	{r0, r1, r2, r4, r5, lr}
 800d5e6:	b160      	cbz	r0, 800d602 <ChaCha20Poly1305_Encrypt_Append+0x1e>
 800d5e8:	b909      	cbnz	r1, 800d5ee <ChaCha20Poly1305_Encrypt_Append+0xa>
 800d5ea:	2a00      	cmp	r2, #0
 800d5ec:	dc09      	bgt.n	800d602 <ChaCha20Poly1305_Encrypt_Append+0x1e>
 800d5ee:	7904      	ldrb	r4, [r0, #4]
 800d5f0:	f014 0406 	ands.w	r4, r4, #6
 800d5f4:	d108      	bne.n	800d608 <ChaCha20Poly1305_Encrypt_Append+0x24>
 800d5f6:	9d06      	ldr	r5, [sp, #24]
 800d5f8:	9500      	str	r5, [sp, #0]
 800d5fa:	9401      	str	r4, [sp, #4]
 800d5fc:	f7ff fc8c 	bl	800cf18 <ChaCha20Poly1305_Append.part.36>
 800d600:	e004      	b.n	800d60c <ChaCha20Poly1305_Encrypt_Append+0x28>
 800d602:	f44f 6042 	mov.w	r0, #3104	; 0xc20
 800d606:	e001      	b.n	800d60c <ChaCha20Poly1305_Encrypt_Append+0x28>
 800d608:	f640 401e 	movw	r0, #3102	; 0xc1e
 800d60c:	b003      	add	sp, #12
 800d60e:	bd30      	pop	{r4, r5, pc}

0800d610 <ChaCha20Poly1305_Header_Append>:
 800d610:	b5f0      	push	{r4, r5, r6, r7, lr}
 800d612:	460f      	mov	r7, r1
 800d614:	b085      	sub	sp, #20
 800d616:	4615      	mov	r5, r2
 800d618:	4604      	mov	r4, r0
 800d61a:	b388      	cbz	r0, 800d680 <ChaCha20Poly1305_Header_Append+0x70>
 800d61c:	b909      	cbnz	r1, 800d622 <ChaCha20Poly1305_Header_Append+0x12>
 800d61e:	2a00      	cmp	r2, #0
 800d620:	dc2e      	bgt.n	800d680 <ChaCha20Poly1305_Header_Append+0x70>
 800d622:	7926      	ldrb	r6, [r4, #4]
 800d624:	f016 0612 	ands.w	r6, r6, #18
 800d628:	d12d      	bne.n	800d686 <ChaCha20Poly1305_Header_Append+0x76>
 800d62a:	42ae      	cmp	r6, r5
 800d62c:	da1d      	bge.n	800d66a <ChaCha20Poly1305_Header_Append+0x5a>
 800d62e:	2300      	movs	r3, #0
 800d630:	1baa      	subs	r2, r5, r6
 800d632:	2a10      	cmp	r2, #16
 800d634:	bf28      	it	cs
 800d636:	2210      	movcs	r2, #16
 800d638:	4293      	cmp	r3, r2
 800d63a:	da05      	bge.n	800d648 <ChaCha20Poly1305_Header_Append+0x38>
 800d63c:	19ba      	adds	r2, r7, r6
 800d63e:	5cd2      	ldrb	r2, [r2, r3]
 800d640:	f80d 2003 	strb.w	r2, [sp, r3]
 800d644:	3301      	adds	r3, #1
 800d646:	e7f3      	b.n	800d630 <ChaCha20Poly1305_Header_Append+0x20>
 800d648:	2b10      	cmp	r3, #16
 800d64a:	d004      	beq.n	800d656 <ChaCha20Poly1305_Header_Append+0x46>
 800d64c:	2200      	movs	r2, #0
 800d64e:	f80d 2003 	strb.w	r2, [sp, r3]
 800d652:	3301      	adds	r3, #1
 800d654:	e7f8      	b.n	800d648 <ChaCha20Poly1305_Header_Append+0x38>
 800d656:	f104 0030 	add.w	r0, r4, #48	; 0x30
 800d65a:	f104 011c 	add.w	r1, r4, #28
 800d65e:	466a      	mov	r2, sp
 800d660:	2300      	movs	r3, #0
 800d662:	f7ff f987 	bl	800c974 <Poly1305_Core_Update>
 800d666:	3610      	adds	r6, #16
 800d668:	e7df      	b.n	800d62a <ChaCha20Poly1305_Header_Append+0x1a>
 800d66a:	072b      	lsls	r3, r5, #28
 800d66c:	d003      	beq.n	800d676 <ChaCha20Poly1305_Header_Append+0x66>
 800d66e:	7923      	ldrb	r3, [r4, #4]
 800d670:	f043 0310 	orr.w	r3, r3, #16
 800d674:	7123      	strb	r3, [r4, #4]
 800d676:	6963      	ldr	r3, [r4, #20]
 800d678:	441d      	add	r5, r3
 800d67a:	6165      	str	r5, [r4, #20]
 800d67c:	2000      	movs	r0, #0
 800d67e:	e004      	b.n	800d68a <ChaCha20Poly1305_Header_Append+0x7a>
 800d680:	f44f 6042 	mov.w	r0, #3104	; 0xc20
 800d684:	e001      	b.n	800d68a <ChaCha20Poly1305_Header_Append+0x7a>
 800d686:	f640 401e 	movw	r0, #3102	; 0xc1e
 800d68a:	b005      	add	sp, #20
 800d68c:	bdf0      	pop	{r4, r5, r6, r7, pc}

0800d68e <ChaCha20Poly1305_Encrypt_Finish>:
 800d68e:	b5f0      	push	{r4, r5, r6, r7, lr}
 800d690:	460c      	mov	r4, r1
 800d692:	b085      	sub	sp, #20
 800d694:	4615      	mov	r5, r2
 800d696:	b1b8      	cbz	r0, 800d6c8 <ChaCha20Poly1305_Encrypt_Finish+0x3a>
 800d698:	b1b1      	cbz	r1, 800d6c8 <ChaCha20Poly1305_Encrypt_Finish+0x3a>
 800d69a:	b1ad      	cbz	r5, 800d6c8 <ChaCha20Poly1305_Encrypt_Finish+0x3a>
 800d69c:	7901      	ldrb	r1, [r0, #4]
 800d69e:	f001 0602 	and.w	r6, r1, #2
 800d6a2:	f006 07ff 	and.w	r7, r6, #255	; 0xff
 800d6a6:	b996      	cbnz	r6, 800d6ce <ChaCha20Poly1305_Encrypt_Finish+0x40>
 800d6a8:	f041 0102 	orr.w	r1, r1, #2
 800d6ac:	7101      	strb	r1, [r0, #4]
 800d6ae:	4669      	mov	r1, sp
 800d6b0:	f7ff fde2 	bl	800d278 <ChaCha20Poly1305_Common_Finish>
 800d6b4:	463b      	mov	r3, r7
 800d6b6:	f85d 2003 	ldr.w	r2, [sp, r3]
 800d6ba:	50e2      	str	r2, [r4, r3]
 800d6bc:	3304      	adds	r3, #4
 800d6be:	2b10      	cmp	r3, #16
 800d6c0:	d1f9      	bne.n	800d6b6 <ChaCha20Poly1305_Encrypt_Finish+0x28>
 800d6c2:	602b      	str	r3, [r5, #0]
 800d6c4:	2000      	movs	r0, #0
 800d6c6:	e004      	b.n	800d6d2 <ChaCha20Poly1305_Encrypt_Finish+0x44>
 800d6c8:	f44f 6042 	mov.w	r0, #3104	; 0xc20
 800d6cc:	e001      	b.n	800d6d2 <ChaCha20Poly1305_Encrypt_Finish+0x44>
 800d6ce:	f640 401e 	movw	r0, #3102	; 0xc1e
 800d6d2:	b005      	add	sp, #20
 800d6d4:	bdf0      	pop	{r4, r5, r6, r7, pc}

0800d6d6 <ChaCha20Poly1305_Decrypt_Init>:
 800d6d6:	f7ff bf11 	b.w	800d4fc <ChaCha20Poly1305_Encrypt_Init>

0800d6da <ChaCha20Poly1305_Decrypt_Append>:
 800d6da:	b513      	push	{r0, r1, r4, lr}
 800d6dc:	b168      	cbz	r0, 800d6fa <ChaCha20Poly1305_Decrypt_Append+0x20>
 800d6de:	b909      	cbnz	r1, 800d6e4 <ChaCha20Poly1305_Decrypt_Append+0xa>
 800d6e0:	2a00      	cmp	r2, #0
 800d6e2:	dc0a      	bgt.n	800d6fa <ChaCha20Poly1305_Decrypt_Append+0x20>
 800d6e4:	7904      	ldrb	r4, [r0, #4]
 800d6e6:	f014 0f06 	tst.w	r4, #6
 800d6ea:	d109      	bne.n	800d700 <ChaCha20Poly1305_Decrypt_Append+0x26>
 800d6ec:	9c04      	ldr	r4, [sp, #16]
 800d6ee:	9400      	str	r4, [sp, #0]
 800d6f0:	2401      	movs	r4, #1
 800d6f2:	9401      	str	r4, [sp, #4]
 800d6f4:	f7ff fc10 	bl	800cf18 <ChaCha20Poly1305_Append.part.36>
 800d6f8:	e004      	b.n	800d704 <ChaCha20Poly1305_Decrypt_Append+0x2a>
 800d6fa:	f44f 6042 	mov.w	r0, #3104	; 0xc20
 800d6fe:	e001      	b.n	800d704 <ChaCha20Poly1305_Decrypt_Append+0x2a>
 800d700:	f640 401e 	movw	r0, #3102	; 0xc1e
 800d704:	b002      	add	sp, #8
 800d706:	bd10      	pop	{r4, pc}

0800d708 <ChaCha20Poly1305_Decrypt_Finish>:
 800d708:	b530      	push	{r4, r5, lr}
 800d70a:	4604      	mov	r4, r0
 800d70c:	b085      	sub	sp, #20
 800d70e:	b340      	cbz	r0, 800d762 <ChaCha20Poly1305_Decrypt_Finish+0x5a>
 800d710:	6903      	ldr	r3, [r0, #16]
 800d712:	b34b      	cbz	r3, 800d768 <ChaCha20Poly1305_Decrypt_Finish+0x60>
 800d714:	7903      	ldrb	r3, [r0, #4]
 800d716:	f003 0202 	and.w	r2, r3, #2
 800d71a:	f002 05ff 	and.w	r5, r2, #255	; 0xff
 800d71e:	bb32      	cbnz	r2, 800d76e <ChaCha20Poly1305_Decrypt_Finish+0x66>
 800d720:	f043 0302 	orr.w	r3, r3, #2
 800d724:	7103      	strb	r3, [r0, #4]
 800d726:	4669      	mov	r1, sp
 800d728:	f7ff fda6 	bl	800d278 <ChaCha20Poly1305_Common_Finish>
 800d72c:	6924      	ldr	r4, [r4, #16]
 800d72e:	4628      	mov	r0, r5
 800d730:	462b      	mov	r3, r5
 800d732:	f023 0203 	bic.w	r2, r3, #3
 800d736:	a904      	add	r1, sp, #16
 800d738:	440a      	add	r2, r1
 800d73a:	f003 0103 	and.w	r1, r3, #3
 800d73e:	f852 2c10 	ldr.w	r2, [r2, #-16]
 800d742:	00c9      	lsls	r1, r1, #3
 800d744:	40ca      	lsrs	r2, r1
 800d746:	5ce1      	ldrb	r1, [r4, r3]
 800d748:	3301      	adds	r3, #1
 800d74a:	404a      	eors	r2, r1
 800d74c:	b2d2      	uxtb	r2, r2
 800d74e:	2b10      	cmp	r3, #16
 800d750:	ea40 0002 	orr.w	r0, r0, r2
 800d754:	d1ed      	bne.n	800d732 <ChaCha20Poly1305_Decrypt_Finish+0x2a>
 800d756:	4240      	negs	r0, r0
 800d758:	43c0      	mvns	r0, r0
 800d75a:	0fc0      	lsrs	r0, r0, #31
 800d75c:	f5c0 707b 	rsb	r0, r0, #1004	; 0x3ec
 800d760:	e007      	b.n	800d772 <ChaCha20Poly1305_Decrypt_Finish+0x6a>
 800d762:	f44f 6042 	mov.w	r0, #3104	; 0xc20
 800d766:	e004      	b.n	800d772 <ChaCha20Poly1305_Decrypt_Finish+0x6a>
 800d768:	f640 401f 	movw	r0, #3103	; 0xc1f
 800d76c:	e001      	b.n	800d772 <ChaCha20Poly1305_Decrypt_Finish+0x6a>
 800d76e:	f640 401e 	movw	r0, #3102	; 0xc1e
 800d772:	b005      	add	sp, #20
 800d774:	bd30      	pop	{r4, r5, pc}

0800d776 <sc25519_from32bytes>:
 800d776:	b510      	push	{r4, lr}
 800d778:	2300      	movs	r3, #0
 800d77a:	b090      	sub	sp, #64	; 0x40
 800d77c:	f023 0203 	bic.w	r2, r3, #3
 800d780:	ac10      	add	r4, sp, #64	; 0x40
 800d782:	4422      	add	r2, r4
 800d784:	58cc      	ldr	r4, [r1, r3]
 800d786:	f842 4c40 	str.w	r4, [r2, #-64]
 800d78a:	3304      	adds	r3, #4
 800d78c:	2b20      	cmp	r3, #32
 800d78e:	d1f5      	bne.n	800d77c <sc25519_from32bytes+0x6>
 800d790:	2300      	movs	r3, #0
 800d792:	aa00      	add	r2, sp, #0
 800d794:	441a      	add	r2, r3
 800d796:	3304      	adds	r3, #4
 800d798:	2100      	movs	r1, #0
 800d79a:	2b20      	cmp	r3, #32
 800d79c:	6211      	str	r1, [r2, #32]
 800d79e:	d1f8      	bne.n	800d792 <sc25519_from32bytes+0x1c>
 800d7a0:	4669      	mov	r1, sp
 800d7a2:	f7f4 fd29 	bl	80021f8 <barrett_reduce>
 800d7a6:	b010      	add	sp, #64	; 0x40
 800d7a8:	bd10      	pop	{r4, pc}

0800d7aa <sc25519_from64bytes>:
 800d7aa:	b510      	push	{r4, lr}
 800d7ac:	2300      	movs	r3, #0
 800d7ae:	b090      	sub	sp, #64	; 0x40
 800d7b0:	f023 0203 	bic.w	r2, r3, #3
 800d7b4:	ac10      	add	r4, sp, #64	; 0x40
 800d7b6:	4422      	add	r2, r4
 800d7b8:	58cc      	ldr	r4, [r1, r3]
 800d7ba:	f842 4c40 	str.w	r4, [r2, #-64]
 800d7be:	3304      	adds	r3, #4
 800d7c0:	2b40      	cmp	r3, #64	; 0x40
 800d7c2:	d1f5      	bne.n	800d7b0 <sc25519_from64bytes+0x6>
 800d7c4:	4669      	mov	r1, sp
 800d7c6:	f7f4 fd17 	bl	80021f8 <barrett_reduce>
 800d7ca:	b010      	add	sp, #64	; 0x40
 800d7cc:	bd10      	pop	{r4, pc}

0800d7ce <sc25519_to32bytes>:
 800d7ce:	2300      	movs	r3, #0
 800d7d0:	58ca      	ldr	r2, [r1, r3]
 800d7d2:	50c2      	str	r2, [r0, r3]
 800d7d4:	3304      	adds	r3, #4
 800d7d6:	2b20      	cmp	r3, #32
 800d7d8:	d1fa      	bne.n	800d7d0 <sc25519_to32bytes+0x2>
 800d7da:	4770      	bx	lr

0800d7dc <sc25519_add>:
 800d7dc:	e92d 43f0 	stmdb	sp!, {r4, r5, r6, r7, r8, r9, lr}
 800d7e0:	2300      	movs	r3, #0
 800d7e2:	2400      	movs	r4, #0
 800d7e4:	2500      	movs	r5, #0
 800d7e6:	58d7      	ldr	r7, [r2, r3]
 800d7e8:	58ce      	ldr	r6, [r1, r3]
 800d7ea:	f04f 0900 	mov.w	r9, #0
 800d7ee:	eb16 0807 	adds.w	r8, r6, r7
 800d7f2:	f149 0900 	adc.w	r9, r9, #0
 800d7f6:	eb18 0604 	adds.w	r6, r8, r4
 800d7fa:	50c6      	str	r6, [r0, r3]
 800d7fc:	f103 0304 	add.w	r3, r3, #4
 800d800:	eb49 0705 	adc.w	r7, r9, r5
 800d804:	2b20      	cmp	r3, #32
 800d806:	463c      	mov	r4, r7
 800d808:	f04f 0500 	mov.w	r5, #0
 800d80c:	d1eb      	bne.n	800d7e6 <sc25519_add+0xa>
 800d80e:	e8bd 43f0 	ldmia.w	sp!, {r4, r5, r6, r7, r8, r9, lr}
 800d812:	f7f4 bcc7 	b.w	80021a4 <reduce_add_sub>

0800d816 <sc25519_mul>:
 800d816:	e92d 47f0 	stmdb	sp!, {r4, r5, r6, r7, r8, r9, sl, lr}
 800d81a:	b090      	sub	sp, #64	; 0x40
 800d81c:	4680      	mov	r8, r0
 800d81e:	468a      	mov	sl, r1
 800d820:	4691      	mov	r9, r2
 800d822:	2100      	movs	r1, #0
 800d824:	4668      	mov	r0, sp
 800d826:	2240      	movs	r2, #64	; 0x40
 800d828:	f001 f88b 	bl	800e942 <memset>
 800d82c:	2100      	movs	r1, #0
 800d82e:	f859 e001 	ldr.w	lr, [r9, r1]
 800d832:	2200      	movs	r2, #0
 800d834:	2400      	movs	r4, #0
 800d836:	2500      	movs	r5, #0
 800d838:	a800      	add	r0, sp, #0
 800d83a:	4408      	add	r0, r1
 800d83c:	f85a 3002 	ldr.w	r3, [sl, r2]
 800d840:	5886      	ldr	r6, [r0, r2]
 800d842:	2700      	movs	r7, #0
 800d844:	fbee 6703 	umlal	r6, r7, lr, r3
 800d848:	1936      	adds	r6, r6, r4
 800d84a:	5086      	str	r6, [r0, r2]
 800d84c:	f102 0204 	add.w	r2, r2, #4
 800d850:	eb47 0705 	adc.w	r7, r7, r5
 800d854:	2a20      	cmp	r2, #32
 800d856:	463c      	mov	r4, r7
 800d858:	f04f 0500 	mov.w	r5, #0
 800d85c:	d1ec      	bne.n	800d838 <sc25519_mul+0x22>
 800d85e:	3104      	adds	r1, #4
 800d860:	2920      	cmp	r1, #32
 800d862:	6207      	str	r7, [r0, #32]
 800d864:	d1e3      	bne.n	800d82e <sc25519_mul+0x18>
 800d866:	4640      	mov	r0, r8
 800d868:	4669      	mov	r1, sp
 800d86a:	f7f4 fcc5 	bl	80021f8 <barrett_reduce>
 800d86e:	b010      	add	sp, #64	; 0x40
 800d870:	e8bd 87f0 	ldmia.w	sp!, {r4, r5, r6, r7, r8, r9, sl, pc}

0800d874 <fe25519_unpack>:
 800d874:	b510      	push	{r4, lr}
 800d876:	2300      	movs	r3, #0
 800d878:	58ca      	ldr	r2, [r1, r3]
 800d87a:	109c      	asrs	r4, r3, #2
 800d87c:	3304      	adds	r3, #4
 800d87e:	2b20      	cmp	r3, #32
 800d880:	f840 2024 	str.w	r2, [r0, r4, lsl #2]
 800d884:	d1f8      	bne.n	800d878 <fe25519_unpack+0x4>
 800d886:	69c3      	ldr	r3, [r0, #28]
 800d888:	f023 4300 	bic.w	r3, r3, #2147483648	; 0x80000000
 800d88c:	61c3      	str	r3, [r0, #28]
 800d88e:	bd10      	pop	{r4, pc}

0800d890 <fe25519_cmov>:
 800d890:	b530      	push	{r4, r5, lr}
 800d892:	4252      	negs	r2, r2
 800d894:	2300      	movs	r3, #0
 800d896:	58c4      	ldr	r4, [r0, r3]
 800d898:	58cd      	ldr	r5, [r1, r3]
 800d89a:	4065      	eors	r5, r4
 800d89c:	4015      	ands	r5, r2
 800d89e:	406c      	eors	r4, r5
 800d8a0:	50c4      	str	r4, [r0, r3]
 800d8a2:	3304      	adds	r3, #4
 800d8a4:	2b20      	cmp	r3, #32
 800d8a6:	d1f6      	bne.n	800d896 <fe25519_cmov+0x6>
 800d8a8:	bd30      	pop	{r4, r5, pc}

0800d8aa <fe25519_copy>:
 800d8aa:	2300      	movs	r3, #0
 800d8ac:	58ca      	ldr	r2, [r1, r3]
 800d8ae:	50c2      	str	r2, [r0, r3]
 800d8b0:	3304      	adds	r3, #4
 800d8b2:	2b20      	cmp	r3, #32
 800d8b4:	d1fa      	bne.n	800d8ac <fe25519_copy+0x2>
 800d8b6:	4770      	bx	lr

0800d8b8 <fe25519_setone>:
 800d8b8:	2301      	movs	r3, #1
 800d8ba:	6003      	str	r3, [r0, #0]
 800d8bc:	2300      	movs	r3, #0
 800d8be:	18c2      	adds	r2, r0, r3
 800d8c0:	3304      	adds	r3, #4
 800d8c2:	2100      	movs	r1, #0
 800d8c4:	2b1c      	cmp	r3, #28
 800d8c6:	6051      	str	r1, [r2, #4]
 800d8c8:	d1f9      	bne.n	800d8be <fe25519_setone+0x6>
 800d8ca:	4770      	bx	lr

0800d8cc <fe25519_setzero>:
 800d8cc:	2300      	movs	r3, #0
 800d8ce:	2200      	movs	r2, #0
 800d8d0:	50c2      	str	r2, [r0, r3]
 800d8d2:	3304      	adds	r3, #4
 800d8d4:	2b20      	cmp	r3, #32
 800d8d6:	d1fa      	bne.n	800d8ce <fe25519_setzero+0x2>
 800d8d8:	4770      	bx	lr

0800d8da <setneutral>:
 800d8da:	b510      	push	{r4, lr}
 800d8dc:	4604      	mov	r4, r0
 800d8de:	f7ff fff5 	bl	800d8cc <fe25519_setzero>
 800d8e2:	f104 0020 	add.w	r0, r4, #32
 800d8e6:	f7ff ffe7 	bl	800d8b8 <fe25519_setone>
 800d8ea:	f104 0040 	add.w	r0, r4, #64	; 0x40
 800d8ee:	f7ff ffe3 	bl	800d8b8 <fe25519_setone>
 800d8f2:	f104 0060 	add.w	r0, r4, #96	; 0x60
 800d8f6:	e8bd 4010 	ldmia.w	sp!, {r4, lr}
 800d8fa:	f7ff bfe7 	b.w	800d8cc <fe25519_setzero>

0800d8fe <fe25519_add>:
 800d8fe:	e92d 43f0 	stmdb	sp!, {r4, r5, r6, r7, r8, r9, lr}
 800d902:	2300      	movs	r3, #0
 800d904:	b089      	sub	sp, #36	; 0x24
 800d906:	2400      	movs	r4, #0
 800d908:	2500      	movs	r5, #0
 800d90a:	58d7      	ldr	r7, [r2, r3]
 800d90c:	58ce      	ldr	r6, [r1, r3]
 800d90e:	f04f 0900 	mov.w	r9, #0
 800d912:	eb16 0807 	adds.w	r8, r6, r7
 800d916:	f149 0900 	adc.w	r9, r9, #0
 800d91a:	eb18 0604 	adds.w	r6, r8, r4
 800d91e:	f84d 6003 	str.w	r6, [sp, r3]
 800d922:	f103 0304 	add.w	r3, r3, #4
 800d926:	eb49 0705 	adc.w	r7, r9, r5
 800d92a:	2b20      	cmp	r3, #32
 800d92c:	463c      	mov	r4, r7
 800d92e:	f04f 0500 	mov.w	r5, #0
 800d932:	d1ea      	bne.n	800d90a <fe25519_add+0xc>
 800d934:	4669      	mov	r1, sp
 800d936:	463a      	mov	r2, r7
 800d938:	f7f4 fd3a 	bl	80023b0 <reduceRS>
 800d93c:	b009      	add	sp, #36	; 0x24
 800d93e:	e8bd 83f0 	ldmia.w	sp!, {r4, r5, r6, r7, r8, r9, pc}

0800d942 <fe25519_sub>:
 800d942:	b5f0      	push	{r4, r5, r6, r7, lr}
 800d944:	2300      	movs	r3, #0
 800d946:	b089      	sub	sp, #36	; 0x24
 800d948:	2400      	movs	r4, #0
 800d94a:	2500      	movs	r5, #0
 800d94c:	58cf      	ldr	r7, [r1, r3]
 800d94e:	58d6      	ldr	r6, [r2, r3]
 800d950:	1bbe      	subs	r6, r7, r6
 800d952:	eb67 0707 	sbc.w	r7, r7, r7
 800d956:	1936      	adds	r6, r6, r4
 800d958:	f84d 6003 	str.w	r6, [sp, r3]
 800d95c:	f103 0304 	add.w	r3, r3, #4
 800d960:	eb47 0705 	adc.w	r7, r7, r5
 800d964:	2b20      	cmp	r3, #32
 800d966:	463c      	mov	r4, r7
 800d968:	ea4f 75e7 	mov.w	r5, r7, asr #31
 800d96c:	d1ee      	bne.n	800d94c <fe25519_sub+0xa>
 800d96e:	2126      	movs	r1, #38	; 0x26
 800d970:	fba7 2301 	umull	r2, r3, r7, r1
 800d974:	fb01 3305 	mla	r3, r1, r5, r3
 800d978:	9900      	ldr	r1, [sp, #0]
 800d97a:	1854      	adds	r4, r2, r1
 800d97c:	f143 0500 	adc.w	r5, r3, #0
 800d980:	6004      	str	r4, [r0, #0]
 800d982:	462a      	mov	r2, r5
 800d984:	17eb      	asrs	r3, r5, #31
 800d986:	2100      	movs	r1, #0
 800d988:	ac00      	add	r4, sp, #0
 800d98a:	440c      	add	r4, r1
 800d98c:	6866      	ldr	r6, [r4, #4]
 800d98e:	1994      	adds	r4, r2, r6
 800d990:	eb00 0601 	add.w	r6, r0, r1
 800d994:	f101 0104 	add.w	r1, r1, #4
 800d998:	f143 0500 	adc.w	r5, r3, #0
 800d99c:	291c      	cmp	r1, #28
 800d99e:	6074      	str	r4, [r6, #4]
 800d9a0:	462a      	mov	r2, r5
 800d9a2:	ea4f 73e5 	mov.w	r3, r5, asr #31
 800d9a6:	d1ef      	bne.n	800d988 <fe25519_sub+0x46>
 800d9a8:	6803      	ldr	r3, [r0, #0]
 800d9aa:	2126      	movs	r1, #38	; 0x26
 800d9ac:	fb01 3205 	mla	r2, r1, r5, r3
 800d9b0:	6002      	str	r2, [r0, #0]
 800d9b2:	b009      	add	sp, #36	; 0x24
 800d9b4:	bdf0      	pop	{r4, r5, r6, r7, pc}

0800d9b6 <fe25519_neg>:
 800d9b6:	b510      	push	{r4, lr}
 800d9b8:	2300      	movs	r3, #0
 800d9ba:	b088      	sub	sp, #32
 800d9bc:	4604      	mov	r4, r0
 800d9be:	58ca      	ldr	r2, [r1, r3]
 800d9c0:	f84d 2003 	str.w	r2, [sp, r3]
 800d9c4:	3304      	adds	r3, #4
 800d9c6:	2b20      	cmp	r3, #32
 800d9c8:	d1f9      	bne.n	800d9be <fe25519_neg+0x8>
 800d9ca:	4620      	mov	r0, r4
 800d9cc:	f7ff ff7e 	bl	800d8cc <fe25519_setzero>
 800d9d0:	4620      	mov	r0, r4
 800d9d2:	4621      	mov	r1, r4
 800d9d4:	466a      	mov	r2, sp
 800d9d6:	f7ff ffb4 	bl	800d942 <fe25519_sub>
 800d9da:	b008      	add	sp, #32
 800d9dc:	bd10      	pop	{r4, pc}

0800d9de <fe25519_freeze>:
 800d9de:	b5f0      	push	{r4, r5, r6, r7, lr}
 800d9e0:	69c3      	ldr	r3, [r0, #28]
 800d9e2:	6802      	ldr	r2, [r0, #0]
 800d9e4:	17db      	asrs	r3, r3, #31
 800d9e6:	f003 0113 	and.w	r1, r3, #19
 800d9ea:	1852      	adds	r2, r2, r1
 800d9ec:	f04f 0300 	mov.w	r3, #0
 800d9f0:	b089      	sub	sp, #36	; 0x24
 800d9f2:	f143 0300 	adc.w	r3, r3, #0
 800d9f6:	2100      	movs	r1, #0
 800d9f8:	5042      	str	r2, [r0, r1]
 800d9fa:	461c      	mov	r4, r3
 800d9fc:	1843      	adds	r3, r0, r1
 800d9fe:	2500      	movs	r5, #0
 800da00:	685e      	ldr	r6, [r3, #4]
 800da02:	3104      	adds	r1, #4
 800da04:	19a2      	adds	r2, r4, r6
 800da06:	f145 0300 	adc.w	r3, r5, #0
 800da0a:	291c      	cmp	r1, #28
 800da0c:	d1f4      	bne.n	800d9f8 <fe25519_freeze+0x1a>
 800da0e:	f022 4200 	bic.w	r2, r2, #2147483648	; 0x80000000
 800da12:	462b      	mov	r3, r5
 800da14:	61c2      	str	r2, [r0, #28]
 800da16:	2413      	movs	r4, #19
 800da18:	2500      	movs	r5, #0
 800da1a:	58c1      	ldr	r1, [r0, r3]
 800da1c:	1866      	adds	r6, r4, r1
 800da1e:	f84d 6003 	str.w	r6, [sp, r3]
 800da22:	f103 0304 	add.w	r3, r3, #4
 800da26:	f145 0700 	adc.w	r7, r5, #0
 800da2a:	2b1c      	cmp	r3, #28
 800da2c:	463c      	mov	r4, r7
 800da2e:	f04f 0500 	mov.w	r5, #0
 800da32:	d1f2      	bne.n	800da1a <fe25519_freeze+0x3c>
 800da34:	18bc      	adds	r4, r7, r2
 800da36:	f145 0500 	adc.w	r5, r5, #0
 800da3a:	0fe2      	lsrs	r2, r4, #31
 800da3c:	ea42 0245 	orr.w	r2, r2, r5, lsl #1
 800da40:	f024 4300 	bic.w	r3, r4, #2147483648	; 0x80000000
 800da44:	4669      	mov	r1, sp
 800da46:	b2d2      	uxtb	r2, r2
 800da48:	9307      	str	r3, [sp, #28]
 800da4a:	f7ff ff21 	bl	800d890 <fe25519_cmov>
 800da4e:	b009      	add	sp, #36	; 0x24
 800da50:	bdf0      	pop	{r4, r5, r6, r7, pc}

0800da52 <fe25519_pack>:
 800da52:	b570      	push	{r4, r5, r6, lr}
 800da54:	460d      	mov	r5, r1
 800da56:	4606      	mov	r6, r0
 800da58:	cd0f      	ldmia	r5!, {r0, r1, r2, r3}
 800da5a:	b088      	sub	sp, #32
 800da5c:	466c      	mov	r4, sp
 800da5e:	c40f      	stmia	r4!, {r0, r1, r2, r3}
 800da60:	e895 000f 	ldmia.w	r5, {r0, r1, r2, r3}
 800da64:	e884 000f 	stmia.w	r4, {r0, r1, r2, r3}
 800da68:	4668      	mov	r0, sp
 800da6a:	f7ff ffb8 	bl	800d9de <fe25519_freeze>
 800da6e:	2300      	movs	r3, #0
 800da70:	f85d 2003 	ldr.w	r2, [sp, r3]
 800da74:	50f2      	str	r2, [r6, r3]
 800da76:	3304      	adds	r3, #4
 800da78:	2b20      	cmp	r3, #32
 800da7a:	d1f9      	bne.n	800da70 <fe25519_pack+0x1e>
 800da7c:	b008      	add	sp, #32
 800da7e:	bd70      	pop	{r4, r5, r6, pc}

0800da80 <fe25519_iseq_vartime>:
 800da80:	b570      	push	{r4, r5, r6, lr}
 800da82:	4606      	mov	r6, r0
 800da84:	460d      	mov	r5, r1
 800da86:	ce0f      	ldmia	r6!, {r0, r1, r2, r3}
 800da88:	b090      	sub	sp, #64	; 0x40
 800da8a:	466c      	mov	r4, sp
 800da8c:	c40f      	stmia	r4!, {r0, r1, r2, r3}
 800da8e:	e896 000f 	ldmia.w	r6, {r0, r1, r2, r3}
 800da92:	e884 000f 	stmia.w	r4, {r0, r1, r2, r3}
 800da96:	cd0f      	ldmia	r5!, {r0, r1, r2, r3}
 800da98:	ac08      	add	r4, sp, #32
 800da9a:	c40f      	stmia	r4!, {r0, r1, r2, r3}
 800da9c:	e895 000f 	ldmia.w	r5, {r0, r1, r2, r3}
 800daa0:	e884 000f 	stmia.w	r4, {r0, r1, r2, r3}
 800daa4:	4668      	mov	r0, sp
 800daa6:	ac08      	add	r4, sp, #32
 800daa8:	f7ff ff99 	bl	800d9de <fe25519_freeze>
 800daac:	4620      	mov	r0, r4
 800daae:	f7ff ff96 	bl	800d9de <fe25519_freeze>
 800dab2:	2300      	movs	r3, #0
 800dab4:	f85d 1003 	ldr.w	r1, [sp, r3]
 800dab8:	58e2      	ldr	r2, [r4, r3]
 800daba:	4291      	cmp	r1, r2
 800dabc:	d104      	bne.n	800dac8 <fe25519_iseq_vartime+0x48>
 800dabe:	3304      	adds	r3, #4
 800dac0:	2b20      	cmp	r3, #32
 800dac2:	d1f7      	bne.n	800dab4 <fe25519_iseq_vartime+0x34>
 800dac4:	2001      	movs	r0, #1
 800dac6:	e000      	b.n	800daca <fe25519_iseq_vartime+0x4a>
 800dac8:	2000      	movs	r0, #0
 800daca:	b010      	add	sp, #64	; 0x40
 800dacc:	bd70      	pop	{r4, r5, r6, pc}

0800dace <fe25519_getparity>:
 800dace:	b530      	push	{r4, r5, lr}
 800dad0:	4605      	mov	r5, r0
 800dad2:	cd0f      	ldmia	r5!, {r0, r1, r2, r3}
 800dad4:	b089      	sub	sp, #36	; 0x24
 800dad6:	466c      	mov	r4, sp
 800dad8:	c40f      	stmia	r4!, {r0, r1, r2, r3}
 800dada:	e895 000f 	ldmia.w	r5, {r0, r1, r2, r3}
 800dade:	e884 000f 	stmia.w	r4, {r0, r1, r2, r3}
 800dae2:	4668      	mov	r0, sp
 800dae4:	f7ff ff7b 	bl	800d9de <fe25519_freeze>
 800dae8:	9800      	ldr	r0, [sp, #0]
 800daea:	f000 0001 	and.w	r0, r0, #1
 800daee:	b009      	add	sp, #36	; 0x24
 800daf0:	bd30      	pop	{r4, r5, pc}

0800daf2 <fe25519_mul>:
 800daf2:	e92d 4ff0 	stmdb	sp!, {r4, r5, r6, r7, r8, r9, sl, fp, lr}
 800daf6:	4616      	mov	r6, r2
 800daf8:	b0a7      	sub	sp, #156	; 0x9c
 800dafa:	4604      	mov	r4, r0
 800dafc:	460d      	mov	r5, r1
 800dafe:	a816      	add	r0, sp, #88	; 0x58
 800db00:	2100      	movs	r1, #0
 800db02:	2240      	movs	r2, #64	; 0x40
 800db04:	f000 ff1d 	bl	800e942 <memset>
 800db08:	6831      	ldr	r1, [r6, #0]
 800db0a:	6873      	ldr	r3, [r6, #4]
 800db0c:	68b7      	ldr	r7, [r6, #8]
 800db0e:	9112      	str	r1, [sp, #72]	; 0x48
 800db10:	9313      	str	r3, [sp, #76]	; 0x4c
 800db12:	68f1      	ldr	r1, [r6, #12]
 800db14:	6933      	ldr	r3, [r6, #16]
 800db16:	9703      	str	r7, [sp, #12]
 800db18:	f8d6 c018 	ldr.w	ip, [r6, #24]
 800db1c:	6977      	ldr	r7, [r6, #20]
 800db1e:	69f6      	ldr	r6, [r6, #28]
 800db20:	9601      	str	r6, [sp, #4]
 800db22:	9102      	str	r1, [sp, #8]
 800db24:	9314      	str	r3, [sp, #80]	; 0x50
 800db26:	9715      	str	r7, [sp, #84]	; 0x54
 800db28:	2600      	movs	r6, #0
 800db2a:	f106 0a58 	add.w	sl, r6, #88	; 0x58
 800db2e:	46e8      	mov	r8, sp
 800db30:	59a8      	ldr	r0, [r5, r6]
 800db32:	f85a 2008 	ldr.w	r2, [sl, r8]
 800db36:	9912      	ldr	r1, [sp, #72]	; 0x48
 800db38:	9f13      	ldr	r7, [sp, #76]	; 0x4c
 800db3a:	2300      	movs	r3, #0
 800db3c:	fbe1 2300 	umlal	r2, r3, r1, r0
 800db40:	a916      	add	r1, sp, #88	; 0x58
 800db42:	4431      	add	r1, r6
 800db44:	f84a 2008 	str.w	r2, [sl, r8]
 800db48:	684a      	ldr	r2, [r1, #4]
 800db4a:	4698      	mov	r8, r3
 800db4c:	2300      	movs	r3, #0
 800db4e:	fbe7 2300 	umlal	r2, r3, r7, r0
 800db52:	f04f 0900 	mov.w	r9, #0
 800db56:	eb12 0208 	adds.w	r2, r2, r8
 800db5a:	eb43 0309 	adc.w	r3, r3, r9
 800db5e:	9304      	str	r3, [sp, #16]
 800db60:	f8cd 9014 	str.w	r9, [sp, #20]
 800db64:	e9dd ab04 	ldrd	sl, fp, [sp, #16]
 800db68:	9f03      	ldr	r7, [sp, #12]
 800db6a:	604a      	str	r2, [r1, #4]
 800db6c:	688a      	ldr	r2, [r1, #8]
 800db6e:	f8cd 901c 	str.w	r9, [sp, #28]
 800db72:	2300      	movs	r3, #0
 800db74:	fbe7 2300 	umlal	r2, r3, r7, r0
 800db78:	eb12 020a 	adds.w	r2, r2, sl
 800db7c:	eb43 030b 	adc.w	r3, r3, fp
 800db80:	9306      	str	r3, [sp, #24]
 800db82:	e9dd ab06 	ldrd	sl, fp, [sp, #24]
 800db86:	9f02      	ldr	r7, [sp, #8]
 800db88:	608a      	str	r2, [r1, #8]
 800db8a:	68ca      	ldr	r2, [r1, #12]
 800db8c:	f8cd 9024 	str.w	r9, [sp, #36]	; 0x24
 800db90:	2300      	movs	r3, #0
 800db92:	fbe7 2300 	umlal	r2, r3, r7, r0
 800db96:	eb12 020a 	adds.w	r2, r2, sl
 800db9a:	eb43 030b 	adc.w	r3, r3, fp
 800db9e:	9308      	str	r3, [sp, #32]
 800dba0:	e9dd ab08 	ldrd	sl, fp, [sp, #32]
 800dba4:	9f14      	ldr	r7, [sp, #80]	; 0x50
 800dba6:	60ca      	str	r2, [r1, #12]
 800dba8:	690a      	ldr	r2, [r1, #16]
 800dbaa:	f8cd 902c 	str.w	r9, [sp, #44]	; 0x2c
 800dbae:	2300      	movs	r3, #0
 800dbb0:	fbe7 2300 	umlal	r2, r3, r7, r0
 800dbb4:	eb12 020a 	adds.w	r2, r2, sl
 800dbb8:	eb43 030b 	adc.w	r3, r3, fp
 800dbbc:	930a      	str	r3, [sp, #40]	; 0x28
 800dbbe:	e9dd ab0a 	ldrd	sl, fp, [sp, #40]	; 0x28
 800dbc2:	9f15      	ldr	r7, [sp, #84]	; 0x54
 800dbc4:	610a      	str	r2, [r1, #16]
 800dbc6:	694a      	ldr	r2, [r1, #20]
 800dbc8:	f8cd 9034 	str.w	r9, [sp, #52]	; 0x34
 800dbcc:	2300      	movs	r3, #0
 800dbce:	fbe7 2300 	umlal	r2, r3, r7, r0
 800dbd2:	eb12 020a 	adds.w	r2, r2, sl
 800dbd6:	eb43 030b 	adc.w	r3, r3, fp
 800dbda:	930c      	str	r3, [sp, #48]	; 0x30
 800dbdc:	e9dd ab0c 	ldrd	sl, fp, [sp, #48]	; 0x30
 800dbe0:	614a      	str	r2, [r1, #20]
 800dbe2:	698a      	ldr	r2, [r1, #24]
 800dbe4:	2300      	movs	r3, #0
 800dbe6:	fbec 2300 	umlal	r2, r3, ip, r0
 800dbea:	eb12 020a 	adds.w	r2, r2, sl
 800dbee:	eb43 030b 	adc.w	r3, r3, fp
 800dbf2:	618a      	str	r2, [r1, #24]
 800dbf4:	930e      	str	r3, [sp, #56]	; 0x38
 800dbf6:	f8cd 903c 	str.w	r9, [sp, #60]	; 0x3c
 800dbfa:	69ca      	ldr	r2, [r1, #28]
 800dbfc:	9f01      	ldr	r7, [sp, #4]
 800dbfe:	e9dd ab0e 	ldrd	sl, fp, [sp, #56]	; 0x38
 800dc02:	2300      	movs	r3, #0
 800dc04:	fbe7 2300 	umlal	r2, r3, r7, r0
 800dc08:	eb12 020a 	adds.w	r2, r2, sl
 800dc0c:	f106 0604 	add.w	r6, r6, #4
 800dc10:	eb43 030b 	adc.w	r3, r3, fp
 800dc14:	2e20      	cmp	r6, #32
 800dc16:	61ca      	str	r2, [r1, #28]
 800dc18:	620b      	str	r3, [r1, #32]
 800dc1a:	d186      	bne.n	800db2a <fe25519_mul+0x38>
 800dc1c:	991e      	ldr	r1, [sp, #120]	; 0x78
 800dc1e:	9a16      	ldr	r2, [sp, #88]	; 0x58
 800dc20:	9e1f      	ldr	r6, [sp, #124]	; 0x7c
 800dc22:	2526      	movs	r5, #38	; 0x26
 800dc24:	2300      	movs	r3, #0
 800dc26:	fbe5 2301 	umlal	r2, r3, r5, r1
 800dc2a:	6022      	str	r2, [r4, #0]
 800dc2c:	9a17      	ldr	r2, [sp, #92]	; 0x5c
 800dc2e:	4618      	mov	r0, r3
 800dc30:	2300      	movs	r3, #0
 800dc32:	fbe5 2306 	umlal	r2, r3, r5, r6
 800dc36:	1880      	adds	r0, r0, r2
 800dc38:	eb49 0103 	adc.w	r1, r9, r3
 800dc3c:	9e20      	ldr	r6, [sp, #128]	; 0x80
 800dc3e:	6060      	str	r0, [r4, #4]
 800dc40:	9818      	ldr	r0, [sp, #96]	; 0x60
 800dc42:	460a      	mov	r2, r1
 800dc44:	2100      	movs	r1, #0
 800dc46:	fbe5 0106 	umlal	r0, r1, r5, r6
 800dc4a:	1880      	adds	r0, r0, r2
 800dc4c:	eb41 0109 	adc.w	r1, r1, r9
 800dc50:	9e21      	ldr	r6, [sp, #132]	; 0x84
 800dc52:	60a0      	str	r0, [r4, #8]
 800dc54:	9819      	ldr	r0, [sp, #100]	; 0x64
 800dc56:	460a      	mov	r2, r1
 800dc58:	2100      	movs	r1, #0
 800dc5a:	fbe5 0106 	umlal	r0, r1, r5, r6
 800dc5e:	1880      	adds	r0, r0, r2
 800dc60:	eb41 0109 	adc.w	r1, r1, r9
 800dc64:	9e22      	ldr	r6, [sp, #136]	; 0x88
 800dc66:	60e0      	str	r0, [r4, #12]
 800dc68:	981a      	ldr	r0, [sp, #104]	; 0x68
 800dc6a:	460a      	mov	r2, r1
 800dc6c:	2100      	movs	r1, #0
 800dc6e:	fbe5 0106 	umlal	r0, r1, r5, r6
 800dc72:	1880      	adds	r0, r0, r2
 800dc74:	eb41 0109 	adc.w	r1, r1, r9
 800dc78:	9e23      	ldr	r6, [sp, #140]	; 0x8c
 800dc7a:	6120      	str	r0, [r4, #16]
 800dc7c:	981b      	ldr	r0, [sp, #108]	; 0x6c
 800dc7e:	460a      	mov	r2, r1
 800dc80:	2100      	movs	r1, #0
 800dc82:	fbe5 0106 	umlal	r0, r1, r5, r6
 800dc86:	1880      	adds	r0, r0, r2
 800dc88:	eb41 0109 	adc.w	r1, r1, r9
 800dc8c:	9e24      	ldr	r6, [sp, #144]	; 0x90
 800dc8e:	6160      	str	r0, [r4, #20]
 800dc90:	981c      	ldr	r0, [sp, #112]	; 0x70
 800dc92:	460a      	mov	r2, r1
 800dc94:	2100      	movs	r1, #0
 800dc96:	fbe5 0106 	umlal	r0, r1, r5, r6
 800dc9a:	1880      	adds	r0, r0, r2
 800dc9c:	eb41 0109 	adc.w	r1, r1, r9
 800dca0:	61a0      	str	r0, [r4, #24]
 800dca2:	9e25      	ldr	r6, [sp, #148]	; 0x94
 800dca4:	981d      	ldr	r0, [sp, #116]	; 0x74
 800dca6:	460a      	mov	r2, r1
 800dca8:	2100      	movs	r1, #0
 800dcaa:	fbe5 0106 	umlal	r0, r1, r5, r6
 800dcae:	1880      	adds	r0, r0, r2
 800dcb0:	eb41 0109 	adc.w	r1, r1, r9
 800dcb4:	61e0      	str	r0, [r4, #28]
 800dcb6:	460a      	mov	r2, r1
 800dcb8:	4620      	mov	r0, r4
 800dcba:	4621      	mov	r1, r4
 800dcbc:	b027      	add	sp, #156	; 0x9c
 800dcbe:	e8bd 4ff0 	ldmia.w	sp!, {r4, r5, r6, r7, r8, r9, sl, fp, lr}
 800dcc2:	f7f4 bb75 	b.w	80023b0 <reduceRS>

0800dcc6 <ed25519_double>:
 800dcc6:	b570      	push	{r4, r5, r6, lr}
 800dcc8:	460d      	mov	r5, r1
 800dcca:	b0b8      	sub	sp, #224	; 0xe0
 800dccc:	4604      	mov	r4, r0
 800dcce:	f105 0620 	add.w	r6, r5, #32
 800dcd2:	4668      	mov	r0, sp
 800dcd4:	460a      	mov	r2, r1
 800dcd6:	f7ff ff0c 	bl	800daf2 <fe25519_mul>
 800dcda:	a808      	add	r0, sp, #32
 800dcdc:	4631      	mov	r1, r6
 800dcde:	4632      	mov	r2, r6
 800dce0:	f7ff ff07 	bl	800daf2 <fe25519_mul>
 800dce4:	f105 0140 	add.w	r1, r5, #64	; 0x40
 800dce8:	a810      	add	r0, sp, #64	; 0x40
 800dcea:	460a      	mov	r2, r1
 800dcec:	f7ff ff01 	bl	800daf2 <fe25519_mul>
 800dcf0:	a810      	add	r0, sp, #64	; 0x40
 800dcf2:	4601      	mov	r1, r0
 800dcf4:	4602      	mov	r2, r0
 800dcf6:	f7ff fe02 	bl	800d8fe <fe25519_add>
 800dcfa:	a820      	add	r0, sp, #128	; 0x80
 800dcfc:	4629      	mov	r1, r5
 800dcfe:	4632      	mov	r2, r6
 800dd00:	f7ff fdfd 	bl	800d8fe <fe25519_add>
 800dd04:	a920      	add	r1, sp, #128	; 0x80
 800dd06:	a818      	add	r0, sp, #96	; 0x60
 800dd08:	460a      	mov	r2, r1
 800dd0a:	f7ff fef2 	bl	800daf2 <fe25519_mul>
 800dd0e:	a818      	add	r0, sp, #96	; 0x60
 800dd10:	4601      	mov	r1, r0
 800dd12:	466a      	mov	r2, sp
 800dd14:	f7ff fe15 	bl	800d942 <fe25519_sub>
 800dd18:	a818      	add	r0, sp, #96	; 0x60
 800dd1a:	4601      	mov	r1, r0
 800dd1c:	aa08      	add	r2, sp, #32
 800dd1e:	f7ff fe10 	bl	800d942 <fe25519_sub>
 800dd22:	a828      	add	r0, sp, #160	; 0xa0
 800dd24:	a908      	add	r1, sp, #32
 800dd26:	466a      	mov	r2, sp
 800dd28:	f7ff fe0b 	bl	800d942 <fe25519_sub>
 800dd2c:	aa10      	add	r2, sp, #64	; 0x40
 800dd2e:	a820      	add	r0, sp, #128	; 0x80
 800dd30:	a928      	add	r1, sp, #160	; 0xa0
 800dd32:	f7ff fe06 	bl	800d942 <fe25519_sub>
 800dd36:	a830      	add	r0, sp, #192	; 0xc0
 800dd38:	a908      	add	r1, sp, #32
 800dd3a:	f7ff fe3c 	bl	800d9b6 <fe25519_neg>
 800dd3e:	a830      	add	r0, sp, #192	; 0xc0
 800dd40:	4601      	mov	r1, r0
 800dd42:	466a      	mov	r2, sp
 800dd44:	f7ff fdfd 	bl	800d942 <fe25519_sub>
 800dd48:	4620      	mov	r0, r4
 800dd4a:	a918      	add	r1, sp, #96	; 0x60
 800dd4c:	aa20      	add	r2, sp, #128	; 0x80
 800dd4e:	f7ff fed0 	bl	800daf2 <fe25519_mul>
 800dd52:	f104 0020 	add.w	r0, r4, #32
 800dd56:	a928      	add	r1, sp, #160	; 0xa0
 800dd58:	aa30      	add	r2, sp, #192	; 0xc0
 800dd5a:	f7ff feca 	bl	800daf2 <fe25519_mul>
 800dd5e:	f104 0060 	add.w	r0, r4, #96	; 0x60
 800dd62:	a918      	add	r1, sp, #96	; 0x60
 800dd64:	aa30      	add	r2, sp, #192	; 0xc0
 800dd66:	f7ff fec4 	bl	800daf2 <fe25519_mul>
 800dd6a:	f104 0040 	add.w	r0, r4, #64	; 0x40
 800dd6e:	a920      	add	r1, sp, #128	; 0x80
 800dd70:	aa28      	add	r2, sp, #160	; 0xa0
 800dd72:	f7ff febe 	bl	800daf2 <fe25519_mul>
 800dd76:	b038      	add	sp, #224	; 0xe0
 800dd78:	bd70      	pop	{r4, r5, r6, pc}
	...

0800dd7c <ed25519_add>:
 800dd7c:	e92d 41f0 	stmdb	sp!, {r4, r5, r6, r7, r8, lr}
 800dd80:	4614      	mov	r4, r2
 800dd82:	b0c0      	sub	sp, #256	; 0x100
 800dd84:	460d      	mov	r5, r1
 800dd86:	f101 0820 	add.w	r8, r1, #32
 800dd8a:	4606      	mov	r6, r0
 800dd8c:	4641      	mov	r1, r8
 800dd8e:	a810      	add	r0, sp, #64	; 0x40
 800dd90:	462a      	mov	r2, r5
 800dd92:	f104 0720 	add.w	r7, r4, #32
 800dd96:	f7ff fdd4 	bl	800d942 <fe25519_sub>
 800dd9a:	a818      	add	r0, sp, #96	; 0x60
 800dd9c:	4639      	mov	r1, r7
 800dd9e:	4622      	mov	r2, r4
 800dda0:	f7ff fdcf 	bl	800d942 <fe25519_sub>
 800dda4:	4668      	mov	r0, sp
 800dda6:	a910      	add	r1, sp, #64	; 0x40
 800dda8:	aa18      	add	r2, sp, #96	; 0x60
 800ddaa:	f7ff fea2 	bl	800daf2 <fe25519_mul>
 800ddae:	a810      	add	r0, sp, #64	; 0x40
 800ddb0:	4641      	mov	r1, r8
 800ddb2:	462a      	mov	r2, r5
 800ddb4:	f7ff fda3 	bl	800d8fe <fe25519_add>
 800ddb8:	a818      	add	r0, sp, #96	; 0x60
 800ddba:	4639      	mov	r1, r7
 800ddbc:	4622      	mov	r2, r4
 800ddbe:	f7ff fd9e 	bl	800d8fe <fe25519_add>
 800ddc2:	a808      	add	r0, sp, #32
 800ddc4:	a910      	add	r1, sp, #64	; 0x40
 800ddc6:	aa18      	add	r2, sp, #96	; 0x60
 800ddc8:	f7ff fe93 	bl	800daf2 <fe25519_mul>
 800ddcc:	a818      	add	r0, sp, #96	; 0x60
 800ddce:	f105 0160 	add.w	r1, r5, #96	; 0x60
 800ddd2:	f104 0260 	add.w	r2, r4, #96	; 0x60
 800ddd6:	f7ff fe8c 	bl	800daf2 <fe25519_mul>
 800ddda:	a810      	add	r0, sp, #64	; 0x40
 800dddc:	a918      	add	r1, sp, #96	; 0x60
 800ddde:	4a1e      	ldr	r2, [pc, #120]	; (800de58 <ed25519_add+0xdc>)
 800dde0:	f7ff fe87 	bl	800daf2 <fe25519_mul>
 800dde4:	a818      	add	r0, sp, #96	; 0x60
 800dde6:	f105 0140 	add.w	r1, r5, #64	; 0x40
 800ddea:	f104 0240 	add.w	r2, r4, #64	; 0x40
 800ddee:	f7ff fe80 	bl	800daf2 <fe25519_mul>
 800ddf2:	a818      	add	r0, sp, #96	; 0x60
 800ddf4:	4601      	mov	r1, r0
 800ddf6:	4602      	mov	r2, r0
 800ddf8:	f7ff fd81 	bl	800d8fe <fe25519_add>
 800ddfc:	a820      	add	r0, sp, #128	; 0x80
 800ddfe:	a908      	add	r1, sp, #32
 800de00:	466a      	mov	r2, sp
 800de02:	f7ff fd9e 	bl	800d942 <fe25519_sub>
 800de06:	a828      	add	r0, sp, #160	; 0xa0
 800de08:	a918      	add	r1, sp, #96	; 0x60
 800de0a:	aa10      	add	r2, sp, #64	; 0x40
 800de0c:	f7ff fd99 	bl	800d942 <fe25519_sub>
 800de10:	a830      	add	r0, sp, #192	; 0xc0
 800de12:	a918      	add	r1, sp, #96	; 0x60
 800de14:	aa10      	add	r2, sp, #64	; 0x40
 800de16:	f7ff fd72 	bl	800d8fe <fe25519_add>
 800de1a:	a838      	add	r0, sp, #224	; 0xe0
 800de1c:	a908      	add	r1, sp, #32
 800de1e:	466a      	mov	r2, sp
 800de20:	f7ff fd6d 	bl	800d8fe <fe25519_add>
 800de24:	4630      	mov	r0, r6
 800de26:	a920      	add	r1, sp, #128	; 0x80
 800de28:	aa28      	add	r2, sp, #160	; 0xa0
 800de2a:	f7ff fe62 	bl	800daf2 <fe25519_mul>
 800de2e:	f106 0020 	add.w	r0, r6, #32
 800de32:	a930      	add	r1, sp, #192	; 0xc0
 800de34:	aa38      	add	r2, sp, #224	; 0xe0
 800de36:	f7ff fe5c 	bl	800daf2 <fe25519_mul>
 800de3a:	f106 0060 	add.w	r0, r6, #96	; 0x60
 800de3e:	a920      	add	r1, sp, #128	; 0x80
 800de40:	aa38      	add	r2, sp, #224	; 0xe0
 800de42:	f7ff fe56 	bl	800daf2 <fe25519_mul>
 800de46:	f106 0040 	add.w	r0, r6, #64	; 0x40
 800de4a:	a928      	add	r1, sp, #160	; 0xa0
 800de4c:	aa30      	add	r2, sp, #192	; 0xc0
 800de4e:	f7ff fe50 	bl	800daf2 <fe25519_mul>
 800de52:	b040      	add	sp, #256	; 0x100
 800de54:	e8bd 81f0 	ldmia.w	sp!, {r4, r5, r6, r7, r8, pc}
 800de58:	0800f518 	.word	0x0800f518

0800de5c <ge25519_double_scalarmult_vartime>:
 800de5c:	e92d 43f0 	stmdb	sp!, {r4, r5, r6, r7, r8, r9, lr}
 800de60:	4699      	mov	r9, r3
 800de62:	b0a1      	sub	sp, #132	; 0x84
 800de64:	4688      	mov	r8, r1
 800de66:	4604      	mov	r4, r0
 800de68:	4617      	mov	r7, r2
 800de6a:	f7ff fd36 	bl	800d8da <setneutral>
 800de6e:	4668      	mov	r0, sp
 800de70:	4641      	mov	r1, r8
 800de72:	464a      	mov	r2, r9
 800de74:	f7ff ff82 	bl	800dd7c <ed25519_add>
 800de78:	25ff      	movs	r5, #255	; 0xff
 800de7a:	116a      	asrs	r2, r5, #5
 800de7c:	9828      	ldr	r0, [sp, #160]	; 0xa0
 800de7e:	f857 1022 	ldr.w	r1, [r7, r2, lsl #2]
 800de82:	f850 6022 	ldr.w	r6, [r0, r2, lsl #2]
 800de86:	f005 031f 	and.w	r3, r5, #31
 800de8a:	40d9      	lsrs	r1, r3
 800de8c:	40de      	lsrs	r6, r3
 800de8e:	f001 0101 	and.w	r1, r1, #1
 800de92:	f006 0601 	and.w	r6, r6, #1
 800de96:	ea41 0646 	orr.w	r6, r1, r6, lsl #1
 800de9a:	4620      	mov	r0, r4
 800de9c:	4621      	mov	r1, r4
 800de9e:	f7ff ff12 	bl	800dcc6 <ed25519_double>
 800dea2:	2e01      	cmp	r6, #1
 800dea4:	d103      	bne.n	800deae <ge25519_double_scalarmult_vartime+0x52>
 800dea6:	4620      	mov	r0, r4
 800dea8:	4621      	mov	r1, r4
 800deaa:	4642      	mov	r2, r8
 800deac:	e00a      	b.n	800dec4 <ge25519_double_scalarmult_vartime+0x68>
 800deae:	2e02      	cmp	r6, #2
 800deb0:	d103      	bne.n	800deba <ge25519_double_scalarmult_vartime+0x5e>
 800deb2:	4620      	mov	r0, r4
 800deb4:	4621      	mov	r1, r4
 800deb6:	464a      	mov	r2, r9
 800deb8:	e004      	b.n	800dec4 <ge25519_double_scalarmult_vartime+0x68>
 800deba:	2e03      	cmp	r6, #3
 800debc:	d104      	bne.n	800dec8 <ge25519_double_scalarmult_vartime+0x6c>
 800debe:	4620      	mov	r0, r4
 800dec0:	4621      	mov	r1, r4
 800dec2:	466a      	mov	r2, sp
 800dec4:	f7ff ff5a 	bl	800dd7c <ed25519_add>
 800dec8:	f115 35ff 	adds.w	r5, r5, #4294967295
 800decc:	d2d5      	bcs.n	800de7a <ge25519_double_scalarmult_vartime+0x1e>
 800dece:	b021      	add	sp, #132	; 0x84
 800ded0:	e8bd 83f0 	ldmia.w	sp!, {r4, r5, r6, r7, r8, r9, pc}

0800ded4 <ge25519_scalarmult_base>:
 800ded4:	b5f0      	push	{r4, r5, r6, r7, lr}
 800ded6:	b0a1      	sub	sp, #132	; 0x84
 800ded8:	4604      	mov	r4, r0
 800deda:	460f      	mov	r7, r1
 800dedc:	f7ff fcfd 	bl	800d8da <setneutral>
 800dee0:	25ff      	movs	r5, #255	; 0xff
 800dee2:	116a      	asrs	r2, r5, #5
 800dee4:	f005 031f 	and.w	r3, r5, #31
 800dee8:	f857 6022 	ldr.w	r6, [r7, r2, lsl #2]
 800deec:	4620      	mov	r0, r4
 800deee:	40de      	lsrs	r6, r3
 800def0:	4621      	mov	r1, r4
 800def2:	f7ff fee8 	bl	800dcc6 <ed25519_double>
 800def6:	f006 0601 	and.w	r6, r6, #1
 800defa:	4668      	mov	r0, sp
 800defc:	4621      	mov	r1, r4
 800defe:	4a0f      	ldr	r2, [pc, #60]	; (800df3c <ge25519_scalarmult_base+0x68>)
 800df00:	f7ff ff3c 	bl	800dd7c <ed25519_add>
 800df04:	4620      	mov	r0, r4
 800df06:	4669      	mov	r1, sp
 800df08:	4632      	mov	r2, r6
 800df0a:	f7ff fcc1 	bl	800d890 <fe25519_cmov>
 800df0e:	f104 0020 	add.w	r0, r4, #32
 800df12:	a908      	add	r1, sp, #32
 800df14:	4632      	mov	r2, r6
 800df16:	f7ff fcbb 	bl	800d890 <fe25519_cmov>
 800df1a:	f104 0040 	add.w	r0, r4, #64	; 0x40
 800df1e:	a910      	add	r1, sp, #64	; 0x40
 800df20:	4632      	mov	r2, r6
 800df22:	f7ff fcb5 	bl	800d890 <fe25519_cmov>
 800df26:	f104 0060 	add.w	r0, r4, #96	; 0x60
 800df2a:	a918      	add	r1, sp, #96	; 0x60
 800df2c:	4632      	mov	r2, r6
 800df2e:	f7ff fcaf 	bl	800d890 <fe25519_cmov>
 800df32:	f115 35ff 	adds.w	r5, r5, #4294967295
 800df36:	d2d4      	bcs.n	800dee2 <ge25519_scalarmult_base+0xe>
 800df38:	b021      	add	sp, #132	; 0x84
 800df3a:	bdf0      	pop	{r4, r5, r6, r7, pc}
 800df3c:	080102c4 	.word	0x080102c4

0800df40 <fe25519_square>:
 800df40:	460a      	mov	r2, r1
 800df42:	f7ff bdd6 	b.w	800daf2 <fe25519_mul>

0800df46 <fe25519_invert>:
 800df46:	b530      	push	{r4, r5, lr}
 800df48:	b0d1      	sub	sp, #324	; 0x144
 800df4a:	4605      	mov	r5, r0
 800df4c:	4668      	mov	r0, sp
 800df4e:	460c      	mov	r4, r1
 800df50:	f7ff fff6 	bl	800df40 <fe25519_square>
 800df54:	a848      	add	r0, sp, #288	; 0x120
 800df56:	4669      	mov	r1, sp
 800df58:	f7ff fff2 	bl	800df40 <fe25519_square>
 800df5c:	a840      	add	r0, sp, #256	; 0x100
 800df5e:	a948      	add	r1, sp, #288	; 0x120
 800df60:	f7ff ffee 	bl	800df40 <fe25519_square>
 800df64:	4622      	mov	r2, r4
 800df66:	a808      	add	r0, sp, #32
 800df68:	a940      	add	r1, sp, #256	; 0x100
 800df6a:	f7ff fdc2 	bl	800daf2 <fe25519_mul>
 800df6e:	466a      	mov	r2, sp
 800df70:	a810      	add	r0, sp, #64	; 0x40
 800df72:	a908      	add	r1, sp, #32
 800df74:	f7ff fdbd 	bl	800daf2 <fe25519_mul>
 800df78:	a840      	add	r0, sp, #256	; 0x100
 800df7a:	a910      	add	r1, sp, #64	; 0x40
 800df7c:	f7ff ffe0 	bl	800df40 <fe25519_square>
 800df80:	aa08      	add	r2, sp, #32
 800df82:	a818      	add	r0, sp, #96	; 0x60
 800df84:	a940      	add	r1, sp, #256	; 0x100
 800df86:	f7ff fdb4 	bl	800daf2 <fe25519_mul>
 800df8a:	a840      	add	r0, sp, #256	; 0x100
 800df8c:	a918      	add	r1, sp, #96	; 0x60
 800df8e:	f7ff ffd7 	bl	800df40 <fe25519_square>
 800df92:	a848      	add	r0, sp, #288	; 0x120
 800df94:	a940      	add	r1, sp, #256	; 0x100
 800df96:	f7ff ffd3 	bl	800df40 <fe25519_square>
 800df9a:	a840      	add	r0, sp, #256	; 0x100
 800df9c:	a948      	add	r1, sp, #288	; 0x120
 800df9e:	f7ff ffcf 	bl	800df40 <fe25519_square>
 800dfa2:	a848      	add	r0, sp, #288	; 0x120
 800dfa4:	a940      	add	r1, sp, #256	; 0x100
 800dfa6:	f7ff ffcb 	bl	800df40 <fe25519_square>
 800dfaa:	a840      	add	r0, sp, #256	; 0x100
 800dfac:	a948      	add	r1, sp, #288	; 0x120
 800dfae:	f7ff ffc7 	bl	800df40 <fe25519_square>
 800dfb2:	aa18      	add	r2, sp, #96	; 0x60
 800dfb4:	a820      	add	r0, sp, #128	; 0x80
 800dfb6:	a940      	add	r1, sp, #256	; 0x100
 800dfb8:	f7ff fd9b 	bl	800daf2 <fe25519_mul>
 800dfbc:	a840      	add	r0, sp, #256	; 0x100
 800dfbe:	a920      	add	r1, sp, #128	; 0x80
 800dfc0:	f7ff ffbe 	bl	800df40 <fe25519_square>
 800dfc4:	a848      	add	r0, sp, #288	; 0x120
 800dfc6:	a940      	add	r1, sp, #256	; 0x100
 800dfc8:	f7ff ffba 	bl	800df40 <fe25519_square>
 800dfcc:	2404      	movs	r4, #4
 800dfce:	a840      	add	r0, sp, #256	; 0x100
 800dfd0:	a948      	add	r1, sp, #288	; 0x120
 800dfd2:	f7ff ffb5 	bl	800df40 <fe25519_square>
 800dfd6:	a848      	add	r0, sp, #288	; 0x120
 800dfd8:	a940      	add	r1, sp, #256	; 0x100
 800dfda:	f7ff ffb1 	bl	800df40 <fe25519_square>
 800dfde:	3c01      	subs	r4, #1
 800dfe0:	d1f5      	bne.n	800dfce <fe25519_invert+0x88>
 800dfe2:	aa20      	add	r2, sp, #128	; 0x80
 800dfe4:	a828      	add	r0, sp, #160	; 0xa0
 800dfe6:	a948      	add	r1, sp, #288	; 0x120
 800dfe8:	f7ff fd83 	bl	800daf2 <fe25519_mul>
 800dfec:	a840      	add	r0, sp, #256	; 0x100
 800dfee:	a928      	add	r1, sp, #160	; 0xa0
 800dff0:	f7ff ffa6 	bl	800df40 <fe25519_square>
 800dff4:	a848      	add	r0, sp, #288	; 0x120
 800dff6:	a940      	add	r1, sp, #256	; 0x100
 800dff8:	f7ff ffa2 	bl	800df40 <fe25519_square>
 800dffc:	2409      	movs	r4, #9
 800dffe:	a840      	add	r0, sp, #256	; 0x100
 800e000:	a948      	add	r1, sp, #288	; 0x120
 800e002:	f7ff ff9d 	bl	800df40 <fe25519_square>
 800e006:	a848      	add	r0, sp, #288	; 0x120
 800e008:	a940      	add	r1, sp, #256	; 0x100
 800e00a:	f7ff ff99 	bl	800df40 <fe25519_square>
 800e00e:	3c01      	subs	r4, #1
 800e010:	d1f5      	bne.n	800dffe <fe25519_invert+0xb8>
 800e012:	aa28      	add	r2, sp, #160	; 0xa0
 800e014:	a840      	add	r0, sp, #256	; 0x100
 800e016:	a948      	add	r1, sp, #288	; 0x120
 800e018:	f7ff fd6b 	bl	800daf2 <fe25519_mul>
 800e01c:	a848      	add	r0, sp, #288	; 0x120
 800e01e:	a940      	add	r1, sp, #256	; 0x100
 800e020:	f7ff ff8e 	bl	800df40 <fe25519_square>
 800e024:	a840      	add	r0, sp, #256	; 0x100
 800e026:	a948      	add	r1, sp, #288	; 0x120
 800e028:	f7ff ff8a 	bl	800df40 <fe25519_square>
 800e02c:	2404      	movs	r4, #4
 800e02e:	a848      	add	r0, sp, #288	; 0x120
 800e030:	a940      	add	r1, sp, #256	; 0x100
 800e032:	f7ff ff85 	bl	800df40 <fe25519_square>
 800e036:	a840      	add	r0, sp, #256	; 0x100
 800e038:	a948      	add	r1, sp, #288	; 0x120
 800e03a:	f7ff ff81 	bl	800df40 <fe25519_square>
 800e03e:	3c01      	subs	r4, #1
 800e040:	d1f5      	bne.n	800e02e <fe25519_invert+0xe8>
 800e042:	aa20      	add	r2, sp, #128	; 0x80
 800e044:	a830      	add	r0, sp, #192	; 0xc0
 800e046:	a940      	add	r1, sp, #256	; 0x100
 800e048:	f7ff fd53 	bl	800daf2 <fe25519_mul>
 800e04c:	a840      	add	r0, sp, #256	; 0x100
 800e04e:	a930      	add	r1, sp, #192	; 0xc0
 800e050:	f7ff ff76 	bl	800df40 <fe25519_square>
 800e054:	a848      	add	r0, sp, #288	; 0x120
 800e056:	a940      	add	r1, sp, #256	; 0x100
 800e058:	f7ff ff72 	bl	800df40 <fe25519_square>
 800e05c:	2418      	movs	r4, #24
 800e05e:	a840      	add	r0, sp, #256	; 0x100
 800e060:	a948      	add	r1, sp, #288	; 0x120
 800e062:	f7ff ff6d 	bl	800df40 <fe25519_square>
 800e066:	a848      	add	r0, sp, #288	; 0x120
 800e068:	a940      	add	r1, sp, #256	; 0x100
 800e06a:	f7ff ff69 	bl	800df40 <fe25519_square>
 800e06e:	3c01      	subs	r4, #1
 800e070:	d1f5      	bne.n	800e05e <fe25519_invert+0x118>
 800e072:	aa30      	add	r2, sp, #192	; 0xc0
 800e074:	a838      	add	r0, sp, #224	; 0xe0
 800e076:	a948      	add	r1, sp, #288	; 0x120
 800e078:	f7ff fd3b 	bl	800daf2 <fe25519_mul>
 800e07c:	a848      	add	r0, sp, #288	; 0x120
 800e07e:	a938      	add	r1, sp, #224	; 0xe0
 800e080:	f7ff ff5e 	bl	800df40 <fe25519_square>
 800e084:	a840      	add	r0, sp, #256	; 0x100
 800e086:	a948      	add	r1, sp, #288	; 0x120
 800e088:	f7ff ff5a 	bl	800df40 <fe25519_square>
 800e08c:	2431      	movs	r4, #49	; 0x31
 800e08e:	a848      	add	r0, sp, #288	; 0x120
 800e090:	a940      	add	r1, sp, #256	; 0x100
 800e092:	f7ff ff55 	bl	800df40 <fe25519_square>
 800e096:	a840      	add	r0, sp, #256	; 0x100
 800e098:	a948      	add	r1, sp, #288	; 0x120
 800e09a:	f7ff ff51 	bl	800df40 <fe25519_square>
 800e09e:	3c01      	subs	r4, #1
 800e0a0:	d1f5      	bne.n	800e08e <fe25519_invert+0x148>
 800e0a2:	aa38      	add	r2, sp, #224	; 0xe0
 800e0a4:	a848      	add	r0, sp, #288	; 0x120
 800e0a6:	a940      	add	r1, sp, #256	; 0x100
 800e0a8:	f7ff fd23 	bl	800daf2 <fe25519_mul>
 800e0ac:	a840      	add	r0, sp, #256	; 0x100
 800e0ae:	a948      	add	r1, sp, #288	; 0x120
 800e0b0:	f7ff ff46 	bl	800df40 <fe25519_square>
 800e0b4:	a848      	add	r0, sp, #288	; 0x120
 800e0b6:	a940      	add	r1, sp, #256	; 0x100
 800e0b8:	f7ff ff42 	bl	800df40 <fe25519_square>
 800e0bc:	2418      	movs	r4, #24
 800e0be:	a840      	add	r0, sp, #256	; 0x100
 800e0c0:	a948      	add	r1, sp, #288	; 0x120
 800e0c2:	f7ff ff3d 	bl	800df40 <fe25519_square>
 800e0c6:	a848      	add	r0, sp, #288	; 0x120
 800e0c8:	a940      	add	r1, sp, #256	; 0x100
 800e0ca:	f7ff ff39 	bl	800df40 <fe25519_square>
 800e0ce:	3c01      	subs	r4, #1
 800e0d0:	d1f5      	bne.n	800e0be <fe25519_invert+0x178>
 800e0d2:	aa30      	add	r2, sp, #192	; 0xc0
 800e0d4:	a840      	add	r0, sp, #256	; 0x100
 800e0d6:	a948      	add	r1, sp, #288	; 0x120
 800e0d8:	f7ff fd0b 	bl	800daf2 <fe25519_mul>
 800e0dc:	a848      	add	r0, sp, #288	; 0x120
 800e0de:	a940      	add	r1, sp, #256	; 0x100
 800e0e0:	f7ff ff2e 	bl	800df40 <fe25519_square>
 800e0e4:	a840      	add	r0, sp, #256	; 0x100
 800e0e6:	a948      	add	r1, sp, #288	; 0x120
 800e0e8:	f7ff ff2a 	bl	800df40 <fe25519_square>
 800e0ec:	a848      	add	r0, sp, #288	; 0x120
 800e0ee:	a940      	add	r1, sp, #256	; 0x100
 800e0f0:	f7ff ff26 	bl	800df40 <fe25519_square>
 800e0f4:	a840      	add	r0, sp, #256	; 0x100
 800e0f6:	a948      	add	r1, sp, #288	; 0x120
 800e0f8:	f7ff ff22 	bl	800df40 <fe25519_square>
 800e0fc:	a848      	add	r0, sp, #288	; 0x120
 800e0fe:	a940      	add	r1, sp, #256	; 0x100
 800e100:	f7ff ff1e 	bl	800df40 <fe25519_square>
 800e104:	4628      	mov	r0, r5
 800e106:	a948      	add	r1, sp, #288	; 0x120
 800e108:	aa10      	add	r2, sp, #64	; 0x40
 800e10a:	f7ff fcf2 	bl	800daf2 <fe25519_mul>
 800e10e:	b051      	add	sp, #324	; 0x144
 800e110:	bd30      	pop	{r4, r5, pc}

0800e112 <ge25519_pack>:
 800e112:	b530      	push	{r4, r5, lr}
 800e114:	b099      	sub	sp, #100	; 0x64
 800e116:	4604      	mov	r4, r0
 800e118:	460d      	mov	r5, r1
 800e11a:	a810      	add	r0, sp, #64	; 0x40
 800e11c:	3140      	adds	r1, #64	; 0x40
 800e11e:	f7ff ff12 	bl	800df46 <fe25519_invert>
 800e122:	4668      	mov	r0, sp
 800e124:	4629      	mov	r1, r5
 800e126:	aa10      	add	r2, sp, #64	; 0x40
 800e128:	f7ff fce3 	bl	800daf2 <fe25519_mul>
 800e12c:	aa10      	add	r2, sp, #64	; 0x40
 800e12e:	a808      	add	r0, sp, #32
 800e130:	f105 0120 	add.w	r1, r5, #32
 800e134:	f7ff fcdd 	bl	800daf2 <fe25519_mul>
 800e138:	4620      	mov	r0, r4
 800e13a:	a908      	add	r1, sp, #32
 800e13c:	f7ff fc89 	bl	800da52 <fe25519_pack>
 800e140:	4668      	mov	r0, sp
 800e142:	7fe5      	ldrb	r5, [r4, #31]
 800e144:	f7ff fcc3 	bl	800dace <fe25519_getparity>
 800e148:	ea85 10c0 	eor.w	r0, r5, r0, lsl #7
 800e14c:	77e0      	strb	r0, [r4, #31]
 800e14e:	b019      	add	sp, #100	; 0x64
 800e150:	bd30      	pop	{r4, r5, pc}

0800e152 <fe25519_pow2523>:
 800e152:	b570      	push	{r4, r5, r6, lr}
 800e154:	b0c8      	sub	sp, #288	; 0x120
 800e156:	4606      	mov	r6, r0
 800e158:	4668      	mov	r0, sp
 800e15a:	460d      	mov	r5, r1
 800e15c:	f7ff fef0 	bl	800df40 <fe25519_square>
 800e160:	a840      	add	r0, sp, #256	; 0x100
 800e162:	4669      	mov	r1, sp
 800e164:	f7ff feec 	bl	800df40 <fe25519_square>
 800e168:	a840      	add	r0, sp, #256	; 0x100
 800e16a:	4601      	mov	r1, r0
 800e16c:	f7ff fee8 	bl	800df40 <fe25519_square>
 800e170:	a808      	add	r0, sp, #32
 800e172:	a940      	add	r1, sp, #256	; 0x100
 800e174:	462a      	mov	r2, r5
 800e176:	f7ff fcbc 	bl	800daf2 <fe25519_mul>
 800e17a:	466a      	mov	r2, sp
 800e17c:	a810      	add	r0, sp, #64	; 0x40
 800e17e:	a908      	add	r1, sp, #32
 800e180:	f7ff fcb7 	bl	800daf2 <fe25519_mul>
 800e184:	a840      	add	r0, sp, #256	; 0x100
 800e186:	a910      	add	r1, sp, #64	; 0x40
 800e188:	f7ff feda 	bl	800df40 <fe25519_square>
 800e18c:	a818      	add	r0, sp, #96	; 0x60
 800e18e:	a940      	add	r1, sp, #256	; 0x100
 800e190:	aa08      	add	r2, sp, #32
 800e192:	f7ff fcae 	bl	800daf2 <fe25519_mul>
 800e196:	a840      	add	r0, sp, #256	; 0x100
 800e198:	a918      	add	r1, sp, #96	; 0x60
 800e19a:	f7ff fed1 	bl	800df40 <fe25519_square>
 800e19e:	2404      	movs	r4, #4
 800e1a0:	a840      	add	r0, sp, #256	; 0x100
 800e1a2:	4601      	mov	r1, r0
 800e1a4:	f7ff fecc 	bl	800df40 <fe25519_square>
 800e1a8:	3c01      	subs	r4, #1
 800e1aa:	d1f9      	bne.n	800e1a0 <fe25519_pow2523+0x4e>
 800e1ac:	a820      	add	r0, sp, #128	; 0x80
 800e1ae:	a940      	add	r1, sp, #256	; 0x100
 800e1b0:	aa18      	add	r2, sp, #96	; 0x60
 800e1b2:	f7ff fc9e 	bl	800daf2 <fe25519_mul>
 800e1b6:	a840      	add	r0, sp, #256	; 0x100
 800e1b8:	a920      	add	r1, sp, #128	; 0x80
 800e1ba:	f7ff fec1 	bl	800df40 <fe25519_square>
 800e1be:	2409      	movs	r4, #9
 800e1c0:	a840      	add	r0, sp, #256	; 0x100
 800e1c2:	4601      	mov	r1, r0
 800e1c4:	f7ff febc 	bl	800df40 <fe25519_square>
 800e1c8:	3c01      	subs	r4, #1
 800e1ca:	d1f9      	bne.n	800e1c0 <fe25519_pow2523+0x6e>
 800e1cc:	a828      	add	r0, sp, #160	; 0xa0
 800e1ce:	a940      	add	r1, sp, #256	; 0x100
 800e1d0:	aa20      	add	r2, sp, #128	; 0x80
 800e1d2:	f7ff fc8e 	bl	800daf2 <fe25519_mul>
 800e1d6:	a840      	add	r0, sp, #256	; 0x100
 800e1d8:	a928      	add	r1, sp, #160	; 0xa0
 800e1da:	f7ff feb1 	bl	800df40 <fe25519_square>
 800e1de:	2413      	movs	r4, #19
 800e1e0:	a840      	add	r0, sp, #256	; 0x100
 800e1e2:	4601      	mov	r1, r0
 800e1e4:	f7ff feac 	bl	800df40 <fe25519_square>
 800e1e8:	3c01      	subs	r4, #1
 800e1ea:	d1f9      	bne.n	800e1e0 <fe25519_pow2523+0x8e>
 800e1ec:	a840      	add	r0, sp, #256	; 0x100
 800e1ee:	4601      	mov	r1, r0
 800e1f0:	aa28      	add	r2, sp, #160	; 0xa0
 800e1f2:	f7ff fc7e 	bl	800daf2 <fe25519_mul>
 800e1f6:	a840      	add	r0, sp, #256	; 0x100
 800e1f8:	4601      	mov	r1, r0
 800e1fa:	f7ff fea1 	bl	800df40 <fe25519_square>
 800e1fe:	2409      	movs	r4, #9
 800e200:	a840      	add	r0, sp, #256	; 0x100
 800e202:	4601      	mov	r1, r0
 800e204:	f7ff fe9c 	bl	800df40 <fe25519_square>
 800e208:	3c01      	subs	r4, #1
 800e20a:	d1f9      	bne.n	800e200 <fe25519_pow2523+0xae>
 800e20c:	a830      	add	r0, sp, #192	; 0xc0
 800e20e:	a940      	add	r1, sp, #256	; 0x100
 800e210:	aa20      	add	r2, sp, #128	; 0x80
 800e212:	f7ff fc6e 	bl	800daf2 <fe25519_mul>
 800e216:	a840      	add	r0, sp, #256	; 0x100
 800e218:	a930      	add	r1, sp, #192	; 0xc0
 800e21a:	f7ff fe91 	bl	800df40 <fe25519_square>
 800e21e:	2431      	movs	r4, #49	; 0x31
 800e220:	a840      	add	r0, sp, #256	; 0x100
 800e222:	4601      	mov	r1, r0
 800e224:	f7ff fe8c 	bl	800df40 <fe25519_square>
 800e228:	3c01      	subs	r4, #1
 800e22a:	d1f9      	bne.n	800e220 <fe25519_pow2523+0xce>
 800e22c:	a838      	add	r0, sp, #224	; 0xe0
 800e22e:	a940      	add	r1, sp, #256	; 0x100
 800e230:	aa30      	add	r2, sp, #192	; 0xc0
 800e232:	f7ff fc5e 	bl	800daf2 <fe25519_mul>
 800e236:	a840      	add	r0, sp, #256	; 0x100
 800e238:	a938      	add	r1, sp, #224	; 0xe0
 800e23a:	f7ff fe81 	bl	800df40 <fe25519_square>
 800e23e:	2463      	movs	r4, #99	; 0x63
 800e240:	a840      	add	r0, sp, #256	; 0x100
 800e242:	4601      	mov	r1, r0
 800e244:	f7ff fe7c 	bl	800df40 <fe25519_square>
 800e248:	3c01      	subs	r4, #1
 800e24a:	d1f9      	bne.n	800e240 <fe25519_pow2523+0xee>
 800e24c:	a840      	add	r0, sp, #256	; 0x100
 800e24e:	4601      	mov	r1, r0
 800e250:	aa38      	add	r2, sp, #224	; 0xe0
 800e252:	f7ff fc4e 	bl	800daf2 <fe25519_mul>
 800e256:	a840      	add	r0, sp, #256	; 0x100
 800e258:	4601      	mov	r1, r0
 800e25a:	f7ff fe71 	bl	800df40 <fe25519_square>
 800e25e:	2431      	movs	r4, #49	; 0x31
 800e260:	a840      	add	r0, sp, #256	; 0x100
 800e262:	4601      	mov	r1, r0
 800e264:	f7ff fe6c 	bl	800df40 <fe25519_square>
 800e268:	3c01      	subs	r4, #1
 800e26a:	d1f9      	bne.n	800e260 <fe25519_pow2523+0x10e>
 800e26c:	a840      	add	r0, sp, #256	; 0x100
 800e26e:	aa30      	add	r2, sp, #192	; 0xc0
 800e270:	4601      	mov	r1, r0
 800e272:	f7ff fc3e 	bl	800daf2 <fe25519_mul>
 800e276:	a840      	add	r0, sp, #256	; 0x100
 800e278:	4601      	mov	r1, r0
 800e27a:	f7ff fe61 	bl	800df40 <fe25519_square>
 800e27e:	a840      	add	r0, sp, #256	; 0x100
 800e280:	4601      	mov	r1, r0
 800e282:	f7ff fe5d 	bl	800df40 <fe25519_square>
 800e286:	4630      	mov	r0, r6
 800e288:	a940      	add	r1, sp, #256	; 0x100
 800e28a:	462a      	mov	r2, r5
 800e28c:	f7ff fc31 	bl	800daf2 <fe25519_mul>
 800e290:	b048      	add	sp, #288	; 0x120
 800e292:	bd70      	pop	{r4, r5, r6, pc}

0800e294 <ge25519_unpackneg_vartime>:
 800e294:	e92d 41f0 	stmdb	sp!, {r4, r5, r6, r7, r8, lr}
 800e298:	4604      	mov	r4, r0
 800e29a:	f100 0640 	add.w	r6, r0, #64	; 0x40
 800e29e:	b0b8      	sub	sp, #224	; 0xe0
 800e2a0:	460f      	mov	r7, r1
 800e2a2:	4630      	mov	r0, r6
 800e2a4:	f104 0520 	add.w	r5, r4, #32
 800e2a8:	f7ff fb06 	bl	800d8b8 <fe25519_setone>
 800e2ac:	4628      	mov	r0, r5
 800e2ae:	4639      	mov	r1, r7
 800e2b0:	f897 801f 	ldrb.w	r8, [r7, #31]
 800e2b4:	f7ff fade 	bl	800d874 <fe25519_unpack>
 800e2b8:	a810      	add	r0, sp, #64	; 0x40
 800e2ba:	4629      	mov	r1, r5
 800e2bc:	f7ff fe40 	bl	800df40 <fe25519_square>
 800e2c0:	a818      	add	r0, sp, #96	; 0x60
 800e2c2:	a910      	add	r1, sp, #64	; 0x40
 800e2c4:	4a3b      	ldr	r2, [pc, #236]	; (800e3b4 <ge25519_unpackneg_vartime+0x120>)
 800e2c6:	f7ff fc14 	bl	800daf2 <fe25519_mul>
 800e2ca:	a810      	add	r0, sp, #64	; 0x40
 800e2cc:	4601      	mov	r1, r0
 800e2ce:	4632      	mov	r2, r6
 800e2d0:	f7ff fb37 	bl	800d942 <fe25519_sub>
 800e2d4:	a818      	add	r0, sp, #96	; 0x60
 800e2d6:	4602      	mov	r2, r0
 800e2d8:	4631      	mov	r1, r6
 800e2da:	f7ff fb10 	bl	800d8fe <fe25519_add>
 800e2de:	a820      	add	r0, sp, #128	; 0x80
 800e2e0:	a918      	add	r1, sp, #96	; 0x60
 800e2e2:	f7ff fe2d 	bl	800df40 <fe25519_square>
 800e2e6:	a828      	add	r0, sp, #160	; 0xa0
 800e2e8:	a920      	add	r1, sp, #128	; 0x80
 800e2ea:	f7ff fe29 	bl	800df40 <fe25519_square>
 800e2ee:	a830      	add	r0, sp, #192	; 0xc0
 800e2f0:	a928      	add	r1, sp, #160	; 0xa0
 800e2f2:	aa20      	add	r2, sp, #128	; 0x80
 800e2f4:	f7ff fbfd 	bl	800daf2 <fe25519_mul>
 800e2f8:	4668      	mov	r0, sp
 800e2fa:	a930      	add	r1, sp, #192	; 0xc0
 800e2fc:	aa10      	add	r2, sp, #64	; 0x40
 800e2fe:	f7ff fbf8 	bl	800daf2 <fe25519_mul>
 800e302:	aa18      	add	r2, sp, #96	; 0x60
 800e304:	4668      	mov	r0, sp
 800e306:	4669      	mov	r1, sp
 800e308:	f7ff fbf3 	bl	800daf2 <fe25519_mul>
 800e30c:	4668      	mov	r0, sp
 800e30e:	4669      	mov	r1, sp
 800e310:	f7ff ff1f 	bl	800e152 <fe25519_pow2523>
 800e314:	4668      	mov	r0, sp
 800e316:	4669      	mov	r1, sp
 800e318:	aa10      	add	r2, sp, #64	; 0x40
 800e31a:	f7ff fbea 	bl	800daf2 <fe25519_mul>
 800e31e:	4668      	mov	r0, sp
 800e320:	4669      	mov	r1, sp
 800e322:	aa18      	add	r2, sp, #96	; 0x60
 800e324:	f7ff fbe5 	bl	800daf2 <fe25519_mul>
 800e328:	4668      	mov	r0, sp
 800e32a:	4669      	mov	r1, sp
 800e32c:	aa18      	add	r2, sp, #96	; 0x60
 800e32e:	f7ff fbe0 	bl	800daf2 <fe25519_mul>
 800e332:	aa18      	add	r2, sp, #96	; 0x60
 800e334:	4620      	mov	r0, r4
 800e336:	4669      	mov	r1, sp
 800e338:	f7ff fbdb 	bl	800daf2 <fe25519_mul>
 800e33c:	a808      	add	r0, sp, #32
 800e33e:	4621      	mov	r1, r4
 800e340:	f7ff fdfe 	bl	800df40 <fe25519_square>
 800e344:	a808      	add	r0, sp, #32
 800e346:	4601      	mov	r1, r0
 800e348:	aa18      	add	r2, sp, #96	; 0x60
 800e34a:	f7ff fbd2 	bl	800daf2 <fe25519_mul>
 800e34e:	a808      	add	r0, sp, #32
 800e350:	a910      	add	r1, sp, #64	; 0x40
 800e352:	ea4f 18d8 	mov.w	r8, r8, lsr #7
 800e356:	f7ff fb93 	bl	800da80 <fe25519_iseq_vartime>
 800e35a:	b920      	cbnz	r0, 800e366 <ge25519_unpackneg_vartime+0xd2>
 800e35c:	4620      	mov	r0, r4
 800e35e:	4621      	mov	r1, r4
 800e360:	4a15      	ldr	r2, [pc, #84]	; (800e3b8 <ge25519_unpackneg_vartime+0x124>)
 800e362:	f7ff fbc6 	bl	800daf2 <fe25519_mul>
 800e366:	a808      	add	r0, sp, #32
 800e368:	4621      	mov	r1, r4
 800e36a:	f7ff fde9 	bl	800df40 <fe25519_square>
 800e36e:	a808      	add	r0, sp, #32
 800e370:	4601      	mov	r1, r0
 800e372:	aa18      	add	r2, sp, #96	; 0x60
 800e374:	f7ff fbbd 	bl	800daf2 <fe25519_mul>
 800e378:	a808      	add	r0, sp, #32
 800e37a:	a910      	add	r1, sp, #64	; 0x40
 800e37c:	f7ff fb80 	bl	800da80 <fe25519_iseq_vartime>
 800e380:	b190      	cbz	r0, 800e3a8 <ge25519_unpackneg_vartime+0x114>
 800e382:	4620      	mov	r0, r4
 800e384:	f7ff fba3 	bl	800dace <fe25519_getparity>
 800e388:	f1c8 0801 	rsb	r8, r8, #1
 800e38c:	4540      	cmp	r0, r8
 800e38e:	d003      	beq.n	800e398 <ge25519_unpackneg_vartime+0x104>
 800e390:	4620      	mov	r0, r4
 800e392:	4621      	mov	r1, r4
 800e394:	f7ff fb0f 	bl	800d9b6 <fe25519_neg>
 800e398:	f104 0060 	add.w	r0, r4, #96	; 0x60
 800e39c:	4621      	mov	r1, r4
 800e39e:	462a      	mov	r2, r5
 800e3a0:	f7ff fba7 	bl	800daf2 <fe25519_mul>
 800e3a4:	2000      	movs	r0, #0
 800e3a6:	e001      	b.n	800e3ac <ge25519_unpackneg_vartime+0x118>
 800e3a8:	f04f 30ff 	mov.w	r0, #4294967295
 800e3ac:	b038      	add	sp, #224	; 0xe0
 800e3ae:	e8bd 81f0 	ldmia.w	sp!, {r4, r5, r6, r7, r8, pc}
 800e3b2:	bf00      	nop
 800e3b4:	0801067c 	.word	0x0801067c
 800e3b8:	0800fb80 	.word	0x0800fb80

0800e3bc <fe25519_mult121665>:
 800e3bc:	e92d 4370 	stmdb	sp!, {r4, r5, r6, r8, r9, lr}
 800e3c0:	2200      	movs	r2, #0
 800e3c2:	2600      	movs	r6, #0
 800e3c4:	2300      	movs	r3, #0
 800e3c6:	598c      	ldr	r4, [r1, r6]
 800e3c8:	4d08      	ldr	r5, [pc, #32]	; (800e3ec <fe25519_mult121665+0x30>)
 800e3ca:	4690      	mov	r8, r2
 800e3cc:	4699      	mov	r9, r3
 800e3ce:	fbe5 8904 	umlal	r8, r9, r5, r4
 800e3d2:	f840 8006 	str.w	r8, [r0, r6]
 800e3d6:	3604      	adds	r6, #4
 800e3d8:	2e20      	cmp	r6, #32
 800e3da:	464a      	mov	r2, r9
 800e3dc:	f04f 0300 	mov.w	r3, #0
 800e3e0:	d1f1      	bne.n	800e3c6 <fe25519_mult121665+0xa>
 800e3e2:	4601      	mov	r1, r0
 800e3e4:	e8bd 4370 	ldmia.w	sp!, {r4, r5, r6, r8, r9, lr}
 800e3e8:	f7f3 bfe2 	b.w	80023b0 <reduceRS>
 800e3ec:	0001db41 	.word	0x0001db41

0800e3f0 <ED25519keyGen>:
 800e3f0:	b570      	push	{r4, r5, r6, lr}
 800e3f2:	460c      	mov	r4, r1
 800e3f4:	b0f0      	sub	sp, #448	; 0x1c0
 800e3f6:	4605      	mov	r5, r0
 800e3f8:	2800      	cmp	r0, #0
 800e3fa:	d03b      	beq.n	800e474 <ED25519keyGen+0x84>
 800e3fc:	2900      	cmp	r1, #0
 800e3fe:	d039      	beq.n	800e474 <ED25519keyGen+0x84>
 800e400:	2300      	movs	r3, #0
 800e402:	f88d 30ec 	strb.w	r3, [sp, #236]	; 0xec
 800e406:	a83a      	add	r0, sp, #232	; 0xe8
 800e408:	2340      	movs	r3, #64	; 0x40
 800e40a:	933c      	str	r3, [sp, #240]	; 0xf0
 800e40c:	f7fa f828 	bl	8008460 <SHA512Init>
 800e410:	4629      	mov	r1, r5
 800e412:	2220      	movs	r2, #32
 800e414:	a83a      	add	r0, sp, #232	; 0xe8
 800e416:	f7fa f81b 	bl	8008450 <SHA512_Append>
 800e41a:	aa01      	add	r2, sp, #4
 800e41c:	4606      	mov	r6, r0
 800e41e:	a90a      	add	r1, sp, #40	; 0x28
 800e420:	a83a      	add	r0, sp, #232	; 0xe8
 800e422:	f7fa f916 	bl	8008652 <SHA512_Finish>
 800e426:	f89d 3028 	ldrb.w	r3, [sp, #40]	; 0x28
 800e42a:	f023 0307 	bic.w	r3, r3, #7
 800e42e:	f88d 3028 	strb.w	r3, [sp, #40]	; 0x28
 800e432:	f89d 3047 	ldrb.w	r3, [sp, #71]	; 0x47
 800e436:	f003 037f 	and.w	r3, r3, #127	; 0x7f
 800e43a:	f043 0340 	orr.w	r3, r3, #64	; 0x40
 800e43e:	4306      	orrs	r6, r0
 800e440:	a90a      	add	r1, sp, #40	; 0x28
 800e442:	a802      	add	r0, sp, #8
 800e444:	f88d 3047 	strb.w	r3, [sp, #71]	; 0x47
 800e448:	f7ff f995 	bl	800d776 <sc25519_from32bytes>
 800e44c:	a81a      	add	r0, sp, #104	; 0x68
 800e44e:	a902      	add	r1, sp, #8
 800e450:	f7ff fd40 	bl	800ded4 <ge25519_scalarmult_base>
 800e454:	4620      	mov	r0, r4
 800e456:	a91a      	add	r1, sp, #104	; 0x68
 800e458:	f7ff fe5b 	bl	800e112 <ge25519_pack>
 800e45c:	f105 0020 	add.w	r0, r5, #32
 800e460:	4621      	mov	r1, r4
 800e462:	2220      	movs	r2, #32
 800e464:	f000 fa53 	bl	800e90e <memmove>
 800e468:	2e00      	cmp	r6, #0
 800e46a:	f640 70ab 	movw	r0, #4011	; 0xfab
 800e46e:	bf08      	it	eq
 800e470:	2000      	moveq	r0, #0
 800e472:	e001      	b.n	800e478 <ED25519keyGen+0x88>
 800e474:	f44f 50ac 	mov.w	r0, #5504	; 0x1580
 800e478:	b070      	add	sp, #448	; 0x1c0
 800e47a:	bd70      	pop	{r4, r5, r6, pc}

0800e47c <ED25519sign>:
 800e47c:	e92d 4ff0 	stmdb	sp!, {r4, r5, r6, r7, r8, r9, sl, fp, lr}
 800e480:	460d      	mov	r5, r1
 800e482:	f5ad 7d23 	sub.w	sp, sp, #652	; 0x28c
 800e486:	4616      	mov	r6, r2
 800e488:	461f      	mov	r7, r3
 800e48a:	4604      	mov	r4, r0
 800e48c:	2800      	cmp	r0, #0
 800e48e:	f000 809c 	beq.w	800e5ca <ED25519sign+0x14e>
 800e492:	2900      	cmp	r1, #0
 800e494:	f000 8099 	beq.w	800e5ca <ED25519sign+0x14e>
 800e498:	2b00      	cmp	r3, #0
 800e49a:	f000 8096 	beq.w	800e5ca <ED25519sign+0x14e>
 800e49e:	2a00      	cmp	r2, #0
 800e4a0:	f2c0 8093 	blt.w	800e5ca <ED25519sign+0x14e>
 800e4a4:	f04f 0800 	mov.w	r8, #0
 800e4a8:	2340      	movs	r3, #64	; 0x40
 800e4aa:	a86c      	add	r0, sp, #432	; 0x1b0
 800e4ac:	936e      	str	r3, [sp, #440]	; 0x1b8
 800e4ae:	f88d 81b4 	strb.w	r8, [sp, #436]	; 0x1b4
 800e4b2:	f7f9 ffd5 	bl	8008460 <SHA512Init>
 800e4b6:	4639      	mov	r1, r7
 800e4b8:	2220      	movs	r2, #32
 800e4ba:	a86c      	add	r0, sp, #432	; 0x1b0
 800e4bc:	f7f9 ffc8 	bl	8008450 <SHA512_Append>
 800e4c0:	a91c      	add	r1, sp, #112	; 0x70
 800e4c2:	4603      	mov	r3, r0
 800e4c4:	aa03      	add	r2, sp, #12
 800e4c6:	a86c      	add	r0, sp, #432	; 0x1b0
 800e4c8:	9300      	str	r3, [sp, #0]
 800e4ca:	f7fa f8c2 	bl	8008652 <SHA512_Finish>
 800e4ce:	f89d 2070 	ldrb.w	r2, [sp, #112]	; 0x70
 800e4d2:	f88d 81b4 	strb.w	r8, [sp, #436]	; 0x1b4
 800e4d6:	f022 0207 	bic.w	r2, r2, #7
 800e4da:	f88d 2070 	strb.w	r2, [sp, #112]	; 0x70
 800e4de:	f89d 208f 	ldrb.w	r2, [sp, #143]	; 0x8f
 800e4e2:	f002 027f 	and.w	r2, r2, #127	; 0x7f
 800e4e6:	4684      	mov	ip, r0
 800e4e8:	f042 0240 	orr.w	r2, r2, #64	; 0x40
 800e4ec:	a86c      	add	r0, sp, #432	; 0x1b0
 800e4ee:	f8cd c004 	str.w	ip, [sp, #4]
 800e4f2:	f88d 208f 	strb.w	r2, [sp, #143]	; 0x8f
 800e4f6:	f7f9 ffb3 	bl	8008460 <SHA512Init>
 800e4fa:	a924      	add	r1, sp, #144	; 0x90
 800e4fc:	2220      	movs	r2, #32
 800e4fe:	a86c      	add	r0, sp, #432	; 0x1b0
 800e500:	f7f9 fddf 	bl	80080c2 <SHA512_Append.part.21>
 800e504:	4629      	mov	r1, r5
 800e506:	4632      	mov	r2, r6
 800e508:	4681      	mov	r9, r0
 800e50a:	a86c      	add	r0, sp, #432	; 0x1b0
 800e50c:	f7f9 ffa0 	bl	8008450 <SHA512_Append>
 800e510:	aa03      	add	r2, sp, #12
 800e512:	4683      	mov	fp, r0
 800e514:	a92c      	add	r1, sp, #176	; 0xb0
 800e516:	a86c      	add	r0, sp, #432	; 0x1b0
 800e518:	f7fa f89b 	bl	8008652 <SHA512_Finish>
 800e51c:	a92c      	add	r1, sp, #176	; 0xb0
 800e51e:	4682      	mov	sl, r0
 800e520:	a804      	add	r0, sp, #16
 800e522:	f7ff f942 	bl	800d7aa <sc25519_from64bytes>
 800e526:	a84c      	add	r0, sp, #304	; 0x130
 800e528:	a904      	add	r1, sp, #16
 800e52a:	f7ff fcd3 	bl	800ded4 <ge25519_scalarmult_base>
 800e52e:	a94c      	add	r1, sp, #304	; 0x130
 800e530:	4620      	mov	r0, r4
 800e532:	f7ff fdee 	bl	800e112 <ge25519_pack>
 800e536:	a86c      	add	r0, sp, #432	; 0x1b0
 800e538:	f88d 81b4 	strb.w	r8, [sp, #436]	; 0x1b4
 800e53c:	f7f9 ff90 	bl	8008460 <SHA512Init>
 800e540:	4621      	mov	r1, r4
 800e542:	2220      	movs	r2, #32
 800e544:	a86c      	add	r0, sp, #432	; 0x1b0
 800e546:	f7f9 ff83 	bl	8008450 <SHA512_Append>
 800e54a:	f107 0120 	add.w	r1, r7, #32
 800e54e:	4680      	mov	r8, r0
 800e550:	2220      	movs	r2, #32
 800e552:	a86c      	add	r0, sp, #432	; 0x1b0
 800e554:	f7f9 ff7c 	bl	8008450 <SHA512_Append>
 800e558:	4629      	mov	r1, r5
 800e55a:	4632      	mov	r2, r6
 800e55c:	4607      	mov	r7, r0
 800e55e:	a86c      	add	r0, sp, #432	; 0x1b0
 800e560:	f7f9 ff76 	bl	8008450 <SHA512_Append>
 800e564:	aa03      	add	r2, sp, #12
 800e566:	4606      	mov	r6, r0
 800e568:	a93c      	add	r1, sp, #240	; 0xf0
 800e56a:	a86c      	add	r0, sp, #432	; 0x1b0
 800e56c:	f7fa f871 	bl	8008652 <SHA512_Finish>
 800e570:	e89d 1008 	ldmia.w	sp, {r3, ip}
 800e574:	ea4c 0303 	orr.w	r3, ip, r3
 800e578:	ea43 0b0b 	orr.w	fp, r3, fp
 800e57c:	ea4b 0a0a 	orr.w	sl, fp, sl
 800e580:	ea4a 0808 	orr.w	r8, sl, r8
 800e584:	ea48 0707 	orr.w	r7, r8, r7
 800e588:	433e      	orrs	r6, r7
 800e58a:	4330      	orrs	r0, r6
 800e58c:	ea40 0509 	orr.w	r5, r0, r9
 800e590:	a93c      	add	r1, sp, #240	; 0xf0
 800e592:	a80c      	add	r0, sp, #48	; 0x30
 800e594:	f7ff f909 	bl	800d7aa <sc25519_from64bytes>
 800e598:	a814      	add	r0, sp, #80	; 0x50
 800e59a:	a91c      	add	r1, sp, #112	; 0x70
 800e59c:	f7ff f8eb 	bl	800d776 <sc25519_from32bytes>
 800e5a0:	a80c      	add	r0, sp, #48	; 0x30
 800e5a2:	4601      	mov	r1, r0
 800e5a4:	aa14      	add	r2, sp, #80	; 0x50
 800e5a6:	f7ff f936 	bl	800d816 <sc25519_mul>
 800e5aa:	a80c      	add	r0, sp, #48	; 0x30
 800e5ac:	4601      	mov	r1, r0
 800e5ae:	aa04      	add	r2, sp, #16
 800e5b0:	f7ff f914 	bl	800d7dc <sc25519_add>
 800e5b4:	f104 0020 	add.w	r0, r4, #32
 800e5b8:	a90c      	add	r1, sp, #48	; 0x30
 800e5ba:	f7ff f908 	bl	800d7ce <sc25519_to32bytes>
 800e5be:	2d00      	cmp	r5, #0
 800e5c0:	f640 70ab 	movw	r0, #4011	; 0xfab
 800e5c4:	bf08      	it	eq
 800e5c6:	2000      	moveq	r0, #0
 800e5c8:	e001      	b.n	800e5ce <ED25519sign+0x152>
 800e5ca:	f44f 50ac 	mov.w	r0, #5504	; 0x1580
 800e5ce:	f50d 7d23 	add.w	sp, sp, #652	; 0x28c
 800e5d2:	e8bd 8ff0 	ldmia.w	sp!, {r4, r5, r6, r7, r8, r9, sl, fp, pc}
	...

0800e5d8 <ED25519verify>:
 800e5d8:	e92d 47f0 	stmdb	sp!, {r4, r5, r6, r7, r8, r9, sl, lr}
 800e5dc:	461e      	mov	r6, r3
 800e5de:	f892 303f 	ldrb.w	r3, [r2, #63]	; 0x3f
 800e5e2:	f013 0fe0 	tst.w	r3, #224	; 0xe0
 800e5e6:	f5ad 7d22 	sub.w	sp, sp, #648	; 0x288
 800e5ea:	4681      	mov	r9, r0
 800e5ec:	4688      	mov	r8, r1
 800e5ee:	4614      	mov	r4, r2
 800e5f0:	d002      	beq.n	800e5f8 <ED25519verify+0x20>
 800e5f2:	f44f 707b 	mov.w	r0, #1004	; 0x3ec
 800e5f6:	e04e      	b.n	800e696 <ED25519verify+0xbe>
 800e5f8:	a82c      	add	r0, sp, #176	; 0xb0
 800e5fa:	4631      	mov	r1, r6
 800e5fc:	f7ff fe4a 	bl	800e294 <ge25519_unpackneg_vartime>
 800e600:	4605      	mov	r5, r0
 800e602:	2800      	cmp	r0, #0
 800e604:	d1f5      	bne.n	800e5f2 <ED25519verify+0x1a>
 800e606:	af14      	add	r7, sp, #80	; 0x50
 800e608:	f104 0120 	add.w	r1, r4, #32
 800e60c:	4638      	mov	r0, r7
 800e60e:	f7ff f8b2 	bl	800d776 <sc25519_from32bytes>
 800e612:	2340      	movs	r3, #64	; 0x40
 800e614:	a86c      	add	r0, sp, #432	; 0x1b0
 800e616:	936e      	str	r3, [sp, #440]	; 0x1b8
 800e618:	f88d 51b4 	strb.w	r5, [sp, #436]	; 0x1b4
 800e61c:	f7f9 ff20 	bl	8008460 <SHA512Init>
 800e620:	4621      	mov	r1, r4
 800e622:	2220      	movs	r2, #32
 800e624:	a86c      	add	r0, sp, #432	; 0x1b0
 800e626:	f7f9 ff13 	bl	8008450 <SHA512_Append>
 800e62a:	4631      	mov	r1, r6
 800e62c:	f500 7a7b 	add.w	sl, r0, #1004	; 0x3ec
 800e630:	2220      	movs	r2, #32
 800e632:	a86c      	add	r0, sp, #432	; 0x1b0
 800e634:	f7f9 ff0c 	bl	8008450 <SHA512_Append>
 800e638:	4642      	mov	r2, r8
 800e63a:	eb0a 0600 	add.w	r6, sl, r0
 800e63e:	4649      	mov	r1, r9
 800e640:	a86c      	add	r0, sp, #432	; 0x1b0
 800e642:	f7f9 ff05 	bl	8008450 <SHA512_Append>
 800e646:	aa03      	add	r2, sp, #12
 800e648:	eb06 0800 	add.w	r8, r6, r0
 800e64c:	a91c      	add	r1, sp, #112	; 0x70
 800e64e:	a86c      	add	r0, sp, #432	; 0x1b0
 800e650:	f7f9 ffff 	bl	8008652 <SHA512_Finish>
 800e654:	a91c      	add	r1, sp, #112	; 0x70
 800e656:	4480      	add	r8, r0
 800e658:	a80c      	add	r0, sp, #48	; 0x30
 800e65a:	f7ff f8a6 	bl	800d7aa <sc25519_from64bytes>
 800e65e:	ae04      	add	r6, sp, #16
 800e660:	aa0c      	add	r2, sp, #48	; 0x30
 800e662:	4b0f      	ldr	r3, [pc, #60]	; (800e6a0 <ED25519verify+0xc8>)
 800e664:	9700      	str	r7, [sp, #0]
 800e666:	a84c      	add	r0, sp, #304	; 0x130
 800e668:	a92c      	add	r1, sp, #176	; 0xb0
 800e66a:	f7ff fbf7 	bl	800de5c <ge25519_double_scalarmult_vartime>
 800e66e:	4630      	mov	r0, r6
 800e670:	a94c      	add	r1, sp, #304	; 0x130
 800e672:	f7ff fd4e 	bl	800e112 <ge25519_pack>
 800e676:	462a      	mov	r2, r5
 800e678:	462b      	mov	r3, r5
 800e67a:	5cf0      	ldrb	r0, [r6, r3]
 800e67c:	5ce1      	ldrb	r1, [r4, r3]
 800e67e:	3301      	adds	r3, #1
 800e680:	4041      	eors	r1, r0
 800e682:	2b20      	cmp	r3, #32
 800e684:	ea42 0201 	orr.w	r2, r2, r1
 800e688:	d1f7      	bne.n	800e67a <ED25519verify+0xa2>
 800e68a:	4252      	negs	r2, r2
 800e68c:	2a00      	cmp	r2, #0
 800e68e:	bfb4      	ite	lt
 800e690:	4640      	movlt	r0, r8
 800e692:	f1a8 0001 	subge.w	r0, r8, #1
 800e696:	f50d 7d22 	add.w	sp, sp, #648	; 0x288
 800e69a:	e8bd 87f0 	ldmia.w	sp!, {r4, r5, r6, r7, r8, r9, sl, pc}
 800e69e:	bf00      	nop
 800e6a0:	080102c4 	.word	0x080102c4

0800e6a4 <C25519keyExchange>:
 800e6a4:	b570      	push	{r4, r5, r6, lr}
 800e6a6:	4605      	mov	r5, r0
 800e6a8:	f5ad 7d72 	sub.w	sp, sp, #968	; 0x3c8
 800e6ac:	2900      	cmp	r1, #0
 800e6ae:	f000 80b6 	beq.w	800e81e <C25519keyExchange+0x17a>
 800e6b2:	2a00      	cmp	r2, #0
 800e6b4:	f000 80b3 	beq.w	800e81e <C25519keyExchange+0x17a>
 800e6b8:	2800      	cmp	r0, #0
 800e6ba:	f000 80b0 	beq.w	800e81e <C25519keyExchange+0x17a>
 800e6be:	2400      	movs	r4, #0
 800e6c0:	ab02      	add	r3, sp, #8
 800e6c2:	5d08      	ldrb	r0, [r1, r4]
 800e6c4:	54e0      	strb	r0, [r4, r3]
 800e6c6:	3401      	adds	r4, #1
 800e6c8:	2c20      	cmp	r4, #32
 800e6ca:	d1f9      	bne.n	800e6c0 <C25519keyExchange+0x1c>
 800e6cc:	f89d 1008 	ldrb.w	r1, [sp, #8]
 800e6d0:	f021 0107 	bic.w	r1, r1, #7
 800e6d4:	f88d 1008 	strb.w	r1, [sp, #8]
 800e6d8:	f89d 1027 	ldrb.w	r1, [sp, #39]	; 0x27
 800e6dc:	f001 017f 	and.w	r1, r1, #127	; 0x7f
 800e6e0:	f041 0140 	orr.w	r1, r1, #64	; 0x40
 800e6e4:	f88d 1027 	strb.w	r1, [sp, #39]	; 0x27
 800e6e8:	a8da      	add	r0, sp, #872	; 0x368
 800e6ea:	4611      	mov	r1, r2
 800e6ec:	f7ff f8c2 	bl	800d874 <fe25519_unpack>
 800e6f0:	9be1      	ldr	r3, [sp, #900]	; 0x384
 800e6f2:	a9da      	add	r1, sp, #872	; 0x368
 800e6f4:	f023 4300 	bic.w	r3, r3, #2147483648	; 0x80000000
 800e6f8:	a82a      	add	r0, sp, #168	; 0xa8
 800e6fa:	93e1      	str	r3, [sp, #900]	; 0x384
 800e6fc:	f7ff f8d5 	bl	800d8aa <fe25519_copy>
 800e700:	a832      	add	r0, sp, #200	; 0xc8
 800e702:	f7ff f8d9 	bl	800d8b8 <fe25519_setone>
 800e706:	a83a      	add	r0, sp, #232	; 0xe8
 800e708:	f7ff f8d6 	bl	800d8b8 <fe25519_setone>
 800e70c:	a842      	add	r0, sp, #264	; 0x108
 800e70e:	f7ff f8dd 	bl	800d8cc <fe25519_setzero>
 800e712:	24fe      	movs	r4, #254	; 0xfe
 800e714:	10e3      	asrs	r3, r4, #3
 800e716:	aa02      	add	r2, sp, #8
 800e718:	a84a      	add	r0, sp, #296	; 0x128
 800e71a:	5cd6      	ldrb	r6, [r2, r3]
 800e71c:	f004 0307 	and.w	r3, r4, #7
 800e720:	411e      	asrs	r6, r3
 800e722:	f006 0601 	and.w	r6, r6, #1
 800e726:	ab2a      	add	r3, sp, #168	; 0xa8
 800e728:	a95a      	add	r1, sp, #360	; 0x168
 800e72a:	aa3a      	add	r2, sp, #232	; 0xe8
 800e72c:	9600      	str	r6, [sp, #0]
 800e72e:	f7f3 fe7d 	bl	800242c <c25519_select>
 800e732:	a88a      	add	r0, sp, #552	; 0x228
 800e734:	a94a      	add	r1, sp, #296	; 0x128
 800e736:	aa52      	add	r2, sp, #328	; 0x148
 800e738:	f7ff f8e1 	bl	800d8fe <fe25519_add>
 800e73c:	a892      	add	r0, sp, #584	; 0x248
 800e73e:	a94a      	add	r1, sp, #296	; 0x128
 800e740:	aa52      	add	r2, sp, #328	; 0x148
 800e742:	f7ff f8fe 	bl	800d942 <fe25519_sub>
 800e746:	a89a      	add	r0, sp, #616	; 0x268
 800e748:	a95a      	add	r1, sp, #360	; 0x168
 800e74a:	aa62      	add	r2, sp, #392	; 0x188
 800e74c:	f7ff f8d7 	bl	800d8fe <fe25519_add>
 800e750:	aa62      	add	r2, sp, #392	; 0x188
 800e752:	a8a2      	add	r0, sp, #648	; 0x288
 800e754:	a95a      	add	r1, sp, #360	; 0x168
 800e756:	f7ff f8f4 	bl	800d942 <fe25519_sub>
 800e75a:	a8aa      	add	r0, sp, #680	; 0x2a8
 800e75c:	a98a      	add	r1, sp, #552	; 0x228
 800e75e:	f7ff fbef 	bl	800df40 <fe25519_square>
 800e762:	a8b2      	add	r0, sp, #712	; 0x2c8
 800e764:	a992      	add	r1, sp, #584	; 0x248
 800e766:	f7ff fbeb 	bl	800df40 <fe25519_square>
 800e76a:	a8ba      	add	r0, sp, #744	; 0x2e8
 800e76c:	a99a      	add	r1, sp, #616	; 0x268
 800e76e:	aa92      	add	r2, sp, #584	; 0x248
 800e770:	f7ff f9bf 	bl	800daf2 <fe25519_mul>
 800e774:	a8c2      	add	r0, sp, #776	; 0x308
 800e776:	a9a2      	add	r1, sp, #648	; 0x288
 800e778:	aa8a      	add	r2, sp, #552	; 0x228
 800e77a:	f7ff f9ba 	bl	800daf2 <fe25519_mul>
 800e77e:	a8ca      	add	r0, sp, #808	; 0x328
 800e780:	a9ba      	add	r1, sp, #744	; 0x2e8
 800e782:	aac2      	add	r2, sp, #776	; 0x308
 800e784:	f7ff f8bb 	bl	800d8fe <fe25519_add>
 800e788:	aac2      	add	r2, sp, #776	; 0x308
 800e78a:	a8d2      	add	r0, sp, #840	; 0x348
 800e78c:	a9ba      	add	r1, sp, #744	; 0x2e8
 800e78e:	f7ff f8d8 	bl	800d942 <fe25519_sub>
 800e792:	a80a      	add	r0, sp, #40	; 0x28
 800e794:	a9d2      	add	r1, sp, #840	; 0x348
 800e796:	f7ff fbd3 	bl	800df40 <fe25519_square>
 800e79a:	aab2      	add	r2, sp, #712	; 0x2c8
 800e79c:	a812      	add	r0, sp, #72	; 0x48
 800e79e:	a9aa      	add	r1, sp, #680	; 0x2a8
 800e7a0:	f7ff f8cf 	bl	800d942 <fe25519_sub>
 800e7a4:	a81a      	add	r0, sp, #104	; 0x68
 800e7a6:	a912      	add	r1, sp, #72	; 0x48
 800e7a8:	f7ff fe08 	bl	800e3bc <fe25519_mult121665>
 800e7ac:	a822      	add	r0, sp, #136	; 0x88
 800e7ae:	a91a      	add	r1, sp, #104	; 0x68
 800e7b0:	aaaa      	add	r2, sp, #680	; 0x2a8
 800e7b2:	f7ff f8a4 	bl	800d8fe <fe25519_add>
 800e7b6:	a86a      	add	r0, sp, #424	; 0x1a8
 800e7b8:	a9aa      	add	r1, sp, #680	; 0x2a8
 800e7ba:	aab2      	add	r2, sp, #712	; 0x2c8
 800e7bc:	f7ff f999 	bl	800daf2 <fe25519_mul>
 800e7c0:	aa22      	add	r2, sp, #136	; 0x88
 800e7c2:	a872      	add	r0, sp, #456	; 0x1c8
 800e7c4:	a912      	add	r1, sp, #72	; 0x48
 800e7c6:	f7ff f994 	bl	800daf2 <fe25519_mul>
 800e7ca:	a87a      	add	r0, sp, #488	; 0x1e8
 800e7cc:	a9ca      	add	r1, sp, #808	; 0x328
 800e7ce:	f7ff fbb7 	bl	800df40 <fe25519_square>
 800e7d2:	a882      	add	r0, sp, #520	; 0x208
 800e7d4:	a90a      	add	r1, sp, #40	; 0x28
 800e7d6:	aada      	add	r2, sp, #872	; 0x368
 800e7d8:	f7ff f98b 	bl	800daf2 <fe25519_mul>
 800e7dc:	9600      	str	r6, [sp, #0]
 800e7de:	a83a      	add	r0, sp, #232	; 0xe8
 800e7e0:	a92a      	add	r1, sp, #168	; 0xa8
 800e7e2:	aa6a      	add	r2, sp, #424	; 0x1a8
 800e7e4:	ab7a      	add	r3, sp, #488	; 0x1e8
 800e7e6:	f7f3 fe21 	bl	800242c <c25519_select>
 800e7ea:	f114 34ff 	adds.w	r4, r4, #4294967295
 800e7ee:	d291      	bcs.n	800e714 <C25519keyExchange+0x70>
 800e7f0:	a8da      	add	r0, sp, #872	; 0x368
 800e7f2:	a93a      	add	r1, sp, #232	; 0xe8
 800e7f4:	f7ff f859 	bl	800d8aa <fe25519_copy>
 800e7f8:	a8e2      	add	r0, sp, #904	; 0x388
 800e7fa:	a942      	add	r1, sp, #264	; 0x108
 800e7fc:	f7ff f855 	bl	800d8aa <fe25519_copy>
 800e800:	a8e2      	add	r0, sp, #904	; 0x388
 800e802:	4601      	mov	r1, r0
 800e804:	f7ff fb9f 	bl	800df46 <fe25519_invert>
 800e808:	a8ea      	add	r0, sp, #936	; 0x3a8
 800e80a:	a9da      	add	r1, sp, #872	; 0x368
 800e80c:	aae2      	add	r2, sp, #904	; 0x388
 800e80e:	f7ff f970 	bl	800daf2 <fe25519_mul>
 800e812:	4628      	mov	r0, r5
 800e814:	a9ea      	add	r1, sp, #936	; 0x3a8
 800e816:	f7ff f91c 	bl	800da52 <fe25519_pack>
 800e81a:	2000      	movs	r0, #0
 800e81c:	e001      	b.n	800e822 <C25519keyExchange+0x17e>
 800e81e:	f241 50e4 	movw	r0, #5604	; 0x15e4
 800e822:	f50d 7d72 	add.w	sp, sp, #968	; 0x3c8
 800e826:	bd70      	pop	{r4, r5, r6, pc}

0800e828 <C25519keyGen>:
 800e828:	b530      	push	{r4, r5, lr}
 800e82a:	b089      	sub	sp, #36	; 0x24
 800e82c:	4604      	mov	r4, r0
 800e82e:	460d      	mov	r5, r1
 800e830:	4668      	mov	r0, sp
 800e832:	2100      	movs	r1, #0
 800e834:	2220      	movs	r2, #32
 800e836:	f000 f884 	bl	800e942 <memset>
 800e83a:	2309      	movs	r3, #9
 800e83c:	f88d 3000 	strb.w	r3, [sp]
 800e840:	b18c      	cbz	r4, 800e866 <C25519keyGen+0x3e>
 800e842:	b185      	cbz	r5, 800e866 <C25519keyGen+0x3e>
 800e844:	7823      	ldrb	r3, [r4, #0]
 800e846:	f023 0307 	bic.w	r3, r3, #7
 800e84a:	7023      	strb	r3, [r4, #0]
 800e84c:	7fe3      	ldrb	r3, [r4, #31]
 800e84e:	f003 037f 	and.w	r3, r3, #127	; 0x7f
 800e852:	f043 0340 	orr.w	r3, r3, #64	; 0x40
 800e856:	77e3      	strb	r3, [r4, #31]
 800e858:	4628      	mov	r0, r5
 800e85a:	4621      	mov	r1, r4
 800e85c:	466a      	mov	r2, sp
 800e85e:	f7ff ff21 	bl	800e6a4 <C25519keyExchange>
 800e862:	2000      	movs	r0, #0
 800e864:	e001      	b.n	800e86a <C25519keyGen+0x42>
 800e866:	f241 50e4 	movw	r0, #5604	; 0x15e4
 800e86a:	b009      	add	sp, #36	; 0x24
 800e86c:	bd30      	pop	{r4, r5, pc}

0800e86e <STM32_GetCryptoLibrarySettings>:
 800e86e:	b530      	push	{r4, r5, lr}
 800e870:	4603      	mov	r3, r0
 800e872:	2203      	movs	r2, #3
 800e874:	2405      	movs	r4, #5
 800e876:	7002      	strb	r2, [r0, #0]
 800e878:	2101      	movs	r1, #1
 800e87a:	711c      	strb	r4, [r3, #4]
 800e87c:	f240 35ff 	movw	r5, #1023	; 0x3ff
 800e880:	2436      	movs	r4, #54	; 0x36
 800e882:	2000      	movs	r0, #0
 800e884:	70d9      	strb	r1, [r3, #3]
 800e886:	715a      	strb	r2, [r3, #5]
 800e888:	719c      	strb	r4, [r3, #6]
 800e88a:	71d9      	strb	r1, [r3, #7]
 800e88c:	24ff      	movs	r4, #255	; 0xff
 800e88e:	7219      	strb	r1, [r3, #8]
 800e890:	725a      	strb	r2, [r3, #9]
 800e892:	819d      	strh	r5, [r3, #12]
 800e894:	8259      	strh	r1, [r3, #18]
 800e896:	250f      	movs	r5, #15
 800e898:	751a      	strb	r2, [r3, #20]
 800e89a:	2104      	movs	r1, #4
 800e89c:	2202      	movs	r2, #2
 800e89e:	7058      	strb	r0, [r3, #1]
 800e8a0:	7098      	strb	r0, [r3, #2]
 800e8a2:	815c      	strh	r4, [r3, #10]
 800e8a4:	81dd      	strh	r5, [r3, #14]
 800e8a6:	821c      	strh	r4, [r3, #16]
 800e8a8:	755a      	strb	r2, [r3, #21]
 800e8aa:	7599      	strb	r1, [r3, #22]
 800e8ac:	75da      	strb	r2, [r3, #23]
 800e8ae:	bd30      	pop	{r4, r5, pc}

0800e8b0 <__libc_init_array>:
 800e8b0:	b570      	push	{r4, r5, r6, lr}
 800e8b2:	4e0d      	ldr	r6, [pc, #52]	; (800e8e8 <__libc_init_array+0x38>)
 800e8b4:	4c0d      	ldr	r4, [pc, #52]	; (800e8ec <__libc_init_array+0x3c>)
 800e8b6:	1ba4      	subs	r4, r4, r6
 800e8b8:	10a4      	asrs	r4, r4, #2
 800e8ba:	2500      	movs	r5, #0
 800e8bc:	42a5      	cmp	r5, r4
 800e8be:	d109      	bne.n	800e8d4 <__libc_init_array+0x24>
 800e8c0:	4e0b      	ldr	r6, [pc, #44]	; (800e8f0 <__libc_init_array+0x40>)
 800e8c2:	4c0c      	ldr	r4, [pc, #48]	; (800e8f4 <__libc_init_array+0x44>)
 800e8c4:	f000 f848 	bl	800e958 <_init>
 800e8c8:	1ba4      	subs	r4, r4, r6
 800e8ca:	10a4      	asrs	r4, r4, #2
 800e8cc:	2500      	movs	r5, #0
 800e8ce:	42a5      	cmp	r5, r4
 800e8d0:	d105      	bne.n	800e8de <__libc_init_array+0x2e>
 800e8d2:	bd70      	pop	{r4, r5, r6, pc}
 800e8d4:	f856 3025 	ldr.w	r3, [r6, r5, lsl #2]
 800e8d8:	4798      	blx	r3
 800e8da:	3501      	adds	r5, #1
 800e8dc:	e7ee      	b.n	800e8bc <__libc_init_array+0xc>
 800e8de:	f856 3025 	ldr.w	r3, [r6, r5, lsl #2]
 800e8e2:	4798      	blx	r3
 800e8e4:	3501      	adds	r5, #1
 800e8e6:	e7f2      	b.n	800e8ce <__libc_init_array+0x1e>
 800e8e8:	0801069c 	.word	0x0801069c
 800e8ec:	0801069c 	.word	0x0801069c
 800e8f0:	0801069c 	.word	0x0801069c
 800e8f4:	080106a0 	.word	0x080106a0

0800e8f8 <memcpy>:
 800e8f8:	b510      	push	{r4, lr}
 800e8fa:	1e43      	subs	r3, r0, #1
 800e8fc:	440a      	add	r2, r1
 800e8fe:	4291      	cmp	r1, r2
 800e900:	d100      	bne.n	800e904 <memcpy+0xc>
 800e902:	bd10      	pop	{r4, pc}
 800e904:	f811 4b01 	ldrb.w	r4, [r1], #1
 800e908:	f803 4f01 	strb.w	r4, [r3, #1]!
 800e90c:	e7f7      	b.n	800e8fe <memcpy+0x6>

0800e90e <memmove>:
 800e90e:	4288      	cmp	r0, r1
 800e910:	b510      	push	{r4, lr}
 800e912:	eb01 0302 	add.w	r3, r1, r2
 800e916:	d803      	bhi.n	800e920 <memmove+0x12>
 800e918:	1e42      	subs	r2, r0, #1
 800e91a:	4299      	cmp	r1, r3
 800e91c:	d10c      	bne.n	800e938 <memmove+0x2a>
 800e91e:	bd10      	pop	{r4, pc}
 800e920:	4298      	cmp	r0, r3
 800e922:	d2f9      	bcs.n	800e918 <memmove+0xa>
 800e924:	1881      	adds	r1, r0, r2
 800e926:	1ad2      	subs	r2, r2, r3
 800e928:	42d3      	cmn	r3, r2
 800e92a:	d100      	bne.n	800e92e <memmove+0x20>
 800e92c:	bd10      	pop	{r4, pc}
 800e92e:	f813 4d01 	ldrb.w	r4, [r3, #-1]!
 800e932:	f801 4d01 	strb.w	r4, [r1, #-1]!
 800e936:	e7f7      	b.n	800e928 <memmove+0x1a>
 800e938:	f811 4b01 	ldrb.w	r4, [r1], #1
 800e93c:	f802 4f01 	strb.w	r4, [r2, #1]!
 800e940:	e7eb      	b.n	800e91a <memmove+0xc>

0800e942 <memset>:
 800e942:	4402      	add	r2, r0
 800e944:	4603      	mov	r3, r0
 800e946:	4293      	cmp	r3, r2
 800e948:	d100      	bne.n	800e94c <memset+0xa>
 800e94a:	4770      	bx	lr
 800e94c:	f803 1b01 	strb.w	r1, [r3], #1
 800e950:	e7f9      	b.n	800e946 <memset+0x4>
	...

0800e954 <__EH_FRAME_BEGIN__>:
 800e954:	0000 0000                                   ....

0800e958 <_init>:
 800e958:	b5f8      	push	{r3, r4, r5, r6, r7, lr}
 800e95a:	bf00      	nop
 800e95c:	bcf8      	pop	{r3, r4, r5, r6, r7}
 800e95e:	bc08      	pop	{r3}
 800e960:	469e      	mov	lr, r3
 800e962:	4770      	bx	lr

0800e964 <_fini>:
 800e964:	b5f8      	push	{r3, r4, r5, r6, r7, lr}
 800e966:	bf00      	nop
 800e968:	bcf8      	pop	{r3, r4, r5, r6, r7}
 800e96a:	bc08      	pop	{r3}
 800e96c:	469e      	mov	lr, r3
 800e96e:	4770      	bx	lr
